ARM GAS  C:\Users\sunyi\AppData\Local\Temp\cc72DXvt.s 			page 1


   1              		.cpu cortex-m0
   2              		.fpu softvfp
   3              		.eabi_attribute 20, 1
   4              		.eabi_attribute 21, 1
   5              		.eabi_attribute 23, 3
   6              		.eabi_attribute 24, 1
   7              		.eabi_attribute 25, 1
   8              		.eabi_attribute 26, 1
   9              		.eabi_attribute 30, 6
  10              		.eabi_attribute 34, 0
  11              		.eabi_attribute 18, 4
  12              		.code	16
  13              		.file	"CYBLE_gatt.c"
  14              		.text
  15              	.Ltext0:
  16              		.cfi_sections	.debug_frame
  17              		.comm	cyBle_state,1,1
  18              		.global	cyBle_gatts
  19              		.section	.rodata
  20              		.align	2
  21              		.type	cyBle_gatts, %object
  22              		.size	cyBle_gatts, 6
  23              	cyBle_gatts:
  24 0000 0800     		.short	8
  25 0002 0A00     		.short	10
  26 0004 0B00     		.short	11
  27              		.data
  28              		.align	2
  29              		.type	cyBle_attValues, %object
  30              		.size	cyBle_attValues, 34
  31              	cyBle_attValues:
  32 0000 50       		.byte	80
  33 0001 72       		.byte	114
  34 0002 6F       		.byte	111
  35 0003 78       		.byte	120
  36 0004 69       		.byte	105
  37 0005 6D       		.byte	109
  38 0006 69       		.byte	105
  39 0007 74       		.byte	116
  40 0008 79       		.byte	121
  41 0009 20       		.byte	32
  42 000a 52       		.byte	82
  43 000b 65       		.byte	101
  44 000c 70       		.byte	112
  45 000d 6F       		.byte	111
  46 000e 72       		.byte	114
  47 000f 74       		.byte	116
  48 0010 65       		.byte	101
  49 0011 72       		.byte	114
  50 0012 00       		.byte	0
  51 0013 02       		.byte	2
  52 0014 28       		.byte	40
  53 0015 00       		.byte	0
  54 0016 38       		.byte	56
  55 0017 00       		.byte	0
  56 0018 00       		.byte	0
  57 0019 00       		.byte	0
ARM GAS  C:\Users\sunyi\AppData\Local\Temp\cc72DXvt.s 			page 2


  58 001a 90       		.byte	-112
  59 001b 01       		.byte	1
  60 001c 00       		.byte	0
  61 001d 00       		.byte	0
  62 001e 00       		.byte	0
  63 001f 00       		.byte	0
  64 0020 00       		.byte	0
  65 0021 00       		.byte	0
  66              		.comm	cyBle_attValuesCCCD,4,4
  67              		.global	cyBle_attValuesLen
  68 0022 0000     		.align	2
  69              		.type	cyBle_attValuesLen, %object
  70              		.size	cyBle_attValuesLen, 64
  71              	cyBle_attValuesLen:
  72 0024 1200     		.short	18
  73 0026 0000     		.space	2
  74 0028 00000000 		.word	cyBle_attValues
  75 002c 0200     		.short	2
  76 002e 0000     		.space	2
  77 0030 12000000 		.word	cyBle_attValues+18
  78 0034 0800     		.short	8
  79 0036 0000     		.space	2
  80 0038 14000000 		.word	cyBle_attValues+20
  81 003c 0400     		.short	4
  82 003e 0000     		.space	2
  83 0040 1C000000 		.word	cyBle_attValues+28
  84 0044 0200     		.short	2
  85 0046 0000     		.space	2
  86 0048 00000000 		.word	cyBle_attValuesCCCD
  87 004c 0100     		.short	1
  88 004e 0000     		.space	2
  89 0050 20000000 		.word	cyBle_attValues+32
  90 0054 0100     		.short	1
  91 0056 0000     		.space	2
  92 0058 21000000 		.word	cyBle_attValues+33
  93 005c 0200     		.short	2
  94 005e 0000     		.space	2
  95 0060 02000000 		.word	cyBle_attValuesCCCD+2
  96              		.global	cyBle_gattDB
  97              		.section	.rodata
  98 0006 0000     		.align	2
  99              		.type	cyBle_gattDB, %object
 100              		.size	cyBle_gattDB, 360
 101              	cyBle_gattDB:
 102 0008 0100     		.short	1
 103 000a 0028     		.short	10240
 104 000c 01000000 		.word	1
 105 0010 0700     		.short	7
 106 0012 0000     		.space	2
 107 0014 0018     		.short	6144
 108 0016 0000     		.space	2
 109 0018 00000000 		.word	0
 110 001c 0200     		.short	2
 111 001e 0328     		.short	10243
 112 0020 01020000 		.word	513
 113 0024 0300     		.short	3
 114 0026 0000     		.space	2
ARM GAS  C:\Users\sunyi\AppData\Local\Temp\cc72DXvt.s 			page 3


 115 0028 002A     		.short	10752
 116 002a 0000     		.space	2
 117 002c 00000000 		.word	0
 118 0030 0300     		.short	3
 119 0032 002A     		.short	10752
 120 0034 01020000 		.word	513
 121 0038 0300     		.short	3
 122 003a 0000     		.space	2
 123 003c 1200     		.short	18
 124 003e 0000     		.space	2
 125 0040 00000000 		.word	cyBle_attValuesLen
 126 0044 0400     		.short	4
 127 0046 0328     		.short	10243
 128 0048 01020000 		.word	513
 129 004c 0500     		.short	5
 130 004e 0000     		.space	2
 131 0050 012A     		.short	10753
 132 0052 0000     		.space	2
 133 0054 00000000 		.word	0
 134 0058 0500     		.short	5
 135 005a 012A     		.short	10753
 136 005c 01020000 		.word	513
 137 0060 0500     		.short	5
 138 0062 0000     		.space	2
 139 0064 0200     		.short	2
 140 0066 0000     		.space	2
 141 0068 08000000 		.word	cyBle_attValuesLen+8
 142 006c 0600     		.short	6
 143 006e 0328     		.short	10243
 144 0070 01020000 		.word	513
 145 0074 0700     		.short	7
 146 0076 0000     		.space	2
 147 0078 042A     		.short	10756
 148 007a 0000     		.space	2
 149 007c 00000000 		.word	0
 150 0080 0700     		.short	7
 151 0082 042A     		.short	10756
 152 0084 01020000 		.word	513
 153 0088 0700     		.short	7
 154 008a 0000     		.space	2
 155 008c 0800     		.short	8
 156 008e 0000     		.space	2
 157 0090 10000000 		.word	cyBle_attValuesLen+16
 158 0094 0800     		.short	8
 159 0096 0028     		.short	10240
 160 0098 01000000 		.word	1
 161 009c 0B00     		.short	11
 162 009e 0000     		.space	2
 163 00a0 0118     		.short	6145
 164 00a2 0000     		.space	2
 165 00a4 00000000 		.word	0
 166 00a8 0900     		.short	9
 167 00aa 0328     		.short	10243
 168 00ac 01220000 		.word	8705
 169 00b0 0B00     		.short	11
 170 00b2 0000     		.space	2
 171 00b4 052A     		.short	10757
ARM GAS  C:\Users\sunyi\AppData\Local\Temp\cc72DXvt.s 			page 4


 172 00b6 0000     		.space	2
 173 00b8 00000000 		.word	0
 174 00bc 0A00     		.short	10
 175 00be 052A     		.short	10757
 176 00c0 01220000 		.word	8705
 177 00c4 0B00     		.short	11
 178 00c6 0000     		.space	2
 179 00c8 0400     		.short	4
 180 00ca 0000     		.space	2
 181 00cc 18000000 		.word	cyBle_attValuesLen+24
 182 00d0 0B00     		.short	11
 183 00d2 0229     		.short	10498
 184 00d4 040A0000 		.word	2564
 185 00d8 0B00     		.short	11
 186 00da 0000     		.space	2
 187 00dc 0200     		.short	2
 188 00de 0000     		.space	2
 189 00e0 20000000 		.word	cyBle_attValuesLen+32
 190 00e4 0C00     		.short	12
 191 00e6 0028     		.short	10240
 192 00e8 01000000 		.word	1
 193 00ec 0E00     		.short	14
 194 00ee 0000     		.space	2
 195 00f0 0318     		.short	6147
 196 00f2 0000     		.space	2
 197 00f4 00000000 		.word	0
 198 00f8 0D00     		.short	13
 199 00fa 0328     		.short	10243
 200 00fc 010A0000 		.word	2561
 201 0100 0E00     		.short	14
 202 0102 0000     		.space	2
 203 0104 062A     		.short	10758
 204 0106 0000     		.space	2
 205 0108 00000000 		.word	0
 206 010c 0E00     		.short	14
 207 010e 062A     		.short	10758
 208 0110 040A0000 		.word	2564
 209 0114 0E00     		.short	14
 210 0116 0000     		.space	2
 211 0118 0100     		.short	1
 212 011a 0000     		.space	2
 213 011c 28000000 		.word	cyBle_attValuesLen+40
 214 0120 0F00     		.short	15
 215 0122 0028     		.short	10240
 216 0124 01000000 		.word	1
 217 0128 1200     		.short	18
 218 012a 0000     		.space	2
 219 012c 0418     		.short	6148
 220 012e 0000     		.space	2
 221 0130 00000000 		.word	0
 222 0134 1000     		.short	16
 223 0136 0328     		.short	10243
 224 0138 01120000 		.word	4609
 225 013c 1200     		.short	18
 226 013e 0000     		.space	2
 227 0140 072A     		.short	10759
 228 0142 0000     		.space	2
ARM GAS  C:\Users\sunyi\AppData\Local\Temp\cc72DXvt.s 			page 5


 229 0144 00000000 		.word	0
 230 0148 1100     		.short	17
 231 014a 072A     		.short	10759
 232 014c 01120000 		.word	4609
 233 0150 1200     		.short	18
 234 0152 0000     		.space	2
 235 0154 0100     		.short	1
 236 0156 0000     		.space	2
 237 0158 30000000 		.word	cyBle_attValuesLen+48
 238 015c 1200     		.short	18
 239 015e 0229     		.short	10498
 240 0160 040A0000 		.word	2564
 241 0164 1200     		.short	18
 242 0166 0000     		.space	2
 243 0168 0200     		.short	2
 244 016a 0000     		.space	2
 245 016c 38000000 		.word	cyBle_attValuesLen+56
 246              		.section	.text.CyBle_GattsReInitGattDb,"ax",%progbits
 247              		.align	2
 248              		.global	CyBle_GattsReInitGattDb
 249              		.code	16
 250              		.thumb_func
 251              		.type	CyBle_GattsReInitGattDb, %function
 252              	CyBle_GattsReInitGattDb:
 253              	.LFB2:
 254              		.file 1 ".\\Generated_Source\\PSoC4\\CYBLE_gatt.c"
   1:.\Generated_Source\PSoC4/CYBLE_gatt.c **** /***************************************************************************//**
   2:.\Generated_Source\PSoC4/CYBLE_gatt.c **** * \file CYBLE_gatt.c
   3:.\Generated_Source\PSoC4/CYBLE_gatt.c **** * \version 3.10
   4:.\Generated_Source\PSoC4/CYBLE_gatt.c **** * 
   5:.\Generated_Source\PSoC4/CYBLE_gatt.c **** * \brief
   6:.\Generated_Source\PSoC4/CYBLE_gatt.c **** *  This file contains the source code for the GATT API of the BLE Component.
   7:.\Generated_Source\PSoC4/CYBLE_gatt.c **** * 
   8:.\Generated_Source\PSoC4/CYBLE_gatt.c **** ********************************************************************************
   9:.\Generated_Source\PSoC4/CYBLE_gatt.c **** * \copyright
  10:.\Generated_Source\PSoC4/CYBLE_gatt.c **** * Copyright 2014-2016, Cypress Semiconductor Corporation.  All rights reserved.
  11:.\Generated_Source\PSoC4/CYBLE_gatt.c **** * You may use this file only in accordance with the license, terms, conditions,
  12:.\Generated_Source\PSoC4/CYBLE_gatt.c **** * disclaimers, and limitations in the end user license agreement accompanying
  13:.\Generated_Source\PSoC4/CYBLE_gatt.c **** * the software package with which this file was provided.
  14:.\Generated_Source\PSoC4/CYBLE_gatt.c **** *******************************************************************************/
  15:.\Generated_Source\PSoC4/CYBLE_gatt.c **** 
  16:.\Generated_Source\PSoC4/CYBLE_gatt.c **** 
  17:.\Generated_Source\PSoC4/CYBLE_gatt.c **** #include "CYBLE_eventHandler.h"
  18:.\Generated_Source\PSoC4/CYBLE_gatt.c **** 
  19:.\Generated_Source\PSoC4/CYBLE_gatt.c **** 
  20:.\Generated_Source\PSoC4/CYBLE_gatt.c **** /***************************************
  21:.\Generated_Source\PSoC4/CYBLE_gatt.c **** * Global variables
  22:.\Generated_Source\PSoC4/CYBLE_gatt.c **** ***************************************/
  23:.\Generated_Source\PSoC4/CYBLE_gatt.c **** 
  24:.\Generated_Source\PSoC4/CYBLE_gatt.c **** CYBLE_STATE_T cyBle_state;
  25:.\Generated_Source\PSoC4/CYBLE_gatt.c **** 
  26:.\Generated_Source\PSoC4/CYBLE_gatt.c **** #if ((CYBLE_MODE_PROFILE) && (CYBLE_BONDING_REQUIREMENT == CYBLE_BONDING_YES))
  27:.\Generated_Source\PSoC4/CYBLE_gatt.c ****     
  28:.\Generated_Source\PSoC4/CYBLE_gatt.c **** #if(CYBLE_MODE_PROFILE)
  29:.\Generated_Source\PSoC4/CYBLE_gatt.c ****     #if defined(__ARMCC_VERSION)
  30:.\Generated_Source\PSoC4/CYBLE_gatt.c ****         CY_ALIGN(CYDEV_FLS_ROW_SIZE) const CY_BLE_FLASH_STORAGE cyBle_flashStorage CY_SECTION(".cy_
  31:.\Generated_Source\PSoC4/CYBLE_gatt.c ****     #elif defined (__GNUC__)
ARM GAS  C:\Users\sunyi\AppData\Local\Temp\cc72DXvt.s 			page 6


  32:.\Generated_Source\PSoC4/CYBLE_gatt.c ****         const CY_BLE_FLASH_STORAGE cyBle_flashStorage CY_SECTION(".cy_checksum_exclude")
  33:.\Generated_Source\PSoC4/CYBLE_gatt.c ****             CY_ALIGN(CYDEV_FLS_ROW_SIZE) =
  34:.\Generated_Source\PSoC4/CYBLE_gatt.c ****     #elif defined (__ICCARM__)
  35:.\Generated_Source\PSoC4/CYBLE_gatt.c ****         #pragma data_alignment=CY_FLASH_SIZEOF_ROW
  36:.\Generated_Source\PSoC4/CYBLE_gatt.c ****         #pragma location=".cy_checksum_exclude"
  37:.\Generated_Source\PSoC4/CYBLE_gatt.c ****         const CY_BLE_FLASH_STORAGE cyBle_flashStorage =
  38:.\Generated_Source\PSoC4/CYBLE_gatt.c ****     #endif  /* (__ARMCC_VERSION) */
  39:.\Generated_Source\PSoC4/CYBLE_gatt.c ****     {
  40:.\Generated_Source\PSoC4/CYBLE_gatt.c ****         { 0x00u, 0x00u, 0x00u, 0x00u, 0x00u, 0x00u, 0x00u, 0x00u, 0x00u, 0x00u, 0x00u, 0x00u, 0x00u
  41:.\Generated_Source\PSoC4/CYBLE_gatt.c ****         0x00u, 0x00u, 0x00u, 0x00u, 0x00u, 0x00u, 0x00u, 0x00u, 0x00u, 0x00u, 0x00u, 0x00u, 0x00u, 
  42:.\Generated_Source\PSoC4/CYBLE_gatt.c ****         0x00u, 0x00u, 0x00u, 0x00u, 0x00u, 0x00u, 0x00u, 0x00u, 0x00u, 0x00u, 0x00u, 0x00u, 0x00u, 
  43:.\Generated_Source\PSoC4/CYBLE_gatt.c ****         0x00u, 0x00u, 0x00u, 0x00u, 0x00u, 0x00u, 0x00u, 0x00u, 0x00u, 0x00u, 0x00u, 0x00u, 0x00u, 
  44:.\Generated_Source\PSoC4/CYBLE_gatt.c ****         0x00u, 0x00u, 0x00u, 0x00u, 0x00u, 0x00u, 0x00u, 0x00u, 0x00u, 0x00u, 0x00u, 0x00u, 0x00u, 
  45:.\Generated_Source\PSoC4/CYBLE_gatt.c ****         0x00u, 0x00u, 0x00u, 0x00u, 0x00u, 0x00u, 0x00u, 0x00u, 0x00u, 0x00u, 0x00u, 0x00u, 0x00u, 
  46:.\Generated_Source\PSoC4/CYBLE_gatt.c ****         0x00u, 0x00u, 0x00u, 0x00u, 0x00u, 0x00u, 0x00u, 0x00u, 0x00u, 0x00u, 0x00u, 0x00u, 0x00u, 
  47:.\Generated_Source\PSoC4/CYBLE_gatt.c ****         0x00u, 0x00u, 0x00u, 0x00u, 0x00u, 0x00u, 0x00u, 0x00u, 0x00u, 0x00u, 0x00u, 0x00u, 0x00u, 
  48:.\Generated_Source\PSoC4/CYBLE_gatt.c ****         0x00u, 0x00u, 0x00u, 0x00u, 0x00u, 0x00u, 0x00u, 0x00u, 0x00u, 0x00u, 0x00u, 0x00u, 0x00u, 
  49:.\Generated_Source\PSoC4/CYBLE_gatt.c ****         0x00u, 0x00u, 0x00u, 0x00u, 0x00u, 0x00u, 0x00u, 0x00u, 0x00u, 0x00u, 0x00u, 0x00u, 0x00u, 
  50:.\Generated_Source\PSoC4/CYBLE_gatt.c ****         0x00u, 0x00u, 0x00u, 0x00u, 0x00u, 0x00u, 0x00u, 0x00u, 0x00u, 0x00u, 0x00u, 0x00u, 0x00u, 
  51:.\Generated_Source\PSoC4/CYBLE_gatt.c ****         0x00u, 0x00u, 0x00u, 0x00u, 0x00u, 0x00u, 0x00u, 0x00u, 0x00u, 0x00u, 0x00u, 0x00u, 0x00u, 
  52:.\Generated_Source\PSoC4/CYBLE_gatt.c ****         0x00u, 0x00u, 0x00u, 0x00u, 0x00u, 0x00u, 0x00u, 0x00u, 0x00u, 0x00u, 0x00u, 0x00u, 0x00u, 
  53:.\Generated_Source\PSoC4/CYBLE_gatt.c ****         0x00u, 0x00u, 0x00u, 0x00u, 0x00u, 0x00u, 0x00u, 0x00u, 0x00u, 0x00u, 0x00u, 0x00u, 0x00u, 
  54:.\Generated_Source\PSoC4/CYBLE_gatt.c ****         0x00u, 0x00u, 0x00u, 0x00u, 0x00u, 0x00u, 0x00u, 0x00u, 0x00u, 0x00u, 0x00u, 0x00u, 0x00u, 
  55:.\Generated_Source\PSoC4/CYBLE_gatt.c ****         0x00u, 0x00u, 0x00u, 0x00u, 0x00u, 0x00u, 0x00u, 0x00u, 0x00u, 0x00u, 0x00u, 0x00u, 0x00u, 
  56:.\Generated_Source\PSoC4/CYBLE_gatt.c ****         0x00u, 0x00u, 0x00u, 0x00u, 0x00u, 0x00u, 0x00u, 0x00u, 0x00u, 0x00u, 0x00u, 0x00u, 0x00u, 
  57:.\Generated_Source\PSoC4/CYBLE_gatt.c ****         0x00u, 0x00u, 0x00u, 0x00u, 0x00u, 0x00u, 0x00u, 0x00u, 0x00u, 0x00u, 0x00u, 0x00u, 0x00u, 
  58:.\Generated_Source\PSoC4/CYBLE_gatt.c ****         0x00u, 0x00u, 0x00u, 0x00u, 0x00u, 0x00u, 0x00u, 0x00u, 0x00u, 0x00u, 0x00u, 0x00u, 0x00u, 
  59:.\Generated_Source\PSoC4/CYBLE_gatt.c ****         0x00u, 0x00u, 0x00u, 0x00u, 0x00u, 0x00u, 0x00u, 0x00u, 0x00u, 0x00u, 0x00u, 0x00u, 0x00u, 
  60:.\Generated_Source\PSoC4/CYBLE_gatt.c ****         0x00u, 0x00u, 0x00u, 0x00u, 0x00u, 0x00u, 0x00u, 0x00u, 0x00u, 0x00u, 0x00u, 0x00u, 0x00u, 
  61:.\Generated_Source\PSoC4/CYBLE_gatt.c ****         0x00u, 0x00u, 0x00u, 0x00u, 0x00u, 0x00u, 0x00u, 0x00u, 0x00u, 0x00u, 0x00u, 0x00u, 0x00u, 
  62:.\Generated_Source\PSoC4/CYBLE_gatt.c ****         0x00u, 0x00u, 0x00u, 0x00u, 0x00u, 0x00u, 0x00u, 0x00u, 0x00u, 0x00u, 0x00u, 0x00u, 0x00u, 
  63:.\Generated_Source\PSoC4/CYBLE_gatt.c ****         0x00u, 0x00u, 0x00u, 0x00u, 0x00u, 0x00u, 0x00u, 0x00u, 0x00u, 0x00u, 0x00u, 0x00u, 0x00u, 
  64:.\Generated_Source\PSoC4/CYBLE_gatt.c ****         0x00u, 0x00u, 0x00u, 0x00u, 0x00u, 0x00u, 0x00u, 0x00u, 0x00u, 0x00u, 0x00u, 0x00u, 0x00u, 
  65:.\Generated_Source\PSoC4/CYBLE_gatt.c ****         0x00u, 0x00u, 0x00u, 0x00u, 0x00u, 0x00u, 0x00u, 0x00u, 0x00u, 0x00u, 0x00u, 0x00u, 0x00u, 
  66:.\Generated_Source\PSoC4/CYBLE_gatt.c ****         0x00u, 0x00u, 0x00u, 0x00u, 0x00u, 0x00u, 0x00u, 0x00u, 0x00u, 0x00u, 0x00u, 0x00u, 0x00u, 
  67:.\Generated_Source\PSoC4/CYBLE_gatt.c ****         0x00u, 0x00u, 0x00u, 0x00u, 0x00u, 0x00u, 0x00u, 0x00u, 0x00u, 0x00u, 0x00u, 0x00u, 0x00u, 
  68:.\Generated_Source\PSoC4/CYBLE_gatt.c ****         0x00u, 0x00u, 0x00u, 0x00u, 0x00u, 0x00u, 0x00u, 0x00u, 0x00u, 0x00u, 0x00u, 0x00u, 0x00u, 
  69:.\Generated_Source\PSoC4/CYBLE_gatt.c ****         0x00u, 0x00u, 0x00u, 0x00u, 0x00u, 0x00u, 0x00u, 0x00u, 0x00u, 0x00u, 0x00u, 0x00u, 0x00u, 
  70:.\Generated_Source\PSoC4/CYBLE_gatt.c ****         0x00u, 0x00u, 0x00u, 0x00u, 0x00u, 0x00u, 0x00u, 0x00u, 0x00u, 0x00u, 0x00u, 0x00u, 0x00u, 
  71:.\Generated_Source\PSoC4/CYBLE_gatt.c ****         0x00u, 0x00u, 0x00u, 0x00u, 0x00u, 0x00u, 0x00u, 0x00u, 0x00u, 0x00u, 0x00u, 0x00u, 0x00u, 
  72:.\Generated_Source\PSoC4/CYBLE_gatt.c ****         0x00u, 0x00u, 0x00u, 0x00u, 0x00u, 0x00u, 0x00u, 0x00u, 0x00u, 0x00u, 0x00u, 0x00u, 0x00u, 
  73:.\Generated_Source\PSoC4/CYBLE_gatt.c ****         0x00u, 0x00u, 0x00u, 0x00u, 0x00u, 0x00u, 0x00u, 0x00u, 0x00u, 0x00u, 0x00u, 0x00u, 0x00u, 
  74:.\Generated_Source\PSoC4/CYBLE_gatt.c ****         0x00u, 0x00u, 0x00u, 0x00u, 0x00u, 0x00u, 0x00u, 0x00u, 0x00u, 0x00u, 0x00u, 0x00u, 0x00u, 
  75:.\Generated_Source\PSoC4/CYBLE_gatt.c ****         0x00u, 0x00u, 0x00u, 0x00u, 0x00u, 0x00u, 0x00u, 0x00u, 0x00u, 0x00u, 0x00u, 0x00u, 0x00u, 
  76:.\Generated_Source\PSoC4/CYBLE_gatt.c ****         0x00u, 0x00u, 0x00u, 0x00u, 0x00u, 0x00u, 0x00u, 0x00u, 0x00u, 0x00u, 0x00u, 0x00u, 0x00u, 
  77:.\Generated_Source\PSoC4/CYBLE_gatt.c ****         0x00u, 0x00u, 0x00u, 0x00u, 0x00u, 0x00u, 0x00u, 0x00u, 0x00u, 0x00u, 0x00u, 0x00u, 0x00u, 
  78:.\Generated_Source\PSoC4/CYBLE_gatt.c ****         0x00u, 0x00u, 0x00u, 0x00u, 0x00u, 0x00u, 0x00u, 0x00u, 0x00u, 0x00u, 0x00u, 0x00u, 0x00u, 
  79:.\Generated_Source\PSoC4/CYBLE_gatt.c ****         0x00u, 0x00u, 0x00u, 0x00u, 0x00u, 0x00u, 0x00u, 0x00u, 0x00u, 0x00u }, 
  80:.\Generated_Source\PSoC4/CYBLE_gatt.c ****         {{
  81:.\Generated_Source\PSoC4/CYBLE_gatt.c ****             0x00u, 0x00u, 
  82:.\Generated_Source\PSoC4/CYBLE_gatt.c ****             0x00u, 0x00u, 
  83:.\Generated_Source\PSoC4/CYBLE_gatt.c ****         },
  84:.\Generated_Source\PSoC4/CYBLE_gatt.c ****         {
  85:.\Generated_Source\PSoC4/CYBLE_gatt.c ****             0x00u, 0x00u, 
  86:.\Generated_Source\PSoC4/CYBLE_gatt.c ****             0x00u, 0x00u, 
  87:.\Generated_Source\PSoC4/CYBLE_gatt.c ****         },
  88:.\Generated_Source\PSoC4/CYBLE_gatt.c ****         {
ARM GAS  C:\Users\sunyi\AppData\Local\Temp\cc72DXvt.s 			page 7


  89:.\Generated_Source\PSoC4/CYBLE_gatt.c ****             0x00u, 0x00u, 
  90:.\Generated_Source\PSoC4/CYBLE_gatt.c ****             0x00u, 0x00u, 
  91:.\Generated_Source\PSoC4/CYBLE_gatt.c ****         },
  92:.\Generated_Source\PSoC4/CYBLE_gatt.c ****         {
  93:.\Generated_Source\PSoC4/CYBLE_gatt.c ****             0x00u, 0x00u, 
  94:.\Generated_Source\PSoC4/CYBLE_gatt.c ****             0x00u, 0x00u, 
  95:.\Generated_Source\PSoC4/CYBLE_gatt.c ****         },
  96:.\Generated_Source\PSoC4/CYBLE_gatt.c ****         {
  97:.\Generated_Source\PSoC4/CYBLE_gatt.c ****             0x00u, 0x00u, 
  98:.\Generated_Source\PSoC4/CYBLE_gatt.c ****             0x00u, 0x00u, 
  99:.\Generated_Source\PSoC4/CYBLE_gatt.c ****         }}, 
 100:.\Generated_Source\PSoC4/CYBLE_gatt.c ****         0x04u, /* CYBLE_GATT_DB_CCCD_COUNT */ 
 101:.\Generated_Source\PSoC4/CYBLE_gatt.c ****         0x05u, /* CYBLE_GAP_MAX_BONDED_DEVICE */ 
 102:.\Generated_Source\PSoC4/CYBLE_gatt.c ****     };
 103:.\Generated_Source\PSoC4/CYBLE_gatt.c **** #endif /* (CYBLE_MODE_PROFILE) */
 104:.\Generated_Source\PSoC4/CYBLE_gatt.c **** 
 105:.\Generated_Source\PSoC4/CYBLE_gatt.c **** #endif  /* (CYBLE_MODE_PROFILE) && (CYBLE_BONDING_REQUIREMENT == CYBLE_BONDING_YES) */
 106:.\Generated_Source\PSoC4/CYBLE_gatt.c **** 
 107:.\Generated_Source\PSoC4/CYBLE_gatt.c **** #if(CYBLE_GATT_ROLE_SERVER)
 108:.\Generated_Source\PSoC4/CYBLE_gatt.c ****     
 109:.\Generated_Source\PSoC4/CYBLE_gatt.c ****     const CYBLE_GATTS_T cyBle_gatts =
 110:.\Generated_Source\PSoC4/CYBLE_gatt.c **** {
 111:.\Generated_Source\PSoC4/CYBLE_gatt.c ****     0x0008u,    /* Handle of the GATT service */
 112:.\Generated_Source\PSoC4/CYBLE_gatt.c ****     0x000Au,    /* Handle of the Service Changed characteristic */
 113:.\Generated_Source\PSoC4/CYBLE_gatt.c ****     0x000Bu,    /* Handle of the Client Characteristic Configuration descriptor */
 114:.\Generated_Source\PSoC4/CYBLE_gatt.c **** };
 115:.\Generated_Source\PSoC4/CYBLE_gatt.c ****     
 116:.\Generated_Source\PSoC4/CYBLE_gatt.c ****     static uint8 cyBle_attValues[0x22u] = {
 117:.\Generated_Source\PSoC4/CYBLE_gatt.c ****     /* Device Name */
 118:.\Generated_Source\PSoC4/CYBLE_gatt.c ****     (uint8)'P', (uint8)'r', (uint8)'o', (uint8)'x', (uint8)'i', (uint8)'m', (uint8)'i', (uint8)'t',
 119:.\Generated_Source\PSoC4/CYBLE_gatt.c **** (uint8)'R', (uint8)'e', (uint8)'p', (uint8)'o', (uint8)'r', (uint8)'t', (uint8)'e', (uint8)'r', 
 120:.\Generated_Source\PSoC4/CYBLE_gatt.c **** 
 121:.\Generated_Source\PSoC4/CYBLE_gatt.c ****     /* Appearance */
 122:.\Generated_Source\PSoC4/CYBLE_gatt.c ****     0x00u, 0x02u, 
 123:.\Generated_Source\PSoC4/CYBLE_gatt.c **** 
 124:.\Generated_Source\PSoC4/CYBLE_gatt.c ****     /* Peripheral Preferred Connection Parameters */
 125:.\Generated_Source\PSoC4/CYBLE_gatt.c ****     0x28u, 0x00u, 0x38u, 0x00u, 0x00u, 0x00u, 0x90u, 0x01u, 
 126:.\Generated_Source\PSoC4/CYBLE_gatt.c **** 
 127:.\Generated_Source\PSoC4/CYBLE_gatt.c ****     /* Service Changed */
 128:.\Generated_Source\PSoC4/CYBLE_gatt.c ****     0x00u, 0x00u, 0x00u, 0x00u, 
 129:.\Generated_Source\PSoC4/CYBLE_gatt.c **** 
 130:.\Generated_Source\PSoC4/CYBLE_gatt.c ****     /* Alert Level */
 131:.\Generated_Source\PSoC4/CYBLE_gatt.c ****     0x00u, 
 132:.\Generated_Source\PSoC4/CYBLE_gatt.c **** 
 133:.\Generated_Source\PSoC4/CYBLE_gatt.c ****     /* Tx Power Level */
 134:.\Generated_Source\PSoC4/CYBLE_gatt.c ****     0x00u, 
 135:.\Generated_Source\PSoC4/CYBLE_gatt.c **** 
 136:.\Generated_Source\PSoC4/CYBLE_gatt.c **** };
 137:.\Generated_Source\PSoC4/CYBLE_gatt.c **** #if(CYBLE_GATT_DB_CCCD_COUNT != 0u)
 138:.\Generated_Source\PSoC4/CYBLE_gatt.c **** uint8 cyBle_attValuesCCCD[CYBLE_GATT_DB_CCCD_COUNT];
 139:.\Generated_Source\PSoC4/CYBLE_gatt.c **** #endif /* CYBLE_GATT_DB_CCCD_COUNT != 0u */
 140:.\Generated_Source\PSoC4/CYBLE_gatt.c **** 
 141:.\Generated_Source\PSoC4/CYBLE_gatt.c **** CYBLE_GATTS_ATT_GEN_VAL_LEN_T cyBle_attValuesLen[CYBLE_GATT_DB_ATT_VAL_COUNT] = {
 142:.\Generated_Source\PSoC4/CYBLE_gatt.c ****     { 0x0012u, (void *)&cyBle_attValues[0] }, /* Device Name */
 143:.\Generated_Source\PSoC4/CYBLE_gatt.c ****     { 0x0002u, (void *)&cyBle_attValues[18] }, /* Appearance */
 144:.\Generated_Source\PSoC4/CYBLE_gatt.c ****     { 0x0008u, (void *)&cyBle_attValues[20] }, /* Peripheral Preferred Connection Parameters */
 145:.\Generated_Source\PSoC4/CYBLE_gatt.c ****     { 0x0004u, (void *)&cyBle_attValues[28] }, /* Service Changed */
ARM GAS  C:\Users\sunyi\AppData\Local\Temp\cc72DXvt.s 			page 8


 146:.\Generated_Source\PSoC4/CYBLE_gatt.c ****     { 0x0002u, (void *)&cyBle_attValuesCCCD[0] }, /* Client Characteristic Configuration */
 147:.\Generated_Source\PSoC4/CYBLE_gatt.c ****     { 0x0001u, (void *)&cyBle_attValues[32] }, /* Alert Level */
 148:.\Generated_Source\PSoC4/CYBLE_gatt.c ****     { 0x0001u, (void *)&cyBle_attValues[33] }, /* Tx Power Level */
 149:.\Generated_Source\PSoC4/CYBLE_gatt.c ****     { 0x0002u, (void *)&cyBle_attValuesCCCD[2] }, /* Client Characteristic Configuration */
 150:.\Generated_Source\PSoC4/CYBLE_gatt.c **** };
 151:.\Generated_Source\PSoC4/CYBLE_gatt.c **** 
 152:.\Generated_Source\PSoC4/CYBLE_gatt.c **** const CYBLE_GATTS_DB_T cyBle_gattDB[0x12u] = {
 153:.\Generated_Source\PSoC4/CYBLE_gatt.c ****     { 0x0001u, 0x2800u /* Primary service                     */, 0x00000001u /*        */, 0x0007u
 154:.\Generated_Source\PSoC4/CYBLE_gatt.c ****     { 0x0002u, 0x2803u /* Characteristic                      */, 0x00000201u /* rd     */, 0x0003u
 155:.\Generated_Source\PSoC4/CYBLE_gatt.c ****     { 0x0003u, 0x2A00u /* Device Name                         */, 0x00000201u /* rd     */, 0x0003u
 156:.\Generated_Source\PSoC4/CYBLE_gatt.c ****     { 0x0004u, 0x2803u /* Characteristic                      */, 0x00000201u /* rd     */, 0x0005u
 157:.\Generated_Source\PSoC4/CYBLE_gatt.c ****     { 0x0005u, 0x2A01u /* Appearance                          */, 0x00000201u /* rd     */, 0x0005u
 158:.\Generated_Source\PSoC4/CYBLE_gatt.c ****     { 0x0006u, 0x2803u /* Characteristic                      */, 0x00000201u /* rd     */, 0x0007u
 159:.\Generated_Source\PSoC4/CYBLE_gatt.c ****     { 0x0007u, 0x2A04u /* Peripheral Preferred Connection Par */, 0x00000201u /* rd     */, 0x0007u
 160:.\Generated_Source\PSoC4/CYBLE_gatt.c ****     { 0x0008u, 0x2800u /* Primary service                     */, 0x00000001u /*        */, 0x000Bu
 161:.\Generated_Source\PSoC4/CYBLE_gatt.c ****     { 0x0009u, 0x2803u /* Characteristic                      */, 0x00002201u /* rd,ind */, 0x000Bu
 162:.\Generated_Source\PSoC4/CYBLE_gatt.c ****     { 0x000Au, 0x2A05u /* Service Changed                     */, 0x00002201u /* rd,ind */, 0x000Bu
 163:.\Generated_Source\PSoC4/CYBLE_gatt.c ****     { 0x000Bu, 0x2902u /* Client Characteristic Configuration */, 0x00000A04u /* rd,wr  */, 0x000Bu
 164:.\Generated_Source\PSoC4/CYBLE_gatt.c ****     { 0x000Cu, 0x2800u /* Primary service                     */, 0x00000001u /*        */, 0x000Eu
 165:.\Generated_Source\PSoC4/CYBLE_gatt.c ****     { 0x000Du, 0x2803u /* Characteristic                      */, 0x00000A01u /* rd,wr  */, 0x000Eu
 166:.\Generated_Source\PSoC4/CYBLE_gatt.c ****     { 0x000Eu, 0x2A06u /* Alert Level                         */, 0x00000A04u /* rd,wr  */, 0x000Eu
 167:.\Generated_Source\PSoC4/CYBLE_gatt.c ****     { 0x000Fu, 0x2800u /* Primary service                     */, 0x00000001u /*        */, 0x0012u
 168:.\Generated_Source\PSoC4/CYBLE_gatt.c ****     { 0x0010u, 0x2803u /* Characteristic                      */, 0x00001201u /* rd,ntf */, 0x0012u
 169:.\Generated_Source\PSoC4/CYBLE_gatt.c ****     { 0x0011u, 0x2A07u /* Tx Power Level                      */, 0x00001201u /* rd,ntf */, 0x0012u
 170:.\Generated_Source\PSoC4/CYBLE_gatt.c ****     { 0x0012u, 0x2902u /* Client Characteristic Configuration */, 0x00000A04u /* rd,wr  */, 0x0012u
 171:.\Generated_Source\PSoC4/CYBLE_gatt.c **** };
 172:.\Generated_Source\PSoC4/CYBLE_gatt.c **** 
 173:.\Generated_Source\PSoC4/CYBLE_gatt.c **** 
 174:.\Generated_Source\PSoC4/CYBLE_gatt.c **** #endif /* (CYBLE_GATT_ROLE_SERVER) */
 175:.\Generated_Source\PSoC4/CYBLE_gatt.c **** 
 176:.\Generated_Source\PSoC4/CYBLE_gatt.c **** #if(CYBLE_GATT_ROLE_CLIENT)
 177:.\Generated_Source\PSoC4/CYBLE_gatt.c ****     
 178:.\Generated_Source\PSoC4/CYBLE_gatt.c **** CYBLE_CLIENT_STATE_T cyBle_clientState;
 179:.\Generated_Source\PSoC4/CYBLE_gatt.c **** CYBLE_GATTC_T cyBle_gattc;
 180:.\Generated_Source\PSoC4/CYBLE_gatt.c **** CYBLE_GATT_ATTR_HANDLE_RANGE_T cyBle_gattcDiscoveryRange;
 181:.\Generated_Source\PSoC4/CYBLE_gatt.c ****     
 182:.\Generated_Source\PSoC4/CYBLE_gatt.c **** #endif /* (CYBLE_GATT_ROLE_CLIENT) */
 183:.\Generated_Source\PSoC4/CYBLE_gatt.c **** 
 184:.\Generated_Source\PSoC4/CYBLE_gatt.c **** 
 185:.\Generated_Source\PSoC4/CYBLE_gatt.c **** #if(CYBLE_GATT_ROLE_SERVER)
 186:.\Generated_Source\PSoC4/CYBLE_gatt.c **** 
 187:.\Generated_Source\PSoC4/CYBLE_gatt.c **** /****************************************************************************** 
 188:.\Generated_Source\PSoC4/CYBLE_gatt.c **** * Function Name: CyBle_GattsReInitGattDb
 189:.\Generated_Source\PSoC4/CYBLE_gatt.c **** ***************************************************************************//**
 190:.\Generated_Source\PSoC4/CYBLE_gatt.c **** * 
 191:.\Generated_Source\PSoC4/CYBLE_gatt.c **** *  Reinitializes the GATT database.
 192:.\Generated_Source\PSoC4/CYBLE_gatt.c **** * 
 193:.\Generated_Source\PSoC4/CYBLE_gatt.c **** *  \return
 194:.\Generated_Source\PSoC4/CYBLE_gatt.c **** *  CYBLE_API_RESULT_T: An API result states if the API succeeded or failed with
 195:.\Generated_Source\PSoC4/CYBLE_gatt.c **** *  error codes:
 196:.\Generated_Source\PSoC4/CYBLE_gatt.c **** 
 197:.\Generated_Source\PSoC4/CYBLE_gatt.c **** *  Errors codes                          | Description
 198:.\Generated_Source\PSoC4/CYBLE_gatt.c **** *  ------------                          | -----------
 199:.\Generated_Source\PSoC4/CYBLE_gatt.c **** *  CYBLE_ERROR_OK						 | GATT database was reinitialized successfully.
 200:.\Generated_Source\PSoC4/CYBLE_gatt.c **** *  CYBLE_ERROR_INVALID_STATE             | If the function is called in any state except CYBLE_STAT
 201:.\Generated_Source\PSoC4/CYBLE_gatt.c **** *  CYBLE_ERROR_INVALID_PARAMETER         | If the Database has zero entries or is a NULL pointer.
 202:.\Generated_Source\PSoC4/CYBLE_gatt.c **** * 
ARM GAS  C:\Users\sunyi\AppData\Local\Temp\cc72DXvt.s 			page 9


 203:.\Generated_Source\PSoC4/CYBLE_gatt.c **** ******************************************************************************/
 204:.\Generated_Source\PSoC4/CYBLE_gatt.c **** CYBLE_API_RESULT_T CyBle_GattsReInitGattDb(void)
 205:.\Generated_Source\PSoC4/CYBLE_gatt.c **** {
 255              		.loc 1 205 0
 256              		.cfi_startproc
 257 0000 90B5     		push	{r4, r7, lr}
 258              		.cfi_def_cfa_offset 12
 259              		.cfi_offset 4, -12
 260              		.cfi_offset 7, -8
 261              		.cfi_offset 14, -4
 262 0002 83B0     		sub	sp, sp, #12
 263              		.cfi_def_cfa_offset 24
 264 0004 00AF     		add	r7, sp, #0
 265              		.cfi_def_cfa_register 7
 206:.\Generated_Source\PSoC4/CYBLE_gatt.c ****     CYBLE_API_RESULT_T apiResult;
 207:.\Generated_Source\PSoC4/CYBLE_gatt.c ****     
 208:.\Generated_Source\PSoC4/CYBLE_gatt.c ****     if(CYBLE_STATE_DISCONNECTED == CyBle_GetState())
 266              		.loc 1 208 0
 267 0006 0C4B     		ldr	r3, .L5
 268 0008 1B78     		ldrb	r3, [r3]
 269 000a 042B     		cmp	r3, #4
 270 000c 09D1     		bne	.L2
 209:.\Generated_Source\PSoC4/CYBLE_gatt.c ****     {
 210:.\Generated_Source\PSoC4/CYBLE_gatt.c ****         apiResult = CyBle_GattsDbRegister(cyBle_gattDB, CYBLE_GATT_DB_INDEX_COUNT, CYBLE_GATT_DB_MA
 271              		.loc 1 210 0
 272 000e BC1D     		add	r4, r7, #6
 273 0010 0A4B     		ldr	r3, .L5+4
 274 0012 181C     		mov	r0, r3
 275 0014 1221     		mov	r1, #18
 276 0016 1222     		mov	r2, #18
 277 0018 FFF7FEFF 		bl	CyBle_GattsDbRegister
 278 001c 031C     		mov	r3, r0
 279 001e 2380     		strh	r3, [r4]
 280 0020 03E0     		b	.L3
 281              	.L2:
 211:.\Generated_Source\PSoC4/CYBLE_gatt.c ****     }
 212:.\Generated_Source\PSoC4/CYBLE_gatt.c ****     else
 213:.\Generated_Source\PSoC4/CYBLE_gatt.c ****     {
 214:.\Generated_Source\PSoC4/CYBLE_gatt.c ****         apiResult = CYBLE_ERROR_INVALID_STATE;
 282              		.loc 1 214 0
 283 0022 BB1D     		add	r3, r7, #6
 284 0024 0422     		mov	r2, #4
 285 0026 FF32     		add	r2, r2, #255
 286 0028 1A80     		strh	r2, [r3]
 287              	.L3:
 215:.\Generated_Source\PSoC4/CYBLE_gatt.c ****     }
 216:.\Generated_Source\PSoC4/CYBLE_gatt.c ****     
 217:.\Generated_Source\PSoC4/CYBLE_gatt.c ****     return(apiResult);
 288              		.loc 1 217 0
 289 002a BB1D     		add	r3, r7, #6
 290 002c 1B88     		ldrh	r3, [r3]
 218:.\Generated_Source\PSoC4/CYBLE_gatt.c **** }
 291              		.loc 1 218 0
 292 002e 181C     		mov	r0, r3
 293 0030 BD46     		mov	sp, r7
 294 0032 03B0     		add	sp, sp, #12
 295              		@ sp needed
ARM GAS  C:\Users\sunyi\AppData\Local\Temp\cc72DXvt.s 			page 10


 296 0034 90BD     		pop	{r4, r7, pc}
 297              	.L6:
 298 0036 C046     		.align	2
 299              	.L5:
 300 0038 00000000 		.word	cyBle_state
 301 003c 00000000 		.word	cyBle_gattDB
 302              		.cfi_endproc
 303              	.LFE2:
 304              		.size	CyBle_GattsReInitGattDb, .-CyBle_GattsReInitGattDb
 305              		.section	.text.CyBle_GattsWriteEventHandler,"ax",%progbits
 306              		.align	2
 307              		.global	CyBle_GattsWriteEventHandler
 308              		.code	16
 309              		.thumb_func
 310              		.type	CyBle_GattsWriteEventHandler, %function
 311              	CyBle_GattsWriteEventHandler:
 312              	.LFB3:
 219:.\Generated_Source\PSoC4/CYBLE_gatt.c **** 
 220:.\Generated_Source\PSoC4/CYBLE_gatt.c **** 
 221:.\Generated_Source\PSoC4/CYBLE_gatt.c **** /****************************************************************************** 
 222:.\Generated_Source\PSoC4/CYBLE_gatt.c **** * Function Name: CyBle_GattsWriteEventHandler
 223:.\Generated_Source\PSoC4/CYBLE_gatt.c **** ***************************************************************************//**
 224:.\Generated_Source\PSoC4/CYBLE_gatt.c **** * 
 225:.\Generated_Source\PSoC4/CYBLE_gatt.c **** *  Handles the Write Request Event for GATT service.
 226:.\Generated_Source\PSoC4/CYBLE_gatt.c **** * 
 227:.\Generated_Source\PSoC4/CYBLE_gatt.c **** *  \param eventParam: The pointer to the data structure specified by the event.
 228:.\Generated_Source\PSoC4/CYBLE_gatt.c **** * 
 229:.\Generated_Source\PSoC4/CYBLE_gatt.c **** *  \return
 230:.\Generated_Source\PSoC4/CYBLE_gatt.c **** *  CYBLE_GATT_ERR_CODE_T: An API result returns one of the following status 
 231:.\Generated_Source\PSoC4/CYBLE_gatt.c **** *  values.
 232:.\Generated_Source\PSoC4/CYBLE_gatt.c **** 
 233:.\Generated_Source\PSoC4/CYBLE_gatt.c **** *  Errors codes                          | Description
 234:.\Generated_Source\PSoC4/CYBLE_gatt.c **** *  --------------------                  | -----------
 235:.\Generated_Source\PSoC4/CYBLE_gatt.c **** *  CYBLE_GATT_ERR_NONE                   | Write is successful.
 236:.\Generated_Source\PSoC4/CYBLE_gatt.c **** * 
 237:.\Generated_Source\PSoC4/CYBLE_gatt.c **** ******************************************************************************/
 238:.\Generated_Source\PSoC4/CYBLE_gatt.c **** CYBLE_GATT_ERR_CODE_T CyBle_GattsWriteEventHandler(CYBLE_GATTS_WRITE_REQ_PARAM_T *eventParam)
 239:.\Generated_Source\PSoC4/CYBLE_gatt.c **** {
 313              		.loc 1 239 0
 314              		.cfi_startproc
 315 0000 90B5     		push	{r4, r7, lr}
 316              		.cfi_def_cfa_offset 12
 317              		.cfi_offset 4, -12
 318              		.cfi_offset 7, -8
 319              		.cfi_offset 14, -4
 320 0002 85B0     		sub	sp, sp, #20
 321              		.cfi_def_cfa_offset 32
 322 0004 00AF     		add	r7, sp, #0
 323              		.cfi_def_cfa_register 7
 324 0006 7860     		str	r0, [r7, #4]
 240:.\Generated_Source\PSoC4/CYBLE_gatt.c ****     CYBLE_GATT_ERR_CODE_T gattErr = CYBLE_GATT_ERR_NONE;
 325              		.loc 1 240 0
 326 0008 0F23     		mov	r3, #15
 327 000a FB18     		add	r3, r7, r3
 328 000c 0022     		mov	r2, #0
 329 000e 1A70     		strb	r2, [r3]
 241:.\Generated_Source\PSoC4/CYBLE_gatt.c ****     
ARM GAS  C:\Users\sunyi\AppData\Local\Temp\cc72DXvt.s 			page 11


 242:.\Generated_Source\PSoC4/CYBLE_gatt.c ****     /* Client Characteristic Configuration descriptor write request */
 243:.\Generated_Source\PSoC4/CYBLE_gatt.c ****     if(eventParam->handleValPair.attrHandle == cyBle_gatts.cccdHandle)
 330              		.loc 1 243 0
 331 0010 7B68     		ldr	r3, [r7, #4]
 332 0012 9B89     		ldrh	r3, [r3, #12]
 333 0014 0B22     		mov	r2, #11
 334 0016 9342     		cmp	r3, r2
 335 0018 37D1     		bne	.L8
 244:.\Generated_Source\PSoC4/CYBLE_gatt.c ****     {
 245:.\Generated_Source\PSoC4/CYBLE_gatt.c ****         /* Store value to database */
 246:.\Generated_Source\PSoC4/CYBLE_gatt.c ****         gattErr = CyBle_GattsWriteAttributeValue(&eventParam->handleValPair, 0u, 
 336              		.loc 1 246 0
 337 001a 7B68     		ldr	r3, [r7, #4]
 338 001c 1A1D     		add	r2, r3, #4
 339 001e 7B68     		ldr	r3, [r7, #4]
 340 0020 0F21     		mov	r1, #15
 341 0022 7C18     		add	r4, r7, r1
 342 0024 101C     		mov	r0, r2
 343 0026 0021     		mov	r1, #0
 344 0028 1A1C     		mov	r2, r3
 345 002a 4023     		mov	r3, #64
 346 002c FFF7FEFF 		bl	CyBle_GattsWriteAttributeValue
 347 0030 031C     		mov	r3, r0
 348 0032 2370     		strb	r3, [r4]
 247:.\Generated_Source\PSoC4/CYBLE_gatt.c ****                         &eventParam->connHandle, CYBLE_GATT_DB_PEER_INITIATED);
 248:.\Generated_Source\PSoC4/CYBLE_gatt.c ****         
 249:.\Generated_Source\PSoC4/CYBLE_gatt.c ****         if(CYBLE_GATT_ERR_NONE == gattErr)
 349              		.loc 1 249 0
 350 0034 0F23     		mov	r3, #15
 351 0036 FB18     		add	r3, r7, r3
 352 0038 1B78     		ldrb	r3, [r3]
 353 003a 002B     		cmp	r3, #0
 354 003c 1DD1     		bne	.L9
 250:.\Generated_Source\PSoC4/CYBLE_gatt.c ****         {
 251:.\Generated_Source\PSoC4/CYBLE_gatt.c ****             if(CYBLE_IS_INDICATION_ENABLED_IN_PTR(eventParam->handleValPair.value.val))
 355              		.loc 1 251 0
 356 003e 7B68     		ldr	r3, [r7, #4]
 357 0040 5B68     		ldr	r3, [r3, #4]
 358 0042 181C     		mov	r0, r3
 359 0044 FFF7FEFF 		bl	CyBle_Get16ByPtr
 360 0048 031C     		mov	r3, r0
 361 004a 1A1C     		mov	r2, r3
 362 004c 0223     		mov	r3, #2
 363 004e 1340     		and	r3, r2
 364 0050 9BB2     		uxth	r3, r3
 365 0052 002B     		cmp	r3, #0
 366 0054 08D0     		beq	.L10
 252:.\Generated_Source\PSoC4/CYBLE_gatt.c ****             {
 253:.\Generated_Source\PSoC4/CYBLE_gatt.c ****                 CyBle_ApplCallback((uint32)CYBLE_EVT_GATTS_INDICATION_ENABLED, eventParam);
 367              		.loc 1 253 0
 368 0056 104B     		ldr	r3, .L12
 369 0058 1B68     		ldr	r3, [r3]
 370 005a 8222     		mov	r2, #130
 371 005c 5100     		lsl	r1, r2, #1
 372 005e 7A68     		ldr	r2, [r7, #4]
 373 0060 081C     		mov	r0, r1
 374 0062 111C     		mov	r1, r2
ARM GAS  C:\Users\sunyi\AppData\Local\Temp\cc72DXvt.s 			page 12


 375 0064 9847     		blx	r3
 376 0066 08E0     		b	.L9
 377              	.L10:
 254:.\Generated_Source\PSoC4/CYBLE_gatt.c ****             }
 255:.\Generated_Source\PSoC4/CYBLE_gatt.c ****             else
 256:.\Generated_Source\PSoC4/CYBLE_gatt.c ****             {
 257:.\Generated_Source\PSoC4/CYBLE_gatt.c ****                 CyBle_ApplCallback((uint32)CYBLE_EVT_GATTS_INDICATION_DISABLED, eventParam);
 378              		.loc 1 257 0
 379 0068 0B4B     		ldr	r3, .L12
 380 006a 1B68     		ldr	r3, [r3]
 381 006c 0622     		mov	r2, #6
 382 006e FF32     		add	r2, r2, #255
 383 0070 111C     		mov	r1, r2
 384 0072 7A68     		ldr	r2, [r7, #4]
 385 0074 081C     		mov	r0, r1
 386 0076 111C     		mov	r1, r2
 387 0078 9847     		blx	r3
 388              	.L9:
 258:.\Generated_Source\PSoC4/CYBLE_gatt.c ****             }
 259:.\Generated_Source\PSoC4/CYBLE_gatt.c ****         }
 260:.\Generated_Source\PSoC4/CYBLE_gatt.c ****         cyBle_eventHandlerFlag &= (uint8)~CYBLE_CALLBACK;
 389              		.loc 1 260 0
 390 007a 084B     		ldr	r3, .L12+4
 391 007c 1B78     		ldrb	r3, [r3]
 392 007e DBB2     		uxtb	r3, r3
 393 0080 0122     		mov	r2, #1
 394 0082 9343     		bic	r3, r2
 395 0084 DAB2     		uxtb	r2, r3
 396 0086 054B     		ldr	r3, .L12+4
 397 0088 1A70     		strb	r2, [r3]
 398              	.L8:
 261:.\Generated_Source\PSoC4/CYBLE_gatt.c ****     }
 262:.\Generated_Source\PSoC4/CYBLE_gatt.c ****     return (gattErr);
 399              		.loc 1 262 0
 400 008a 0F23     		mov	r3, #15
 401 008c FB18     		add	r3, r7, r3
 402 008e 1B78     		ldrb	r3, [r3]
 263:.\Generated_Source\PSoC4/CYBLE_gatt.c **** }
 403              		.loc 1 263 0
 404 0090 181C     		mov	r0, r3
 405 0092 BD46     		mov	sp, r7
 406 0094 05B0     		add	sp, sp, #20
 407              		@ sp needed
 408 0096 90BD     		pop	{r4, r7, pc}
 409              	.L13:
 410              		.align	2
 411              	.L12:
 412 0098 00000000 		.word	CyBle_ApplCallback
 413 009c 00000000 		.word	cyBle_eventHandlerFlag
 414              		.cfi_endproc
 415              	.LFE3:
 416              		.size	CyBle_GattsWriteEventHandler, .-CyBle_GattsWriteEventHandler
 417              		.text
 418              	.Letext0:
 419              		.file 2 ".\\Generated_Source\\PSoC4\\cytypes.h"
 420              		.file 3 ".\\Generated_Source\\PSoC4\\CYBLE_Stack.h"
 421              		.file 4 ".\\Generated_Source\\PSoC4\\CYBLE_StackGatt.h"
ARM GAS  C:\Users\sunyi\AppData\Local\Temp\cc72DXvt.s 			page 13


 422              		.file 5 ".\\Generated_Source\\PSoC4\\CYBLE_StackGattServer.h"
 423              		.file 6 ".\\Generated_Source\\PSoC4\\CYBLE_StackGattDb.h"
 424              		.file 7 ".\\Generated_Source\\PSoC4\\CYBLE.h"
 425              		.file 8 ".\\Generated_Source\\PSoC4\\CYBLE_gatt.h"
 426              		.file 9 ".\\Generated_Source\\PSoC4\\CYBLE_eventHandler.h"