ARM GAS  C:\Users\sunyi\AppData\Local\Temp\ccXDbPBi.s 			page 1


   1              		.cpu cortex-m0
   2              		.fpu softvfp
   3              		.eabi_attribute 20, 1
   4              		.eabi_attribute 21, 1
   5              		.eabi_attribute 23, 3
   6              		.eabi_attribute 24, 1
   7              		.eabi_attribute 25, 1
   8              		.eabi_attribute 26, 1
   9              		.eabi_attribute 30, 6
  10              		.eabi_attribute 34, 0
  11              		.eabi_attribute 18, 4
  12              		.code	16
  13              		.file	"CYBLE.c"
  14              		.text
  15              	.Ltext0:
  16              		.cfi_sections	.debug_frame
  17              		.global	cyBle_initVar
  18              		.bss
  19              		.type	cyBle_initVar, %object
  20              		.size	cyBle_initVar, 1
  21              	cyBle_initVar:
  22 0000 00       		.space	1
  23              		.global	cyBle_stackMemoryRam
  24              		.section	.noinit,"aw",%progbits
  25              		.align	3
  26              		.type	cyBle_stackMemoryRam, %object
  27              		.size	cyBle_stackMemoryRam, 2784
  28              	cyBle_stackMemoryRam:
  29 0000 00000000 		.space	2784
  29      00000000 
  29      00000000 
  29      00000000 
  29      00000000 
  30              		.global	cyBle_discoveryParam
  31              		.data
  32              		.align	2
  33              		.type	cyBle_discoveryParam, %object
  34              		.size	cyBle_discoveryParam, 16
  35              	cyBle_discoveryParam:
  36 0000 2000     		.short	32
  37 0002 3000     		.short	48
  38 0004 00       		.byte	0
  39 0005 00       		.byte	0
  40 0006 00       		.byte	0
  41 0007 00       		.byte	0
  42 0008 00       		.byte	0
  43 0009 00       		.byte	0
  44 000a 50       		.byte	80
  45 000b A0       		.byte	-96
  46 000c 00       		.byte	0
  47 000d 07       		.byte	7
  48 000e 00       		.byte	0
  49 000f 00       		.space	1
  50              		.global	cyBle_discoveryData
  51              		.align	2
  52              		.type	cyBle_discoveryData, %object
  53              		.size	cyBle_discoveryData, 32
ARM GAS  C:\Users\sunyi\AppData\Local\Temp\ccXDbPBi.s 			page 2


  54              	cyBle_discoveryData:
  55 0010 02       		.byte	2
  56 0011 01       		.byte	1
  57 0012 05       		.byte	5
  58 0013 0A       		.byte	10
  59 0014 08       		.byte	8
  60 0015 50       		.byte	80
  61 0016 72       		.byte	114
  62 0017 6F       		.byte	111
  63 0018 78       		.byte	120
  64 0019 69       		.byte	105
  65 001a 6D       		.byte	109
  66 001b 69       		.byte	105
  67 001c 74       		.byte	116
  68 001d 79       		.byte	121
  69 001e 05       		.byte	5
  70 001f 03       		.byte	3
  71 0020 03       		.byte	3
  72 0021 18       		.byte	24
  73 0022 04       		.byte	4
  74 0023 18       		.byte	24
  75 0024 00       		.byte	0
  76 0025 00       		.byte	0
  77 0026 00       		.byte	0
  78 0027 00       		.byte	0
  79 0028 00       		.byte	0
  80 0029 00       		.byte	0
  81 002a 00       		.byte	0
  82 002b 00       		.byte	0
  83 002c 00       		.byte	0
  84 002d 00       		.byte	0
  85 002e 00       		.byte	0
  86 002f 14       		.byte	20
  87              		.global	cyBle_scanRspData
  88              		.bss
  89 0001 000000   		.align	2
  90              		.type	cyBle_scanRspData, %object
  91              		.size	cyBle_scanRspData, 32
  92              	cyBle_scanRspData:
  93 0004 00000000 		.space	32
  93      00000000 
  93      00000000 
  93      00000000 
  93      00000000 
  94              		.global	cyBle_discoveryModeInfo
  95              		.data
  96              		.align	2
  97              		.type	cyBle_discoveryModeInfo, %object
  98              		.size	cyBle_discoveryModeInfo, 20
  99              	cyBle_discoveryModeInfo:
 100 0030 01       		.byte	1
 101 0031 000000   		.space	3
 102 0034 00000000 		.word	cyBle_discoveryParam
 103 0038 00000000 		.word	cyBle_discoveryData
 104 003c 00000000 		.word	cyBle_scanRspData
 105 0040 1E00     		.short	30
 106 0042 0000     		.space	2
ARM GAS  C:\Users\sunyi\AppData\Local\Temp\ccXDbPBi.s 			page 3


 107              		.comm	CyBle_ApplCallback,4,4
 108              		.global	cyBle_deviceAddress
 109              		.align	2
 110              		.type	cyBle_deviceAddress, %object
 111              		.size	cyBle_deviceAddress, 7
 112              	cyBle_deviceAddress:
 113 0044 00       		.byte	0
 114 0045 00       		.byte	0
 115 0046 00       		.byte	0
 116 0047 50       		.byte	80
 117 0048 A0       		.byte	-96
 118 0049 00       		.byte	0
 119 004a 00       		.byte	0
 120              		.global	cyBle_sflashDeviceAddress
 121 004b 00       		.align	2
 122              		.type	cyBle_sflashDeviceAddress, %object
 123              		.size	cyBle_sflashDeviceAddress, 4
 124              	cyBle_sflashDeviceAddress:
 125 004c 00F2FF0F 		.word	268431872
 126              		.section	.text.CyBle_Init,"ax",%progbits
 127              		.align	2
 128              		.global	CyBle_Init
 129              		.code	16
 130              		.thumb_func
 131              		.type	CyBle_Init, %function
 132              	CyBle_Init:
 133              	.LFB2:
 134              		.file 1 ".\\Generated_Source\\PSoC4\\CYBLE.c"
   1:.\Generated_Source\PSoC4/CYBLE.c **** /***************************************************************************//**
   2:.\Generated_Source\PSoC4/CYBLE.c **** * \file CYBLE.c
   3:.\Generated_Source\PSoC4/CYBLE.c **** * \version 3.10
   4:.\Generated_Source\PSoC4/CYBLE.c **** * 
   5:.\Generated_Source\PSoC4/CYBLE.c **** * \brief
   6:.\Generated_Source\PSoC4/CYBLE.c **** *  This file contains the source code for the Common APIs of the BLE Component.
   7:.\Generated_Source\PSoC4/CYBLE.c **** * 
   8:.\Generated_Source\PSoC4/CYBLE.c **** ********************************************************************************
   9:.\Generated_Source\PSoC4/CYBLE.c **** * \copyright
  10:.\Generated_Source\PSoC4/CYBLE.c **** * Copyright 2014-2016, Cypress Semiconductor Corporation.  All rights reserved.
  11:.\Generated_Source\PSoC4/CYBLE.c **** * You may use this file only in accordance with the license, terms, conditions,
  12:.\Generated_Source\PSoC4/CYBLE.c **** * disclaimers, and limitations in the end user license agreement accompanying
  13:.\Generated_Source\PSoC4/CYBLE.c **** * the software package with which this file was provided.
  14:.\Generated_Source\PSoC4/CYBLE.c **** *******************************************************************************/
  15:.\Generated_Source\PSoC4/CYBLE.c **** 
  16:.\Generated_Source\PSoC4/CYBLE.c **** #include "CYBLE_eventHandler.h"
  17:.\Generated_Source\PSoC4/CYBLE.c **** #include "CYBLE_HAL_PVT.h"
  18:.\Generated_Source\PSoC4/CYBLE.c **** #include <stdlib.h>
  19:.\Generated_Source\PSoC4/CYBLE.c **** 
  20:.\Generated_Source\PSoC4/CYBLE.c **** 
  21:.\Generated_Source\PSoC4/CYBLE.c **** /***************************************
  22:.\Generated_Source\PSoC4/CYBLE.c **** * Function Prototypes
  23:.\Generated_Source\PSoC4/CYBLE.c **** ***************************************/
  24:.\Generated_Source\PSoC4/CYBLE.c **** 
  25:.\Generated_Source\PSoC4/CYBLE.c **** #if(CYBLE_GATT_ROLE_SERVER)
  26:.\Generated_Source\PSoC4/CYBLE.c ****     #if(CYBLE_GAP_ROLE_PERIPHERAL)
  27:.\Generated_Source\PSoC4/CYBLE.c ****         static void CyBle_ChangeAdLocalName(const char8 name[], uint8 dest);
  28:.\Generated_Source\PSoC4/CYBLE.c ****     #endif /* (CYBLE_GAP_ROLE_PERIPHERAL) */
  29:.\Generated_Source\PSoC4/CYBLE.c **** #endif /* (CYBLE_GATT_ROLE_SERVER) */
ARM GAS  C:\Users\sunyi\AppData\Local\Temp\ccXDbPBi.s 			page 4


  30:.\Generated_Source\PSoC4/CYBLE.c ****     
  31:.\Generated_Source\PSoC4/CYBLE.c **** 
  32:.\Generated_Source\PSoC4/CYBLE.c **** /***************************************
  33:.\Generated_Source\PSoC4/CYBLE.c **** * Global Variables
  34:.\Generated_Source\PSoC4/CYBLE.c **** ***************************************/
  35:.\Generated_Source\PSoC4/CYBLE.c **** 
  36:.\Generated_Source\PSoC4/CYBLE.c **** /* Indicates whether the BLE has been initialized. The variable is initialized to
  37:.\Generated_Source\PSoC4/CYBLE.c ****    0 and set to 1 the first time CyBle_Start() is called. This allows the component
  38:.\Generated_Source\PSoC4/CYBLE.c ****    to restart without reinitialization after the first call to the CyBle_Start() 
  39:.\Generated_Source\PSoC4/CYBLE.c ****    routine. If reinitialization of the component is required, the variable should 
  40:.\Generated_Source\PSoC4/CYBLE.c ****    be set to 0 before the CyBle_Start() routine is called. Alternatively, the BLE
  41:.\Generated_Source\PSoC4/CYBLE.c ****    can be reinitialized by calling the CyBle_Init() function.
  42:.\Generated_Source\PSoC4/CYBLE.c **** */
  43:.\Generated_Source\PSoC4/CYBLE.c **** uint8  cyBle_initVar = 0u;
  44:.\Generated_Source\PSoC4/CYBLE.c **** 
  45:.\Generated_Source\PSoC4/CYBLE.c **** /* Allocate RAM memory for stack. This buffer could be reused by application when 
  46:.\Generated_Source\PSoC4/CYBLE.c ****    BLE component is stopped. For export mode buffer is allocated in heap.
  47:.\Generated_Source\PSoC4/CYBLE.c **** */
  48:.\Generated_Source\PSoC4/CYBLE.c **** #if(CYBLE_SHARING_MODE_EXPORT)
  49:.\Generated_Source\PSoC4/CYBLE.c ****     
  50:.\Generated_Source\PSoC4/CYBLE.c **** uint8 *cyBle_stackMemoryRam = NULL;
  51:.\Generated_Source\PSoC4/CYBLE.c **** 
  52:.\Generated_Source\PSoC4/CYBLE.c **** #else
  53:.\Generated_Source\PSoC4/CYBLE.c **** 
  54:.\Generated_Source\PSoC4/CYBLE.c **** CYBLE_CYALIGNED_BEGIN CY_NOINIT uint8 cyBle_stackMemoryRam[CYBLE_STACK_RAM_SIZE] CYBLE_CYALIGNED_EN
  55:.\Generated_Source\PSoC4/CYBLE.c **** 
  56:.\Generated_Source\PSoC4/CYBLE.c **** #endif  /* CYBLE_SHARING_MODE_EXPORT */
  57:.\Generated_Source\PSoC4/CYBLE.c **** 
  58:.\Generated_Source\PSoC4/CYBLE.c **** #if(CYBLE_GAP_ROLE_PERIPHERAL || CYBLE_GAP_ROLE_BROADCASTER)
  59:.\Generated_Source\PSoC4/CYBLE.c **** 
  60:.\Generated_Source\PSoC4/CYBLE.c **** CYBLE_GAPP_DISC_PARAM_T cyBle_discoveryParam =
  61:.\Generated_Source\PSoC4/CYBLE.c **** {
  62:.\Generated_Source\PSoC4/CYBLE.c ****     0x0020u,    /* uint16 advertising_interval_min */
  63:.\Generated_Source\PSoC4/CYBLE.c ****     0x0030u,    /* uint16 advertising_interval_max */
  64:.\Generated_Source\PSoC4/CYBLE.c ****     CYBLE_GAPP_CONNECTABLE_UNDIRECTED_ADV, /* uint8 advertising_type */
  65:.\Generated_Source\PSoC4/CYBLE.c ****     0x00u,      /* uint8 own_addr_type */
  66:.\Generated_Source\PSoC4/CYBLE.c ****     0x00u,      /* uint8 direct_addr_type */
  67:.\Generated_Source\PSoC4/CYBLE.c ****     {0x00u, 0x00u, 0x00u, 0x50u, 0xA0u, 0x00u}, /* uint8* direct_addr */
  68:.\Generated_Source\PSoC4/CYBLE.c ****     0x07u,      /* uint8 advertising_channel_map */
  69:.\Generated_Source\PSoC4/CYBLE.c ****     0x00u,      /* uint8 advertising_filter_policy */
  70:.\Generated_Source\PSoC4/CYBLE.c **** };
  71:.\Generated_Source\PSoC4/CYBLE.c **** 
  72:.\Generated_Source\PSoC4/CYBLE.c **** CYBLE_GAPP_DISC_DATA_T cyBle_discoveryData =
  73:.\Generated_Source\PSoC4/CYBLE.c **** {
  74:.\Generated_Source\PSoC4/CYBLE.c ****     { 0x02u, 0x01u, 0x05u, 0x0Au, 0x08u, 0x50u, 0x72u,
  75:.\Generated_Source\PSoC4/CYBLE.c ****     0x6Fu, 0x78u, 0x69u, 0x6Du, 0x69u, 0x74u, 0x79u, 0x05u,
  76:.\Generated_Source\PSoC4/CYBLE.c ****     0x03u, 0x03u, 0x18u, 0x04u, 0x18u, 0x00u, 0x00u, 0x00u,
  77:.\Generated_Source\PSoC4/CYBLE.c ****     0x00u, 0x00u, 0x00u, 0x00u, 0x00u, 0x00u, 0x00u, 0x00u }, /* uint8 advertising_data[CYBLE_MAX_A
  78:.\Generated_Source\PSoC4/CYBLE.c ****     0x14u,      /* uint8 adv_data_length */
  79:.\Generated_Source\PSoC4/CYBLE.c **** };
  80:.\Generated_Source\PSoC4/CYBLE.c **** 
  81:.\Generated_Source\PSoC4/CYBLE.c **** CYBLE_GAPP_SCAN_RSP_DATA_T cyBle_scanRspData =
  82:.\Generated_Source\PSoC4/CYBLE.c **** {
  83:.\Generated_Source\PSoC4/CYBLE.c ****     { 0x00u, 0x00u, 0x00u, 0x00u, 0x00u, 0x00u, 0x00u,
  84:.\Generated_Source\PSoC4/CYBLE.c ****     0x00u, 0x00u, 0x00u, 0x00u, 0x00u, 0x00u, 0x00u, 0x00u,
  85:.\Generated_Source\PSoC4/CYBLE.c ****     0x00u, 0x00u, 0x00u, 0x00u, 0x00u, 0x00u, 0x00u, 0x00u,
  86:.\Generated_Source\PSoC4/CYBLE.c ****     0x00u, 0x00u, 0x00u, 0x00u, 0x00u, 0x00u, 0x00u, 0x00u }, /* uint8 scan_rsp_data[CYBLE_MAX_SCAN
ARM GAS  C:\Users\sunyi\AppData\Local\Temp\ccXDbPBi.s 			page 5


  87:.\Generated_Source\PSoC4/CYBLE.c ****     0x00u,      /* uint8 scan_rsp_data_length */
  88:.\Generated_Source\PSoC4/CYBLE.c **** };
  89:.\Generated_Source\PSoC4/CYBLE.c **** 
  90:.\Generated_Source\PSoC4/CYBLE.c **** /* This variable of type CYBLE_GAPP_DISC_MODE_INFO_T is present only when 
  91:.\Generated_Source\PSoC4/CYBLE.c ****    the BLE component is configured for Peripheral GAP role or Central and 
  92:.\Generated_Source\PSoC4/CYBLE.c ****    Peripheral GAP role. It contains the Advertisement settings and also the 
  93:.\Generated_Source\PSoC4/CYBLE.c ****    Advertisement and Scan response data parameters entered in the customizer.
  94:.\Generated_Source\PSoC4/CYBLE.c ****    This variable can be used by advanced users to change Advertisement settings,
  95:.\Generated_Source\PSoC4/CYBLE.c ****    Advertisement or Scan response data in runtime. 
  96:.\Generated_Source\PSoC4/CYBLE.c **** */
  97:.\Generated_Source\PSoC4/CYBLE.c **** CYBLE_GAPP_DISC_MODE_INFO_T cyBle_discoveryModeInfo =
  98:.\Generated_Source\PSoC4/CYBLE.c **** {
  99:.\Generated_Source\PSoC4/CYBLE.c ****     0x01u,      /* uint8 discMode */
 100:.\Generated_Source\PSoC4/CYBLE.c ****     &cyBle_discoveryParam,
 101:.\Generated_Source\PSoC4/CYBLE.c ****     &cyBle_discoveryData,
 102:.\Generated_Source\PSoC4/CYBLE.c ****     &cyBle_scanRspData,
 103:.\Generated_Source\PSoC4/CYBLE.c ****     0x001Eu,    /* uint16 advTo */
 104:.\Generated_Source\PSoC4/CYBLE.c **** };
 105:.\Generated_Source\PSoC4/CYBLE.c **** 
 106:.\Generated_Source\PSoC4/CYBLE.c **** 
 107:.\Generated_Source\PSoC4/CYBLE.c **** #endif /* CYBLE_GAP_ROLE_PERIPHERAL || CYBLE_GAP_ROLE_BROADCASTER */
 108:.\Generated_Source\PSoC4/CYBLE.c **** 
 109:.\Generated_Source\PSoC4/CYBLE.c **** #if(CYBLE_GAP_ROLE_CENTRAL)
 110:.\Generated_Source\PSoC4/CYBLE.c ****     
 111:.\Generated_Source\PSoC4/CYBLE.c **** CYBLE_GAPC_CONN_PARAM_T cyBle_connectionParameters;
 112:.\Generated_Source\PSoC4/CYBLE.c **** 
 113:.\Generated_Source\PSoC4/CYBLE.c **** /* Connecting timeout is set to 30 seconds in CyBle_Init function. 
 114:.\Generated_Source\PSoC4/CYBLE.c ****    Not zero value starts timer in CyBle_GapcConnectDevice API.
 115:.\Generated_Source\PSoC4/CYBLE.c **** */
 116:.\Generated_Source\PSoC4/CYBLE.c **** uint16 cyBle_connectingTimeout;
 117:.\Generated_Source\PSoC4/CYBLE.c ****     
 118:.\Generated_Source\PSoC4/CYBLE.c **** #endif /* CYBLE_GAP_ROLE_CENTRAL */
 119:.\Generated_Source\PSoC4/CYBLE.c **** 
 120:.\Generated_Source\PSoC4/CYBLE.c **** #if(CYBLE_GAP_ROLE_CENTRAL || CYBLE_GAP_ROLE_OBSERVER)
 121:.\Generated_Source\PSoC4/CYBLE.c ****     
 122:.\Generated_Source\PSoC4/CYBLE.c **** 
 123:.\Generated_Source\PSoC4/CYBLE.c ****     
 124:.\Generated_Source\PSoC4/CYBLE.c **** #endif /* CYBLE_GAP_ROLE_CENTRAL || CYBLE_GAP_ROLE_OBSERVER */
 125:.\Generated_Source\PSoC4/CYBLE.c **** 
 126:.\Generated_Source\PSoC4/CYBLE.c **** #if((CYBLE_GAP_ROLE_PERIPHERAL || CYBLE_GAP_ROLE_CENTRAL) && (CYBLE_BONDING_REQUIREMENT == CYBLE_BO
 127:.\Generated_Source\PSoC4/CYBLE.c **** 
 128:.\Generated_Source\PSoC4/CYBLE.c **** uint8 cyBle_peerBonding;
 129:.\Generated_Source\PSoC4/CYBLE.c **** uint8 cyBle_pendingFlashWrite;
 130:.\Generated_Source\PSoC4/CYBLE.c ****     
 131:.\Generated_Source\PSoC4/CYBLE.c **** #if(CYBLE_GATT_DB_CCCD_COUNT != 0u)
 132:.\Generated_Source\PSoC4/CYBLE.c ****     static uint8 cyBle_pendingFlashClearCccdHandle;
 133:.\Generated_Source\PSoC4/CYBLE.c **** #endif /* CYBLE_GATT_DB_CCCD_COUNT != 0u */
 134:.\Generated_Source\PSoC4/CYBLE.c ****     
 135:.\Generated_Source\PSoC4/CYBLE.c **** #endif  /* (CYBLE_BONDING_REQUIREMENT == CYBLE_BONDING_YES) */
 136:.\Generated_Source\PSoC4/CYBLE.c **** 
 137:.\Generated_Source\PSoC4/CYBLE.c **** CYBLE_CALLBACK_T CyBle_ApplCallback;
 138:.\Generated_Source\PSoC4/CYBLE.c **** CYBLE_GAP_BD_ADDR_T cyBle_deviceAddress = {{0x00u, 0x00u, 0x00u, 0x50u, 0xA0u, 0x00u}, 0x00u };
 139:.\Generated_Source\PSoC4/CYBLE.c **** CYBLE_GAP_BD_ADDR_T * cyBle_sflashDeviceAddress = CYBLE_SFLASH_DEVICE_ADDRESS_PTR;
 140:.\Generated_Source\PSoC4/CYBLE.c **** 
 141:.\Generated_Source\PSoC4/CYBLE.c **** 
 142:.\Generated_Source\PSoC4/CYBLE.c **** /******************************************************************************
 143:.\Generated_Source\PSoC4/CYBLE.c **** * Function Name: CyBle_Init
ARM GAS  C:\Users\sunyi\AppData\Local\Temp\ccXDbPBi.s 			page 6


 144:.\Generated_Source\PSoC4/CYBLE.c **** ***************************************************************************//**
 145:.\Generated_Source\PSoC4/CYBLE.c **** *
 146:.\Generated_Source\PSoC4/CYBLE.c **** *   Initializes the component with the parameters set in the customizer.
 147:.\Generated_Source\PSoC4/CYBLE.c **** * 
 148:.\Generated_Source\PSoC4/CYBLE.c **** *  \return
 149:.\Generated_Source\PSoC4/CYBLE.c **** *   None
 150:.\Generated_Source\PSoC4/CYBLE.c **** * 
 151:.\Generated_Source\PSoC4/CYBLE.c **** ******************************************************************************/
 152:.\Generated_Source\PSoC4/CYBLE.c **** void CyBle_Init(void)
 153:.\Generated_Source\PSoC4/CYBLE.c **** {
 135              		.loc 1 153 0
 136              		.cfi_startproc
 137 0000 80B5     		push	{r7, lr}
 138              		.cfi_def_cfa_offset 8
 139              		.cfi_offset 7, -8
 140              		.cfi_offset 14, -4
 141 0002 00AF     		add	r7, sp, #0
 142              		.cfi_def_cfa_register 7
 154:.\Generated_Source\PSoC4/CYBLE.c ****     cyBle_eventHandlerFlag = 0u;
 143              		.loc 1 154 0
 144 0004 064B     		ldr	r3, .L2
 145 0006 0022     		mov	r2, #0
 146 0008 1A70     		strb	r2, [r3]
 155:.\Generated_Source\PSoC4/CYBLE.c ****     cyBle_busyStatus = CYBLE_STACK_STATE_FREE;
 147              		.loc 1 155 0
 148 000a 064B     		ldr	r3, .L2+4
 149 000c 0022     		mov	r2, #0
 150 000e 1A70     		strb	r2, [r3]
 156:.\Generated_Source\PSoC4/CYBLE.c **** 
 157:.\Generated_Source\PSoC4/CYBLE.c ****     #if(CYBLE_GAP_ROLE_PERIPHERAL || CYBLE_GAP_ROLE_BROADCASTER) 
 158:.\Generated_Source\PSoC4/CYBLE.c ****         cyBle_advertisingIntervalType = CYBLE_ADVERTISING_FAST; 
 151              		.loc 1 158 0
 152 0010 054B     		ldr	r3, .L2+8
 153 0012 0022     		mov	r2, #0
 154 0014 1A70     		strb	r2, [r3]
 159:.\Generated_Source\PSoC4/CYBLE.c ****     #endif /* (CYBLE_GAP_ROLE_PERIPHERAL || CYBLE_GAP_ROLE_BROADCASTER)  */
 160:.\Generated_Source\PSoC4/CYBLE.c ****     #if(CYBLE_GAP_ROLE_CENTRAL || CYBLE_GAP_ROLE_OBSERVER)
 161:.\Generated_Source\PSoC4/CYBLE.c ****         cyBle_scanningIntervalType = CYBLE_SCANNING_FAST; 
 162:.\Generated_Source\PSoC4/CYBLE.c ****     #endif /* (CYBLE_GAP_ROLE_CENTRAL || CYBLE_GAP_ROLE_OBSERVER) */
 163:.\Generated_Source\PSoC4/CYBLE.c ****         
 164:.\Generated_Source\PSoC4/CYBLE.c ****     /* Init default connection parameters. 
 165:.\Generated_Source\PSoC4/CYBLE.c ****        Application may change it before initiating a connection */
 166:.\Generated_Source\PSoC4/CYBLE.c ****     #if(CYBLE_GAP_ROLE_CENTRAL)
 167:.\Generated_Source\PSoC4/CYBLE.c ****         cyBle_connectionParameters.scanIntv = cyBle_discoveryInfo.scanIntv;
 168:.\Generated_Source\PSoC4/CYBLE.c ****         cyBle_connectionParameters.scanWindow = cyBle_discoveryInfo.scanWindow;
 169:.\Generated_Source\PSoC4/CYBLE.c ****         cyBle_connectionParameters.ownAddrType = cyBle_discoveryInfo.ownAddrType;
 170:.\Generated_Source\PSoC4/CYBLE.c ****         cyBle_connectionParameters.initiatorFilterPolicy = cyBle_discoveryInfo.scanFilterPolicy;
 171:.\Generated_Source\PSoC4/CYBLE.c ****         cyBle_connectionParameters.connIntvMin = CYBLE_GAPC_CONNECTION_INTERVAL_MIN;
 172:.\Generated_Source\PSoC4/CYBLE.c ****         cyBle_connectionParameters.connIntvMax = CYBLE_GAPC_CONNECTION_INTERVAL_MAX;
 173:.\Generated_Source\PSoC4/CYBLE.c ****         cyBle_connectionParameters.connLatency = CYBLE_GAPC_CONNECTION_SLAVE_LATENCY;
 174:.\Generated_Source\PSoC4/CYBLE.c ****         cyBle_connectionParameters.supervisionTO = CYBLE_GAPC_CONNECTION_TIME_OUT;
 175:.\Generated_Source\PSoC4/CYBLE.c ****         cyBle_connectionParameters.minCeLength = 0x0000u;
 176:.\Generated_Source\PSoC4/CYBLE.c ****         cyBle_connectionParameters.maxCeLength = 0xFFFFu;
 177:.\Generated_Source\PSoC4/CYBLE.c ****         
 178:.\Generated_Source\PSoC4/CYBLE.c ****         cyBle_connectingTimeout = CYBLE_GAPC_CONNECTING_TIMEOUT;
 179:.\Generated_Source\PSoC4/CYBLE.c ****     #endif /* CYBLE_GAP_ROLE_CENTRAL */
 180:.\Generated_Source\PSoC4/CYBLE.c **** 
ARM GAS  C:\Users\sunyi\AppData\Local\Temp\ccXDbPBi.s 			page 7


 181:.\Generated_Source\PSoC4/CYBLE.c ****     CyBle_ServiceInit();
 155              		.loc 1 181 0
 156 0016 FFF7FEFF 		bl	CyBle_ServiceInit
 182:.\Generated_Source\PSoC4/CYBLE.c **** 
 183:.\Generated_Source\PSoC4/CYBLE.c ****     #if((CYBLE_GAP_ROLE_PERIPHERAL || CYBLE_GAP_ROLE_CENTRAL) && (CYBLE_BONDING_REQUIREMENT == CYBL
 184:.\Generated_Source\PSoC4/CYBLE.c ****         cyBle_pendingFlashWrite = 0u;
 185:.\Generated_Source\PSoC4/CYBLE.c ****         cyBle_peerBonding = CYBLE_GAP_BONDING_NONE;
 186:.\Generated_Source\PSoC4/CYBLE.c ****     #endif  /* (CYBLE_BONDING_REQUIREMENT == CYBLE_BONDING_YES) */
 187:.\Generated_Source\PSoC4/CYBLE.c **** 
 188:.\Generated_Source\PSoC4/CYBLE.c **** }
 157              		.loc 1 188 0
 158 001a BD46     		mov	sp, r7
 159              		@ sp needed
 160 001c 80BD     		pop	{r7, pc}
 161              	.L3:
 162 001e C046     		.align	2
 163              	.L2:
 164 0020 00000000 		.word	cyBle_eventHandlerFlag
 165 0024 00000000 		.word	cyBle_busyStatus
 166 0028 00000000 		.word	cyBle_advertisingIntervalType
 167              		.cfi_endproc
 168              	.LFE2:
 169              		.size	CyBle_Init, .-CyBle_Init
 170              		.section	.text.CyBle_ServiceInit,"ax",%progbits
 171              		.align	2
 172              		.global	CyBle_ServiceInit
 173              		.code	16
 174              		.thumb_func
 175              		.type	CyBle_ServiceInit, %function
 176              	CyBle_ServiceInit:
 177              	.LFB3:
 189:.\Generated_Source\PSoC4/CYBLE.c **** 
 190:.\Generated_Source\PSoC4/CYBLE.c **** 
 191:.\Generated_Source\PSoC4/CYBLE.c **** /******************************************************************************
 192:.\Generated_Source\PSoC4/CYBLE.c **** * Function Name: CyBle_ServiceInit
 193:.\Generated_Source\PSoC4/CYBLE.c **** ***************************************************************************//**
 194:.\Generated_Source\PSoC4/CYBLE.c **** * 
 195:.\Generated_Source\PSoC4/CYBLE.c **** *  Initializes all included services.
 196:.\Generated_Source\PSoC4/CYBLE.c **** * 
 197:.\Generated_Source\PSoC4/CYBLE.c **** * \return
 198:.\Generated_Source\PSoC4/CYBLE.c **** *  None
 199:.\Generated_Source\PSoC4/CYBLE.c **** * 
 200:.\Generated_Source\PSoC4/CYBLE.c **** ******************************************************************************/
 201:.\Generated_Source\PSoC4/CYBLE.c **** void CyBle_ServiceInit(void)
 202:.\Generated_Source\PSoC4/CYBLE.c **** {
 178              		.loc 1 202 0
 179              		.cfi_startproc
 180 0000 80B5     		push	{r7, lr}
 181              		.cfi_def_cfa_offset 8
 182              		.cfi_offset 7, -8
 183              		.cfi_offset 14, -4
 184 0002 00AF     		add	r7, sp, #0
 185              		.cfi_def_cfa_register 7
 203:.\Generated_Source\PSoC4/CYBLE.c ****     #if(CYBLE_GATT_ROLE_CLIENT)
 204:.\Generated_Source\PSoC4/CYBLE.c ****         /* Check service range before clearing to support partial discovery */
 205:.\Generated_Source\PSoC4/CYBLE.c ****         if(cyBle_serverInfo[CYBLE_SRVI_GAP].range.startHandle == CYBLE_GATT_INVALID_ATTR_HANDLE_VAL
 206:.\Generated_Source\PSoC4/CYBLE.c ****         {
ARM GAS  C:\Users\sunyi\AppData\Local\Temp\ccXDbPBi.s 			page 8


 207:.\Generated_Source\PSoC4/CYBLE.c ****             (void)memset(&cyBle_gapc, 0, sizeof(cyBle_gapc));
 208:.\Generated_Source\PSoC4/CYBLE.c ****         }
 209:.\Generated_Source\PSoC4/CYBLE.c ****         if(cyBle_serverInfo[CYBLE_SRVI_GATT].range.startHandle == CYBLE_GATT_INVALID_ATTR_HANDLE_VA
 210:.\Generated_Source\PSoC4/CYBLE.c ****         {
 211:.\Generated_Source\PSoC4/CYBLE.c ****             (void)memset(&cyBle_gattc, 0, sizeof(cyBle_gattc));
 212:.\Generated_Source\PSoC4/CYBLE.c ****         }
 213:.\Generated_Source\PSoC4/CYBLE.c ****     #endif /* CYBLE_GATT_ROLE_CLIENT */
 214:.\Generated_Source\PSoC4/CYBLE.c ****     
 215:.\Generated_Source\PSoC4/CYBLE.c **** 	#ifdef CYBLE_ANCS
 216:.\Generated_Source\PSoC4/CYBLE.c ****         CyBle_AncsInit();
 217:.\Generated_Source\PSoC4/CYBLE.c ****     #endif /* CYBLE_ANCS */
 218:.\Generated_Source\PSoC4/CYBLE.c **** 	
 219:.\Generated_Source\PSoC4/CYBLE.c ****     #ifdef CYBLE_ANS
 220:.\Generated_Source\PSoC4/CYBLE.c ****         CyBle_AnsInit();
 221:.\Generated_Source\PSoC4/CYBLE.c ****     #endif /* CYBLE_ANS */
 222:.\Generated_Source\PSoC4/CYBLE.c ****     
 223:.\Generated_Source\PSoC4/CYBLE.c ****     #ifdef CYBLE_BAS
 224:.\Generated_Source\PSoC4/CYBLE.c ****         CyBle_BasInit();
 225:.\Generated_Source\PSoC4/CYBLE.c ****     #endif /* CYBLE_BAS */
 226:.\Generated_Source\PSoC4/CYBLE.c ****     
 227:.\Generated_Source\PSoC4/CYBLE.c ****     #ifdef CYBLE_BCS
 228:.\Generated_Source\PSoC4/CYBLE.c ****         CyBle_BcsInit();
 229:.\Generated_Source\PSoC4/CYBLE.c ****     #endif /* CYBLE_BCS */
 230:.\Generated_Source\PSoC4/CYBLE.c **** 
 231:.\Generated_Source\PSoC4/CYBLE.c ****     #ifdef CYBLE_BLS
 232:.\Generated_Source\PSoC4/CYBLE.c ****         CyBle_BlsInit();
 233:.\Generated_Source\PSoC4/CYBLE.c ****     #endif /* CYBLE_BLS */
 234:.\Generated_Source\PSoC4/CYBLE.c ****     
 235:.\Generated_Source\PSoC4/CYBLE.c ****     #ifdef CYBLE_BMS
 236:.\Generated_Source\PSoC4/CYBLE.c ****         CyBle_BmsInit();
 237:.\Generated_Source\PSoC4/CYBLE.c ****     #endif /* CYBLE_BMS */
 238:.\Generated_Source\PSoC4/CYBLE.c ****     
 239:.\Generated_Source\PSoC4/CYBLE.c ****     #ifdef CYBLE_CGMS
 240:.\Generated_Source\PSoC4/CYBLE.c ****         CyBle_CgmsInit();
 241:.\Generated_Source\PSoC4/CYBLE.c ****     #endif /* CYBLE_CGMS */
 242:.\Generated_Source\PSoC4/CYBLE.c **** 
 243:.\Generated_Source\PSoC4/CYBLE.c ****     #ifdef CYBLE_CPS
 244:.\Generated_Source\PSoC4/CYBLE.c ****         CyBle_CpsInit();
 245:.\Generated_Source\PSoC4/CYBLE.c ****     #endif /* CYBLE_CPS */
 246:.\Generated_Source\PSoC4/CYBLE.c **** 
 247:.\Generated_Source\PSoC4/CYBLE.c ****     #ifdef CYBLE_CSCS
 248:.\Generated_Source\PSoC4/CYBLE.c ****         CyBle_CscsInit();
 249:.\Generated_Source\PSoC4/CYBLE.c ****     #endif /* CYBLE_CSCS */
 250:.\Generated_Source\PSoC4/CYBLE.c ****     
 251:.\Generated_Source\PSoC4/CYBLE.c ****     #ifdef CYBLE_CTS
 252:.\Generated_Source\PSoC4/CYBLE.c ****         CyBle_CtsInit();
 253:.\Generated_Source\PSoC4/CYBLE.c ****     #endif /* CYBLE_CTS */
 254:.\Generated_Source\PSoC4/CYBLE.c **** 
 255:.\Generated_Source\PSoC4/CYBLE.c ****     #ifdef CYBLE_CUSTOM
 256:.\Generated_Source\PSoC4/CYBLE.c ****         CyBle_CustomInit();
 257:.\Generated_Source\PSoC4/CYBLE.c ****     #endif /* CYBLE_CUSTOM */
 258:.\Generated_Source\PSoC4/CYBLE.c **** 
 259:.\Generated_Source\PSoC4/CYBLE.c ****     #ifdef CYBLE_DIS
 260:.\Generated_Source\PSoC4/CYBLE.c ****         CyBle_DisInit();
 261:.\Generated_Source\PSoC4/CYBLE.c ****     #endif /* CYBLE_DIS */
 262:.\Generated_Source\PSoC4/CYBLE.c **** 
 263:.\Generated_Source\PSoC4/CYBLE.c ****     #ifdef CYBLE_ESS
ARM GAS  C:\Users\sunyi\AppData\Local\Temp\ccXDbPBi.s 			page 9


 264:.\Generated_Source\PSoC4/CYBLE.c ****         CyBle_EssInit();
 265:.\Generated_Source\PSoC4/CYBLE.c ****     #endif /* CYBLE_ESS */
 266:.\Generated_Source\PSoC4/CYBLE.c ****     
 267:.\Generated_Source\PSoC4/CYBLE.c ****     #ifdef CYBLE_GLS
 268:.\Generated_Source\PSoC4/CYBLE.c ****         CyBle_GlsInit();
 269:.\Generated_Source\PSoC4/CYBLE.c ****     #endif /* CYBLE_GLS */
 270:.\Generated_Source\PSoC4/CYBLE.c ****     
 271:.\Generated_Source\PSoC4/CYBLE.c ****     #ifdef CYBLE_HIDS
 272:.\Generated_Source\PSoC4/CYBLE.c ****         CyBle_HidsInit();
 273:.\Generated_Source\PSoC4/CYBLE.c ****     #endif /* CYBLE_HIDS */
 274:.\Generated_Source\PSoC4/CYBLE.c **** 
 275:.\Generated_Source\PSoC4/CYBLE.c ****     #ifdef CYBLE_HPS
 276:.\Generated_Source\PSoC4/CYBLE.c ****         CyBle_HpsInit();
 277:.\Generated_Source\PSoC4/CYBLE.c ****     #endif /* CYBLE_HPS */
 278:.\Generated_Source\PSoC4/CYBLE.c **** 
 279:.\Generated_Source\PSoC4/CYBLE.c ****     #ifdef CYBLE_HRS
 280:.\Generated_Source\PSoC4/CYBLE.c ****         CyBle_HrsInit();
 281:.\Generated_Source\PSoC4/CYBLE.c ****     #endif /* CYBLE_HRS */
 282:.\Generated_Source\PSoC4/CYBLE.c ****     
 283:.\Generated_Source\PSoC4/CYBLE.c ****     #ifdef CYBLE_HTS
 284:.\Generated_Source\PSoC4/CYBLE.c ****         CyBle_HtsInit();
 285:.\Generated_Source\PSoC4/CYBLE.c ****     #endif /* CYBLE_RSCS */
 286:.\Generated_Source\PSoC4/CYBLE.c **** 
 287:.\Generated_Source\PSoC4/CYBLE.c ****     #ifdef CYBLE_IAS
 288:.\Generated_Source\PSoC4/CYBLE.c ****         CyBle_IasInit();
 289:.\Generated_Source\PSoC4/CYBLE.c ****     #endif /* CYBLE_IAS */
 290:.\Generated_Source\PSoC4/CYBLE.c **** 
 291:.\Generated_Source\PSoC4/CYBLE.c ****     #ifdef CYBLE_IPS
 292:.\Generated_Source\PSoC4/CYBLE.c ****         CyBle_IpsInit();
 293:.\Generated_Source\PSoC4/CYBLE.c ****     #endif /* CYBLE_IPS */
 294:.\Generated_Source\PSoC4/CYBLE.c ****     
 295:.\Generated_Source\PSoC4/CYBLE.c ****     #ifdef CYBLE_LLS
 296:.\Generated_Source\PSoC4/CYBLE.c ****         CyBle_LlsInit();
 186              		.loc 1 296 0
 187 0004 FFF7FEFF 		bl	CyBle_LlsInit
 297:.\Generated_Source\PSoC4/CYBLE.c ****     #endif /* CYBLE_LLS */
 298:.\Generated_Source\PSoC4/CYBLE.c **** 
 299:.\Generated_Source\PSoC4/CYBLE.c ****     #ifdef CYBLE_LNS
 300:.\Generated_Source\PSoC4/CYBLE.c ****         CyBle_LnsInit();
 301:.\Generated_Source\PSoC4/CYBLE.c ****     #endif /* CYBLE_LNS */
 302:.\Generated_Source\PSoC4/CYBLE.c ****     
 303:.\Generated_Source\PSoC4/CYBLE.c ****     #ifdef CYBLE_NDCS
 304:.\Generated_Source\PSoC4/CYBLE.c ****         CyBle_NdcsInit();
 305:.\Generated_Source\PSoC4/CYBLE.c ****     #endif /* CYBLE_NDCS */
 306:.\Generated_Source\PSoC4/CYBLE.c ****     
 307:.\Generated_Source\PSoC4/CYBLE.c ****     #ifdef CYBLE_PASS
 308:.\Generated_Source\PSoC4/CYBLE.c ****         CyBle_PassInit();
 309:.\Generated_Source\PSoC4/CYBLE.c ****     #endif /* CYBLE_PASS */
 310:.\Generated_Source\PSoC4/CYBLE.c ****     
 311:.\Generated_Source\PSoC4/CYBLE.c ****     #ifdef CYBLE_RSCS
 312:.\Generated_Source\PSoC4/CYBLE.c ****         CyBle_RscsInit();
 313:.\Generated_Source\PSoC4/CYBLE.c ****     #endif /* CYBLE_RSCS */
 314:.\Generated_Source\PSoC4/CYBLE.c **** 
 315:.\Generated_Source\PSoC4/CYBLE.c ****     #ifdef CYBLE_RTUS
 316:.\Generated_Source\PSoC4/CYBLE.c ****         CyBle_RtusInit();
 317:.\Generated_Source\PSoC4/CYBLE.c ****     #endif /* CYBLE_RTUS */
 318:.\Generated_Source\PSoC4/CYBLE.c **** 
ARM GAS  C:\Users\sunyi\AppData\Local\Temp\ccXDbPBi.s 			page 10


 319:.\Generated_Source\PSoC4/CYBLE.c ****     #ifdef CYBLE_SCPS
 320:.\Generated_Source\PSoC4/CYBLE.c ****         CyBle_ScpsInit();
 321:.\Generated_Source\PSoC4/CYBLE.c ****     #endif /* CYBLE_SCPS */
 322:.\Generated_Source\PSoC4/CYBLE.c ****     
 323:.\Generated_Source\PSoC4/CYBLE.c ****     #ifdef CYBLE_TPS
 324:.\Generated_Source\PSoC4/CYBLE.c ****         CyBle_TpsInit();
 188              		.loc 1 324 0
 189 0008 FFF7FEFF 		bl	CyBle_TpsInit
 325:.\Generated_Source\PSoC4/CYBLE.c ****     #endif /* CYBLE_TPS */
 326:.\Generated_Source\PSoC4/CYBLE.c ****     
 327:.\Generated_Source\PSoC4/CYBLE.c ****     #ifdef CYBLE_UDS
 328:.\Generated_Source\PSoC4/CYBLE.c ****         CyBle_UdsInit();
 329:.\Generated_Source\PSoC4/CYBLE.c ****     #endif /* CYBLE_UDS */
 330:.\Generated_Source\PSoC4/CYBLE.c **** 
 331:.\Generated_Source\PSoC4/CYBLE.c ****     #ifdef CYBLE_WPTS
 332:.\Generated_Source\PSoC4/CYBLE.c ****         CyBle_WptsInit();
 333:.\Generated_Source\PSoC4/CYBLE.c ****     #endif /* CYBLE_WPTS */
 334:.\Generated_Source\PSoC4/CYBLE.c **** 
 335:.\Generated_Source\PSoC4/CYBLE.c ****     #ifdef CYBLE_WSS
 336:.\Generated_Source\PSoC4/CYBLE.c ****         CyBle_WssInit();
 337:.\Generated_Source\PSoC4/CYBLE.c ****     #endif /* CYBLE_WSS */
 338:.\Generated_Source\PSoC4/CYBLE.c **** }
 190              		.loc 1 338 0
 191 000c BD46     		mov	sp, r7
 192              		@ sp needed
 193 000e 80BD     		pop	{r7, pc}
 194              		.cfi_endproc
 195              	.LFE3:
 196              		.size	CyBle_ServiceInit, .-CyBle_ServiceInit
 197              		.section	.rodata
 198              		.align	2
 199              	.LC0:
 200 0000 2400     		.short	36
 201 0002 03       		.byte	3
 202 0003 00       		.space	1
 203 0004 3000     		.short	48
 204 0006 01       		.byte	1
 205 0007 00       		.space	1
 206 0008 2800     		.short	40
 207 000a 02       		.byte	2
 208 000b 00       		.space	1
 209 000c 2400     		.short	36
 210 000e 01       		.byte	1
 211 000f 00       		.space	1
 212 0010 2400     		.short	36
 213 0012 01       		.byte	1
 214 0013 00       		.space	1
 215              		.section	.text.CyBle_Start,"ax",%progbits
 216              		.align	2
 217              		.global	CyBle_Start
 218              		.code	16
 219              		.thumb_func
 220              		.type	CyBle_Start, %function
 221              	CyBle_Start:
 222              	.LFB4:
 339:.\Generated_Source\PSoC4/CYBLE.c **** 
 340:.\Generated_Source\PSoC4/CYBLE.c **** 
ARM GAS  C:\Users\sunyi\AppData\Local\Temp\ccXDbPBi.s 			page 11


 341:.\Generated_Source\PSoC4/CYBLE.c **** /******************************************************************************
 342:.\Generated_Source\PSoC4/CYBLE.c **** * Function Name: CyBle_Start
 343:.\Generated_Source\PSoC4/CYBLE.c **** ***************************************************************************//**
 344:.\Generated_Source\PSoC4/CYBLE.c **** * 
 345:.\Generated_Source\PSoC4/CYBLE.c **** *  This function initializes the BLE Stack, which consists of the BLE Stack 
 346:.\Generated_Source\PSoC4/CYBLE.c **** *  Manager, BLE Controller, and BLE Host modules. It takes care of initializing
 347:.\Generated_Source\PSoC4/CYBLE.c **** *  the Profile layer, schedulers, Timer and other platform related
 348:.\Generated_Source\PSoC4/CYBLE.c **** *  resources required for the BLE component. It also registers the callback 
 349:.\Generated_Source\PSoC4/CYBLE.c **** *  function for BLE events that will be registered in the BLE stack.
 350:.\Generated_Source\PSoC4/CYBLE.c **** * 
 351:.\Generated_Source\PSoC4/CYBLE.c **** *  Note that this function does not reset the BLE Stack.
 352:.\Generated_Source\PSoC4/CYBLE.c **** * 
 353:.\Generated_Source\PSoC4/CYBLE.c **** *  For HCI-Mode of operation, this function will not initialize the BLE Host 
 354:.\Generated_Source\PSoC4/CYBLE.c **** *  module.
 355:.\Generated_Source\PSoC4/CYBLE.c **** * 
 356:.\Generated_Source\PSoC4/CYBLE.c **** *  Calling this function results in the generation of CYBLE_EVT_STACK_ON event
 357:.\Generated_Source\PSoC4/CYBLE.c **** *  on successful initialization of the BLE Stack.
 358:.\Generated_Source\PSoC4/CYBLE.c **** * 
 359:.\Generated_Source\PSoC4/CYBLE.c **** *  \param callbackFunc: Event callback function to receive events from BLE stack.
 360:.\Generated_Source\PSoC4/CYBLE.c **** *   CYBLE_CALLBACK_T is a function pointer type.
 361:.\Generated_Source\PSoC4/CYBLE.c **** * 
 362:.\Generated_Source\PSoC4/CYBLE.c **** * \return
 363:.\Generated_Source\PSoC4/CYBLE.c **** *  CYBLE_API_RESULT_T : Return value indicates if the function succeeded or 
 364:.\Generated_Source\PSoC4/CYBLE.c **** *  failed. Following are the possible error codes.
 365:.\Generated_Source\PSoC4/CYBLE.c **** * 
 366:.\Generated_Source\PSoC4/CYBLE.c **** *   <table>
 367:.\Generated_Source\PSoC4/CYBLE.c **** *  	  <tr>
 368:.\Generated_Source\PSoC4/CYBLE.c **** *       <th>Error codes</th>
 369:.\Generated_Source\PSoC4/CYBLE.c **** *       <th>Description</th>
 370:.\Generated_Source\PSoC4/CYBLE.c **** *     </tr>
 371:.\Generated_Source\PSoC4/CYBLE.c **** *     <tr>
 372:.\Generated_Source\PSoC4/CYBLE.c **** *       <td>CYBLE_ERROR_OK</td>
 373:.\Generated_Source\PSoC4/CYBLE.c **** *       <td>On successful operation.</td>
 374:.\Generated_Source\PSoC4/CYBLE.c **** *     </tr>
 375:.\Generated_Source\PSoC4/CYBLE.c **** *     <tr>
 376:.\Generated_Source\PSoC4/CYBLE.c **** *       <td>CYBLE_ERROR_INVALID_PARAMETER</td>
 377:.\Generated_Source\PSoC4/CYBLE.c **** *       <td>On passing a NULL pointer to the function when the BLE stack is not built in HCI mode. 
 378:.\Generated_Source\PSoC4/CYBLE.c **** *			CYBLE_ERROR_INVALID_PARAMETER is never returned in HCI mode.</td>
 379:.\Generated_Source\PSoC4/CYBLE.c **** *     </tr>
 380:.\Generated_Source\PSoC4/CYBLE.c **** *     <tr>
 381:.\Generated_Source\PSoC4/CYBLE.c **** *       <td>CYBLE_ERROR_REPEATED_ATTEMPTS</td>
 382:.\Generated_Source\PSoC4/CYBLE.c **** *       <td>On invoking this function more than once without calling CyBle_Shutdown() 
 383:.\Generated_Source\PSoC4/CYBLE.c **** *           function between calls to this function.</td>
 384:.\Generated_Source\PSoC4/CYBLE.c **** *     </tr>
 385:.\Generated_Source\PSoC4/CYBLE.c **** *     <tr>
 386:.\Generated_Source\PSoC4/CYBLE.c **** *       <td>CYBLE_ERROR_MEMORY_ALLOCATION_FAILED</td>
 387:.\Generated_Source\PSoC4/CYBLE.c **** *       <td>There is insufficient memory available.</td>
 388:.\Generated_Source\PSoC4/CYBLE.c **** *     </tr>
 389:.\Generated_Source\PSoC4/CYBLE.c **** *   </table>
 390:.\Generated_Source\PSoC4/CYBLE.c **** * 
 391:.\Generated_Source\PSoC4/CYBLE.c **** *  \globalvars
 392:.\Generated_Source\PSoC4/CYBLE.c **** *   The CyBle_initVar variable is used to indicate initial
 393:.\Generated_Source\PSoC4/CYBLE.c **** *   configuration of this component. The variable is initialized to zero (0u)
 394:.\Generated_Source\PSoC4/CYBLE.c **** *   and set to one (1u) the first time CyBle_Start() is called. This
 395:.\Generated_Source\PSoC4/CYBLE.c **** *   allows for component initialization without re-initialization in all
 396:.\Generated_Source\PSoC4/CYBLE.c **** *   subsequent calls to the CyBle_Start() routine.
 397:.\Generated_Source\PSoC4/CYBLE.c **** * 
ARM GAS  C:\Users\sunyi\AppData\Local\Temp\ccXDbPBi.s 			page 12


 398:.\Generated_Source\PSoC4/CYBLE.c **** ******************************************************************************/
 399:.\Generated_Source\PSoC4/CYBLE.c **** CYBLE_API_RESULT_T CyBle_Start(CYBLE_CALLBACK_T callbackFunc)
 400:.\Generated_Source\PSoC4/CYBLE.c **** {
 223              		.loc 1 400 0
 224              		.cfi_startproc
 225 0000 B0B5     		push	{r4, r5, r7, lr}
 226              		.cfi_def_cfa_offset 16
 227              		.cfi_offset 4, -16
 228              		.cfi_offset 5, -12
 229              		.cfi_offset 7, -8
 230              		.cfi_offset 14, -4
 231 0002 94B0     		sub	sp, sp, #80
 232              		.cfi_def_cfa_offset 96
 233 0004 04AF     		add	r7, sp, #16
 234              		.cfi_def_cfa 7, 80
 235 0006 7860     		str	r0, [r7, #4]
 401:.\Generated_Source\PSoC4/CYBLE.c ****     CYBLE_API_RESULT_T apiResult = CYBLE_ERROR_OK;
 236              		.loc 1 401 0
 237 0008 3E23     		mov	r3, #62
 238 000a FB18     		add	r3, r7, r3
 239 000c 0022     		mov	r2, #0
 240 000e 1A80     		strh	r2, [r3]
 402:.\Generated_Source\PSoC4/CYBLE.c ****     
 403:.\Generated_Source\PSoC4/CYBLE.c ****     #if(CYBLE_MODE_PROFILE)
 404:.\Generated_Source\PSoC4/CYBLE.c ****     
 405:.\Generated_Source\PSoC4/CYBLE.c ****     CYBLE_STK_APP_DATA_BUFF_T cyBle_stackDataBuff[CYBLE_STACK_APP_MIN_POOL] = 
 241              		.loc 1 405 0
 242 0010 2823     		mov	r3, #40
 243 0012 FA18     		add	r2, r7, r3
 244 0014 3E4B     		ldr	r3, .L12
 245 0016 111C     		mov	r1, r2
 246 0018 1A1C     		mov	r2, r3
 247 001a 1423     		mov	r3, #20
 248 001c 081C     		mov	r0, r1
 249 001e 111C     		mov	r1, r2
 250 0020 1A1C     		mov	r2, r3
 251 0022 FFF7FEFF 		bl	memcpy
 406:.\Generated_Source\PSoC4/CYBLE.c ****     {
 407:.\Generated_Source\PSoC4/CYBLE.c ****         {CYBLE_GATT_MTU_PLUS_L2CAP_MEM_EXT, CYBLE_GATT_MTU_BUFF_COUNT + CYBLE_GATT_MAX_ATTR_BUFF_CO
 408:.\Generated_Source\PSoC4/CYBLE.c ****         {CYBLE_L2CAP_PSM_PLUS_L2CAP_MEM_EXT, CYBLE_L2CAP_PSM_COUNT},
 409:.\Generated_Source\PSoC4/CYBLE.c ****         {CYBLE_L2CAP_CBFC_PLUS_L2CAP_MEM_EXT, 2u * CYBLE_L2CAP_LOGICAL_CHANNEL_COUNT},
 410:.\Generated_Source\PSoC4/CYBLE.c ****         {CYBLE_L2CAP_MTU_PLUS_L2CAP_MEM_EXT, CYBLE_L2CAP_LOGICAL_CHANNEL_COUNT},
 411:.\Generated_Source\PSoC4/CYBLE.c ****         {CYBLE_L2CAP_MPS_PLUS_L2CAP_MEM_EXT, CYBLE_L2CAP_LOGICAL_CHANNEL_COUNT * (CYBLE_L2CAP_MTU_M
 412:.\Generated_Source\PSoC4/CYBLE.c ****     }; 
 413:.\Generated_Source\PSoC4/CYBLE.c **** 
 414:.\Generated_Source\PSoC4/CYBLE.c ****     #endif /* CYBLE_MODE_PROFILE */
 415:.\Generated_Source\PSoC4/CYBLE.c ****     
 416:.\Generated_Source\PSoC4/CYBLE.c ****     /* If not initialized then initialize all the required hardware and software */
 417:.\Generated_Source\PSoC4/CYBLE.c ****     if(cyBle_initVar == 0u)
 252              		.loc 1 417 0
 253 0026 3B4B     		ldr	r3, .L12+4
 254 0028 1B78     		ldrb	r3, [r3]
 255 002a 002B     		cmp	r3, #0
 256 002c 04D1     		bne	.L6
 418:.\Generated_Source\PSoC4/CYBLE.c ****     {
 419:.\Generated_Source\PSoC4/CYBLE.c ****         CyBle_Init();
 257              		.loc 1 419 0
ARM GAS  C:\Users\sunyi\AppData\Local\Temp\ccXDbPBi.s 			page 13


 258 002e FFF7FEFF 		bl	CyBle_Init
 420:.\Generated_Source\PSoC4/CYBLE.c ****         cyBle_initVar = 1u;
 259              		.loc 1 420 0
 260 0032 384B     		ldr	r3, .L12+4
 261 0034 0122     		mov	r2, #1
 262 0036 1A70     		strb	r2, [r3]
 263              	.L6:
 421:.\Generated_Source\PSoC4/CYBLE.c ****     }
 422:.\Generated_Source\PSoC4/CYBLE.c ****     
 423:.\Generated_Source\PSoC4/CYBLE.c ****     if(callbackFunc != NULL)
 264              		.loc 1 423 0
 265 0038 7B68     		ldr	r3, [r7, #4]
 266 003a 002B     		cmp	r3, #0
 267 003c 5CD0     		beq	.L7
 424:.\Generated_Source\PSoC4/CYBLE.c ****     {
 425:.\Generated_Source\PSoC4/CYBLE.c ****         CyBle_ApplCallback = callbackFunc;
 268              		.loc 1 425 0
 269 003e 364B     		ldr	r3, .L12+8
 270 0040 7A68     		ldr	r2, [r7, #4]
 271 0042 1A60     		str	r2, [r3]
 426:.\Generated_Source\PSoC4/CYBLE.c ****         
 427:.\Generated_Source\PSoC4/CYBLE.c ****     #if(CYBLE_SHARING_MODE_EXPORT)
 428:.\Generated_Source\PSoC4/CYBLE.c ****         if(cyBle_stackMemoryRam == NULL)
 429:.\Generated_Source\PSoC4/CYBLE.c ****         {
 430:.\Generated_Source\PSoC4/CYBLE.c ****             cyBle_stackMemoryRam = (uint8 *)malloc(CYBLE_STACK_RAM_SIZE);
 431:.\Generated_Source\PSoC4/CYBLE.c ****             if(cyBle_stackMemoryRam == NULL)
 432:.\Generated_Source\PSoC4/CYBLE.c ****             {
 433:.\Generated_Source\PSoC4/CYBLE.c ****                 apiResult = CYBLE_ERROR_MEMORY_ALLOCATION_FAILED;
 434:.\Generated_Source\PSoC4/CYBLE.c ****             }
 435:.\Generated_Source\PSoC4/CYBLE.c ****         }
 436:.\Generated_Source\PSoC4/CYBLE.c ****     #endif /* CYBLE_SHARING_MODE_EXPORT */
 437:.\Generated_Source\PSoC4/CYBLE.c ****         if(apiResult == CYBLE_ERROR_OK)
 272              		.loc 1 437 0
 273 0044 3E23     		mov	r3, #62
 274 0046 FB18     		add	r3, r7, r3
 275 0048 1B88     		ldrh	r3, [r3]
 276 004a 002B     		cmp	r3, #0
 277 004c 29D1     		bne	.L8
 278              	.LBB2:
 438:.\Generated_Source\PSoC4/CYBLE.c ****         {
 439:.\Generated_Source\PSoC4/CYBLE.c ****             CYBLE_DLE_CONFIG_PARAM_T dleConfigParams;
 440:.\Generated_Source\PSoC4/CYBLE.c ****             CYBLE_PRIVACY_1_2_CONFIG_PARAM_T privacyConfigParams;
 441:.\Generated_Source\PSoC4/CYBLE.c ****             CYBLE_STACK_CONFIG_PARAM_T stackConfig;
 442:.\Generated_Source\PSoC4/CYBLE.c ****             uint16 featureHeapReq;
 443:.\Generated_Source\PSoC4/CYBLE.c ****             
 444:.\Generated_Source\PSoC4/CYBLE.c ****             stackConfig.privacyConfig = &privacyConfigParams;
 279              		.loc 1 444 0
 280 004e 1023     		mov	r3, #16
 281 0050 FB18     		add	r3, r7, r3
 282 0052 1C22     		mov	r2, #28
 283 0054 BA18     		add	r2, r7, r2
 284 0056 5A60     		str	r2, [r3, #4]
 445:.\Generated_Source\PSoC4/CYBLE.c ****             stackConfig.dleConfig = &dleConfigParams;
 285              		.loc 1 445 0
 286 0058 1023     		mov	r3, #16
 287 005a FB18     		add	r3, r7, r3
 288 005c 2022     		mov	r2, #32
ARM GAS  C:\Users\sunyi\AppData\Local\Temp\ccXDbPBi.s 			page 14


 289 005e BA18     		add	r2, r7, r2
 290 0060 1A60     		str	r2, [r3]
 446:.\Generated_Source\PSoC4/CYBLE.c ****             
 447:.\Generated_Source\PSoC4/CYBLE.c ****             /* Configure default BLE 4.1 features and enabled 4.2 features */
 448:.\Generated_Source\PSoC4/CYBLE.c ****             stackConfig.feature_mask = CYBLE_DLE_FEATURE | CYBLE_LL_PRIVACY_FEATURE | 
 291              		.loc 1 448 0
 292 0062 1023     		mov	r3, #16
 293 0064 FB18     		add	r3, r7, r3
 294 0066 0022     		mov	r2, #0
 295 0068 1A81     		strh	r2, [r3, #8]
 449:.\Generated_Source\PSoC4/CYBLE.c ****                                        CYBLE_SECURE_CONN_FEATURE;
 450:.\Generated_Source\PSoC4/CYBLE.c **** 
 451:.\Generated_Source\PSoC4/CYBLE.c ****             /* Configure DLE */
 452:.\Generated_Source\PSoC4/CYBLE.c ****             dleConfigParams.dleMaxTxCapability = CYBLE_LL_MAX_TX_PAYLOAD_SIZE;
 296              		.loc 1 452 0
 297 006a 2023     		mov	r3, #32
 298 006c FB18     		add	r3, r7, r3
 299 006e 1B22     		mov	r2, #27
 300 0070 1A80     		strh	r2, [r3]
 453:.\Generated_Source\PSoC4/CYBLE.c ****             dleConfigParams.dleMaxRxCapability = CYBLE_LL_MAX_RX_PAYLOAD_SIZE;
 301              		.loc 1 453 0
 302 0072 2023     		mov	r3, #32
 303 0074 FB18     		add	r3, r7, r3
 304 0076 1B22     		mov	r2, #27
 305 0078 5A80     		strh	r2, [r3, #2]
 454:.\Generated_Source\PSoC4/CYBLE.c ****             dleConfigParams.dleNumTxBuffer = CYBLE_LL_DEFAULT_NUM_ACL_TX_PACKETS;
 306              		.loc 1 454 0
 307 007a 2023     		mov	r3, #32
 308 007c FB18     		add	r3, r7, r3
 309 007e 0422     		mov	r2, #4
 310 0080 1A71     		strb	r2, [r3, #4]
 455:.\Generated_Source\PSoC4/CYBLE.c ****         #if(CYBLE_DLE_FEATURE_ENABLED)
 456:.\Generated_Source\PSoC4/CYBLE.c ****             CyBle_EnableDleFeature();              /* Enable DLE code in stack */
 457:.\Generated_Source\PSoC4/CYBLE.c ****         #endif /* CYBLE_DLE_FEATURE_ENABLED */
 458:.\Generated_Source\PSoC4/CYBLE.c ****         
 459:.\Generated_Source\PSoC4/CYBLE.c ****             /* Configure LL Privacy */
 460:.\Generated_Source\PSoC4/CYBLE.c ****             privacyConfigParams.resolvingListSize = CYBLE_MAX_RESOLVABLE_DEVICES;
 311              		.loc 1 460 0
 312 0082 1C23     		mov	r3, #28
 313 0084 FB18     		add	r3, r7, r3
 314 0086 0022     		mov	r2, #0
 315 0088 1A70     		strb	r2, [r3]
 461:.\Generated_Source\PSoC4/CYBLE.c ****         #if(CYBLE_LL_PRIVACY_FEATURE_ENABLED)
 462:.\Generated_Source\PSoC4/CYBLE.c ****             CyBle_EnablePrivacyFeature();          /* Enable LL Privacy code in stack */
 463:.\Generated_Source\PSoC4/CYBLE.c ****         #endif /* CYBLE_LL_PRIVACY_FEATURE_ENABLED */
 464:.\Generated_Source\PSoC4/CYBLE.c **** 
 465:.\Generated_Source\PSoC4/CYBLE.c ****             apiResult = CyBle_StackSetFeatureConfig(&stackConfig, &featureHeapReq);
 316              		.loc 1 465 0
 317 008a 3E23     		mov	r3, #62
 318 008c FC18     		add	r4, r7, r3
 319 008e 1023     		mov	r3, #16
 320 0090 FA18     		add	r2, r7, r3
 321 0092 0E23     		mov	r3, #14
 322 0094 FB18     		add	r3, r7, r3
 323 0096 101C     		mov	r0, r2
 324 0098 191C     		mov	r1, r3
 325 009a FFF7FEFF 		bl	CyBle_StackSetFeatureConfig
ARM GAS  C:\Users\sunyi\AppData\Local\Temp\ccXDbPBi.s 			page 15


 326 009e 031C     		mov	r3, r0
 327 00a0 2380     		strh	r3, [r4]
 328              	.L8:
 329              	.LBE2:
 466:.\Generated_Source\PSoC4/CYBLE.c ****             }
 467:.\Generated_Source\PSoC4/CYBLE.c ****     
 468:.\Generated_Source\PSoC4/CYBLE.c ****         if(apiResult == CYBLE_ERROR_OK)
 330              		.loc 1 468 0
 331 00a2 3E23     		mov	r3, #62
 332 00a4 FB18     		add	r3, r7, r3
 333 00a6 1B88     		ldrh	r3, [r3]
 334 00a8 002B     		cmp	r3, #0
 335 00aa 29D1     		bne	.L10
 469:.\Generated_Source\PSoC4/CYBLE.c ****         {
 470:.\Generated_Source\PSoC4/CYBLE.c ****             
 471:.\Generated_Source\PSoC4/CYBLE.c ****         #if(CYBLE_MODE_PROFILE)
 472:.\Generated_Source\PSoC4/CYBLE.c ****             #if(CYBLE_BONDING_REQUIREMENT == CYBLE_BONDING_YES)
 473:.\Generated_Source\PSoC4/CYBLE.c ****                 apiResult = CyBle_StackInit(&CyBle_EventHandler, cyBle_stackMemoryRam, 
 474:.\Generated_Source\PSoC4/CYBLE.c ****                     CYBLE_STACK_RAM_SIZE - CYBLE_GATT_PREPARE_WRITE_BUFF_LEN, cyBle_stackDataBuff, 
 475:.\Generated_Source\PSoC4/CYBLE.c ****                     CYBLE_STACK_APP_MIN_POOL, cyBle_flashStorage.stackFlashptr, CYBLE_STACK_FLASH_S
 476:.\Generated_Source\PSoC4/CYBLE.c ****             #else
 477:.\Generated_Source\PSoC4/CYBLE.c ****                 apiResult = CyBle_StackInit(&CyBle_EventHandler, cyBle_stackMemoryRam, 
 336              		.loc 1 477 0
 337 00ac 3E23     		mov	r3, #62
 338 00ae FC18     		add	r4, r7, r3
 339 00b0 1A48     		ldr	r0, .L12+12
 340 00b2 1B49     		ldr	r1, .L12+16
 341 00b4 AE23     		mov	r3, #174
 342 00b6 1A01     		lsl	r2, r3, #4
 343 00b8 2823     		mov	r3, #40
 344 00ba FD18     		add	r5, r7, r3
 345 00bc 0523     		mov	r3, #5
 346 00be 0093     		str	r3, [sp]
 347 00c0 0023     		mov	r3, #0
 348 00c2 0193     		str	r3, [sp, #4]
 349 00c4 0023     		mov	r3, #0
 350 00c6 0293     		str	r3, [sp, #8]
 351 00c8 2B1C     		mov	r3, r5
 352 00ca FFF7FEFF 		bl	CyBle_StackInit
 353 00ce 031C     		mov	r3, r0
 354 00d0 2380     		strh	r3, [r4]
 478:.\Generated_Source\PSoC4/CYBLE.c ****                     CYBLE_STACK_RAM_SIZE - CYBLE_GATT_PREPARE_WRITE_BUFF_LEN, cyBle_stackDataBuff, 
 479:.\Generated_Source\PSoC4/CYBLE.c ****                     CYBLE_STACK_APP_MIN_POOL, NULL, 0u);
 480:.\Generated_Source\PSoC4/CYBLE.c ****             #endif  /* CYBLE_BONDING_REQUIREMENT == CYBLE_BONDING_YES */
 481:.\Generated_Source\PSoC4/CYBLE.c ****         #else
 482:.\Generated_Source\PSoC4/CYBLE.c ****             apiResult = CyBle_StackInit(&CyBle_EventHandler, cyBle_stackMemoryRam, CYBLE_STACK_RAM_
 483:.\Generated_Source\PSoC4/CYBLE.c ****                 NULL, 0u, NULL, 0u);
 484:.\Generated_Source\PSoC4/CYBLE.c ****         #endif /* CYBLE_MODE_PROFILE */
 485:.\Generated_Source\PSoC4/CYBLE.c **** 
 486:.\Generated_Source\PSoC4/CYBLE.c ****             if(apiResult == CYBLE_ERROR_OK)
 355              		.loc 1 486 0
 356 00d2 3E23     		mov	r3, #62
 357 00d4 FB18     		add	r3, r7, r3
 358 00d6 1B88     		ldrh	r3, [r3]
 359 00d8 002B     		cmp	r3, #0
 360 00da 11D1     		bne	.L10
 487:.\Generated_Source\PSoC4/CYBLE.c ****             {
ARM GAS  C:\Users\sunyi\AppData\Local\Temp\ccXDbPBi.s 			page 16


 488:.\Generated_Source\PSoC4/CYBLE.c ****                 CyBle_SetState(CYBLE_STATE_INITIALIZING);
 361              		.loc 1 488 0
 362 00dc 114B     		ldr	r3, .L12+20
 363 00de 0122     		mov	r2, #1
 364 00e0 1A70     		strb	r2, [r3]
 489:.\Generated_Source\PSoC4/CYBLE.c ****                 
 490:.\Generated_Source\PSoC4/CYBLE.c ****             #if (CYBLE_GATT_ROLE_CLIENT)
 491:.\Generated_Source\PSoC4/CYBLE.c ****                 CyBle_SetClientState(CYBLE_CLIENT_STATE_DISCONNECTED);
 492:.\Generated_Source\PSoC4/CYBLE.c ****             #endif /* CYBLE_GATT_ROLE_CLIENT */
 493:.\Generated_Source\PSoC4/CYBLE.c ****                 
 494:.\Generated_Source\PSoC4/CYBLE.c ****             #if(CYBLE_GATT_ROLE_SERVER)
 495:.\Generated_Source\PSoC4/CYBLE.c ****                 apiResult = CyBle_GattsDbRegister(cyBle_gattDB, CYBLE_GATT_DB_INDEX_COUNT, CYBLE_GA
 365              		.loc 1 495 0
 366 00e2 3E23     		mov	r3, #62
 367 00e4 FC18     		add	r4, r7, r3
 368 00e6 104B     		ldr	r3, .L12+24
 369 00e8 181C     		mov	r0, r3
 370 00ea 1221     		mov	r1, #18
 371 00ec 1222     		mov	r2, #18
 372 00ee FFF7FEFF 		bl	CyBle_GattsDbRegister
 373 00f2 031C     		mov	r3, r0
 374 00f4 2380     		strh	r3, [r4]
 375 00f6 03E0     		b	.L10
 376              	.L7:
 496:.\Generated_Source\PSoC4/CYBLE.c ****             #endif /* CYBLE_GATT_ROLE_SERVER */
 497:.\Generated_Source\PSoC4/CYBLE.c ****             }
 498:.\Generated_Source\PSoC4/CYBLE.c ****         }
 499:.\Generated_Source\PSoC4/CYBLE.c ****     }
 500:.\Generated_Source\PSoC4/CYBLE.c ****     else
 501:.\Generated_Source\PSoC4/CYBLE.c ****     {
 502:.\Generated_Source\PSoC4/CYBLE.c ****         apiResult = CYBLE_ERROR_INVALID_PARAMETER;
 377              		.loc 1 502 0
 378 00f8 3E23     		mov	r3, #62
 379 00fa FB18     		add	r3, r7, r3
 380 00fc 0122     		mov	r2, #1
 381 00fe 1A80     		strh	r2, [r3]
 382              	.L10:
 503:.\Generated_Source\PSoC4/CYBLE.c ****     }
 504:.\Generated_Source\PSoC4/CYBLE.c **** 
 505:.\Generated_Source\PSoC4/CYBLE.c ****     return (apiResult);
 383              		.loc 1 505 0
 384 0100 3E23     		mov	r3, #62
 385 0102 FB18     		add	r3, r7, r3
 386 0104 1B88     		ldrh	r3, [r3]
 506:.\Generated_Source\PSoC4/CYBLE.c **** }
 387              		.loc 1 506 0
 388 0106 181C     		mov	r0, r3
 389 0108 BD46     		mov	sp, r7
 390 010a 10B0     		add	sp, sp, #64
 391              		@ sp needed
 392 010c B0BD     		pop	{r4, r5, r7, pc}
 393              	.L13:
 394 010e C046     		.align	2
 395              	.L12:
 396 0110 00000000 		.word	.LC0
 397 0114 00000000 		.word	cyBle_initVar
 398 0118 00000000 		.word	CyBle_ApplCallback
ARM GAS  C:\Users\sunyi\AppData\Local\Temp\ccXDbPBi.s 			page 17


 399 011c 00000000 		.word	CyBle_EventHandler
 400 0120 00000000 		.word	cyBle_stackMemoryRam
 401 0124 00000000 		.word	cyBle_state
 402 0128 00000000 		.word	cyBle_gattDB
 403              		.cfi_endproc
 404              	.LFE4:
 405              		.size	CyBle_Start, .-CyBle_Start
 406              		.section	.text.CyBle_Stop,"ax",%progbits
 407              		.align	2
 408              		.global	CyBle_Stop
 409              		.code	16
 410              		.thumb_func
 411              		.type	CyBle_Stop, %function
 412              	CyBle_Stop:
 413              	.LFB5:
 507:.\Generated_Source\PSoC4/CYBLE.c **** 
 508:.\Generated_Source\PSoC4/CYBLE.c **** 
 509:.\Generated_Source\PSoC4/CYBLE.c **** /******************************************************************************
 510:.\Generated_Source\PSoC4/CYBLE.c **** * Function Name: CyBle_Stop
 511:.\Generated_Source\PSoC4/CYBLE.c **** ***************************************************************************//**
 512:.\Generated_Source\PSoC4/CYBLE.c **** * 
 513:.\Generated_Source\PSoC4/CYBLE.c **** *  This function stops any ongoing operation in the BLE Stack and forces the 
 514:.\Generated_Source\PSoC4/CYBLE.c **** *  BLE Stack to shut down. The only function that can be called after calling
 515:.\Generated_Source\PSoC4/CYBLE.c **** *  this function is CyBle_Start(). 
 516:.\Generated_Source\PSoC4/CYBLE.c **** * 
 517:.\Generated_Source\PSoC4/CYBLE.c **** * \return
 518:.\Generated_Source\PSoC4/CYBLE.c **** *  None
 519:.\Generated_Source\PSoC4/CYBLE.c **** * 
 520:.\Generated_Source\PSoC4/CYBLE.c **** ******************************************************************************/
 521:.\Generated_Source\PSoC4/CYBLE.c **** void CyBle_Stop(void)
 522:.\Generated_Source\PSoC4/CYBLE.c **** {
 414              		.loc 1 522 0
 415              		.cfi_startproc
 416 0000 80B5     		push	{r7, lr}
 417              		.cfi_def_cfa_offset 8
 418              		.cfi_offset 7, -8
 419              		.cfi_offset 14, -4
 420 0002 00AF     		add	r7, sp, #0
 421              		.cfi_def_cfa_register 7
 523:.\Generated_Source\PSoC4/CYBLE.c ****     CyBle_Shutdown();                         /* Stop all ongoing activities */
 422              		.loc 1 523 0
 423 0004 FFF7FEFF 		bl	CyBle_Shutdown
 524:.\Generated_Source\PSoC4/CYBLE.c ****     CyBle_SetState(CYBLE_STATE_STOPPED);
 424              		.loc 1 524 0
 425 0008 024B     		ldr	r3, .L15
 426 000a 0022     		mov	r2, #0
 427 000c 1A70     		strb	r2, [r3]
 525:.\Generated_Source\PSoC4/CYBLE.c ****     #if(CYBLE_SHARING_MODE_EXPORT)
 526:.\Generated_Source\PSoC4/CYBLE.c ****         if(cyBle_stackMemoryRam != NULL)
 527:.\Generated_Source\PSoC4/CYBLE.c ****         {
 528:.\Generated_Source\PSoC4/CYBLE.c ****             free(cyBle_stackMemoryRam);
 529:.\Generated_Source\PSoC4/CYBLE.c ****         }
 530:.\Generated_Source\PSoC4/CYBLE.c ****     #endif /* CYBLE_SHARING_MODE_EXPORT */
 531:.\Generated_Source\PSoC4/CYBLE.c **** }
 428              		.loc 1 531 0
 429 000e BD46     		mov	sp, r7
 430              		@ sp needed
ARM GAS  C:\Users\sunyi\AppData\Local\Temp\ccXDbPBi.s 			page 18


 431 0010 80BD     		pop	{r7, pc}
 432              	.L16:
 433 0012 C046     		.align	2
 434              	.L15:
 435 0014 00000000 		.word	cyBle_state
 436              		.cfi_endproc
 437              	.LFE5:
 438              		.size	CyBle_Stop, .-CyBle_Stop
 439              		.section	.text.CyBle_GappStartAdvertisement,"ax",%progbits
 440              		.align	2
 441              		.global	CyBle_GappStartAdvertisement
 442              		.code	16
 443              		.thumb_func
 444              		.type	CyBle_GappStartAdvertisement, %function
 445              	CyBle_GappStartAdvertisement:
 446              	.LFB6:
 532:.\Generated_Source\PSoC4/CYBLE.c **** 
 533:.\Generated_Source\PSoC4/CYBLE.c **** 
 534:.\Generated_Source\PSoC4/CYBLE.c **** #if((CYBLE_GAP_ROLE_PERIPHERAL || CYBLE_GAP_ROLE_CENTRAL) && (CYBLE_BONDING_REQUIREMENT == CYBLE_BO
 535:.\Generated_Source\PSoC4/CYBLE.c **** 
 536:.\Generated_Source\PSoC4/CYBLE.c ****     
 537:.\Generated_Source\PSoC4/CYBLE.c **** /******************************************************************************
 538:.\Generated_Source\PSoC4/CYBLE.c **** * Function Name: CyBle_StoreBondingData
 539:.\Generated_Source\PSoC4/CYBLE.c **** ***************************************************************************//**
 540:.\Generated_Source\PSoC4/CYBLE.c **** * 
 541:.\Generated_Source\PSoC4/CYBLE.c **** *  This function writes the new bonding data from RAM to the dedicated Flash 
 542:.\Generated_Source\PSoC4/CYBLE.c **** *  location as defined by the component. It performs data comparing between RAM
 543:.\Generated_Source\PSoC4/CYBLE.c **** *  and Flash before writing to Flash. If there is no change between RAM and Flash
 544:.\Generated_Source\PSoC4/CYBLE.c **** *  data, then no write is performed. It writes only one flash row in one call.
 545:.\Generated_Source\PSoC4/CYBLE.c **** *  Application should keep calling this function till API return CYBLE_ERROR_OK. 
 546:.\Generated_Source\PSoC4/CYBLE.c **** *  This function is available only when Bonding requirement is selected in
 547:.\Generated_Source\PSoC4/CYBLE.c **** *  Security settings.    
 548:.\Generated_Source\PSoC4/CYBLE.c **** * 
 549:.\Generated_Source\PSoC4/CYBLE.c **** *  \param isForceWrite:  If value is set to 0, then stack will check if flash write 
 550:.\Generated_Source\PSoC4/CYBLE.c **** *                 is permissible. 
 551:.\Generated_Source\PSoC4/CYBLE.c **** *  
 552:.\Generated_Source\PSoC4/CYBLE.c **** * \return
 553:.\Generated_Source\PSoC4/CYBLE.c **** *  Return value is of type CYBLE_API_RESULT_T.
 554:.\Generated_Source\PSoC4/CYBLE.c **** *
 555:.\Generated_Source\PSoC4/CYBLE.c **** *   Errors codes                         | Description
 556:.\Generated_Source\PSoC4/CYBLE.c **** *   ----------------------------------   | ------------------------------------
 557:.\Generated_Source\PSoC4/CYBLE.c **** *   CYBLE_ERROR_OK                       | On successful operation
 558:.\Generated_Source\PSoC4/CYBLE.c **** *   CYBLE_ERROR_FLASH_WRITE_NOT_PERMITED | Flash Write is not complete
 559:.\Generated_Source\PSoC4/CYBLE.c **** *    
 560:.\Generated_Source\PSoC4/CYBLE.c **** *  \sideeffect
 561:.\Generated_Source\PSoC4/CYBLE.c **** *   For BLE devices with 128K of Flash memory this API will automatically 
 562:.\Generated_Source\PSoC4/CYBLE.c **** *   modify the clock settings for the device.
 563:.\Generated_Source\PSoC4/CYBLE.c **** *   Writing to flash requires changes to be done to the IMO (set to 48 MHz)
 564:.\Generated_Source\PSoC4/CYBLE.c **** *   and HFCLK (source set to IMO) settings. The configuration is restored before
 565:.\Generated_Source\PSoC4/CYBLE.c **** *   returning. This will impact the operation of most of the hardware in the
 566:.\Generated_Source\PSoC4/CYBLE.c **** *   device.
 567:.\Generated_Source\PSoC4/CYBLE.c **** * 
 568:.\Generated_Source\PSoC4/CYBLE.c **** *  \globalvars
 569:.\Generated_Source\PSoC4/CYBLE.c **** *   The cyBle_pendingFlashWrite variable is used to detect status
 570:.\Generated_Source\PSoC4/CYBLE.c **** *   of pending write to flash operation for stack data and CCCD.
 571:.\Generated_Source\PSoC4/CYBLE.c **** *   This API automatically clears pending bits after write operation complete.
 572:.\Generated_Source\PSoC4/CYBLE.c **** *     
ARM GAS  C:\Users\sunyi\AppData\Local\Temp\ccXDbPBi.s 			page 19


 573:.\Generated_Source\PSoC4/CYBLE.c **** ******************************************************************************/
 574:.\Generated_Source\PSoC4/CYBLE.c **** CYBLE_API_RESULT_T CyBle_StoreBondingData(uint8 isForceWrite)
 575:.\Generated_Source\PSoC4/CYBLE.c **** {
 576:.\Generated_Source\PSoC4/CYBLE.c ****     CYBLE_API_RESULT_T apiResult = CYBLE_ERROR_OK;
 577:.\Generated_Source\PSoC4/CYBLE.c ****     
 578:.\Generated_Source\PSoC4/CYBLE.c ****     /* Store Stack data */
 579:.\Generated_Source\PSoC4/CYBLE.c ****     if((cyBle_pendingFlashWrite & CYBLE_PENDING_STACK_FLASH_WRITE_BIT) != 0u)
 580:.\Generated_Source\PSoC4/CYBLE.c ****     {
 581:.\Generated_Source\PSoC4/CYBLE.c ****         apiResult = CyBle_StoreStackData(isForceWrite);
 582:.\Generated_Source\PSoC4/CYBLE.c ****         if(apiResult == CYBLE_ERROR_OK)
 583:.\Generated_Source\PSoC4/CYBLE.c ****         {
 584:.\Generated_Source\PSoC4/CYBLE.c ****             cyBle_pendingFlashWrite &= (uint8)~CYBLE_PENDING_STACK_FLASH_WRITE_BIT;
 585:.\Generated_Source\PSoC4/CYBLE.c ****             /* Change apiResult if there are more pending data to store */
 586:.\Generated_Source\PSoC4/CYBLE.c ****             if((cyBle_pendingFlashWrite & CYBLE_PENDING_CCCD_FLASH_WRITE_BIT) != 0u)
 587:.\Generated_Source\PSoC4/CYBLE.c ****             {
 588:.\Generated_Source\PSoC4/CYBLE.c ****                 apiResult = CYBLE_ERROR_FLASH_WRITE_NOT_PERMITED;
 589:.\Generated_Source\PSoC4/CYBLE.c ****             }
 590:.\Generated_Source\PSoC4/CYBLE.c ****         }
 591:.\Generated_Source\PSoC4/CYBLE.c ****     }
 592:.\Generated_Source\PSoC4/CYBLE.c **** #if(CYBLE_GATT_DB_CCCD_COUNT != 0u)
 593:.\Generated_Source\PSoC4/CYBLE.c ****     /* Store CCCD values */
 594:.\Generated_Source\PSoC4/CYBLE.c ****     if( ((apiResult == CYBLE_ERROR_OK) || (isForceWrite != 0u)) && 
 595:.\Generated_Source\PSoC4/CYBLE.c ****         ((cyBle_pendingFlashWrite & CYBLE_PENDING_CCCD_FLASH_WRITE_BIT) != 0u) &&
 596:.\Generated_Source\PSoC4/CYBLE.c ****         (cyBle_connHandle.bdHandle <= CYBLE_GAP_MAX_BONDED_DEVICE))
 597:.\Generated_Source\PSoC4/CYBLE.c ****     {
 598:.\Generated_Source\PSoC4/CYBLE.c ****         apiResult = CyBle_StoreAppData(cyBle_attValuesCCCD, cyBle_flashStorage.attValuesCCCDFlashMe
 599:.\Generated_Source\PSoC4/CYBLE.c ****                         cyBle_connHandle.bdHandle], CYBLE_GATT_DB_CCCD_COUNT, isForceWrite);
 600:.\Generated_Source\PSoC4/CYBLE.c ****         if(apiResult == CYBLE_ERROR_OK)
 601:.\Generated_Source\PSoC4/CYBLE.c ****         {
 602:.\Generated_Source\PSoC4/CYBLE.c ****             cyBle_pendingFlashWrite &= (uint8)~CYBLE_PENDING_CCCD_FLASH_WRITE_BIT;
 603:.\Generated_Source\PSoC4/CYBLE.c ****         }
 604:.\Generated_Source\PSoC4/CYBLE.c ****     }
 605:.\Generated_Source\PSoC4/CYBLE.c ****     /* Clear requested CCCD values */
 606:.\Generated_Source\PSoC4/CYBLE.c ****     if( ((apiResult == CYBLE_ERROR_OK) || (isForceWrite != 0u)) && 
 607:.\Generated_Source\PSoC4/CYBLE.c ****         ((cyBle_pendingFlashWrite & CYBLE_PENDING_CCCD_FLASH_CLEAR_MASK) != 0u) )
 608:.\Generated_Source\PSoC4/CYBLE.c ****     {
 609:.\Generated_Source\PSoC4/CYBLE.c ****         if((cyBle_pendingFlashWrite & CYBLE_PENDING_CCCD_FLASH_CLEAR_ALL_BIT) != 0u)
 610:.\Generated_Source\PSoC4/CYBLE.c ****         {
 611:.\Generated_Source\PSoC4/CYBLE.c ****             /* Remove cccd values for all bonded devices */
 612:.\Generated_Source\PSoC4/CYBLE.c ****             uint8 defaultValuesCCCD[CYBLE_GAP_MAX_BONDED_DEVICE + 1u][CYBLE_GATT_DB_CCCD_COUNT];
 613:.\Generated_Source\PSoC4/CYBLE.c ****             
 614:.\Generated_Source\PSoC4/CYBLE.c ****             (void)memset(defaultValuesCCCD, 0, sizeof(defaultValuesCCCD));
 615:.\Generated_Source\PSoC4/CYBLE.c **** 
 616:.\Generated_Source\PSoC4/CYBLE.c ****             apiResult = CyBle_StoreAppData((uint8 *)defaultValuesCCCD, 
 617:.\Generated_Source\PSoC4/CYBLE.c ****                 (const uint8 *)cyBle_flashStorage.attValuesCCCDFlashMemory, sizeof(defaultValuesCCC
 618:.\Generated_Source\PSoC4/CYBLE.c ****             if(apiResult == CYBLE_ERROR_OK)
 619:.\Generated_Source\PSoC4/CYBLE.c ****             {
 620:.\Generated_Source\PSoC4/CYBLE.c ****                 cyBle_pendingFlashWrite &= (uint8)~CYBLE_PENDING_CCCD_FLASH_CLEAR_ALL_BIT;
 621:.\Generated_Source\PSoC4/CYBLE.c ****             }
 622:.\Generated_Source\PSoC4/CYBLE.c ****         }
 623:.\Generated_Source\PSoC4/CYBLE.c ****         else /* Remove cccd values for particular device */
 624:.\Generated_Source\PSoC4/CYBLE.c ****         {
 625:.\Generated_Source\PSoC4/CYBLE.c ****             uint8 defaultValuesCCCD[CYBLE_GATT_DB_CCCD_COUNT] = {0u};
 626:.\Generated_Source\PSoC4/CYBLE.c ****             
 627:.\Generated_Source\PSoC4/CYBLE.c ****             apiResult = CyBle_StoreAppData(defaultValuesCCCD, cyBle_flashStorage.attValuesCCCDFlash
 628:.\Generated_Source\PSoC4/CYBLE.c ****                                     cyBle_pendingFlashClearCccdHandle], CYBLE_GATT_DB_CCCD_COUNT, i
 629:.\Generated_Source\PSoC4/CYBLE.c ****             if(apiResult == CYBLE_ERROR_OK)
ARM GAS  C:\Users\sunyi\AppData\Local\Temp\ccXDbPBi.s 			page 20


 630:.\Generated_Source\PSoC4/CYBLE.c ****             {
 631:.\Generated_Source\PSoC4/CYBLE.c ****                 cyBle_pendingFlashWrite &= (uint8)~CYBLE_PENDING_CCCD_FLASH_CLEAR_BIT;
 632:.\Generated_Source\PSoC4/CYBLE.c ****             }
 633:.\Generated_Source\PSoC4/CYBLE.c ****         }
 634:.\Generated_Source\PSoC4/CYBLE.c ****     }
 635:.\Generated_Source\PSoC4/CYBLE.c **** #endif /* CYBLE_GATT_DB_CCCD_COUNT != 0u */
 636:.\Generated_Source\PSoC4/CYBLE.c ****     return(apiResult);
 637:.\Generated_Source\PSoC4/CYBLE.c **** }
 638:.\Generated_Source\PSoC4/CYBLE.c **** 
 639:.\Generated_Source\PSoC4/CYBLE.c **** 
 640:.\Generated_Source\PSoC4/CYBLE.c **** /******************************************************************************
 641:.\Generated_Source\PSoC4/CYBLE.c **** * Function Name: CyBle_GapRemoveBondedDevice
 642:.\Generated_Source\PSoC4/CYBLE.c **** ***************************************************************************//**
 643:.\Generated_Source\PSoC4/CYBLE.c **** * 
 644:.\Generated_Source\PSoC4/CYBLE.c **** *  This function marks the device untrusted. It removes the bonding information
 645:.\Generated_Source\PSoC4/CYBLE.c **** *  of the device including CCCD values. This function removes device from the
 646:.\Generated_Source\PSoC4/CYBLE.c **** *  white list also when autopopulate white list with bonded devices option is
 647:.\Generated_Source\PSoC4/CYBLE.c **** *  enabled.
 648:.\Generated_Source\PSoC4/CYBLE.c **** * 
 649:.\Generated_Source\PSoC4/CYBLE.c **** *  This function is available only when Bonding requirement is selected in
 650:.\Generated_Source\PSoC4/CYBLE.c **** *  Security settings.    
 651:.\Generated_Source\PSoC4/CYBLE.c **** *
 652:.\Generated_Source\PSoC4/CYBLE.c **** *  \param bdAddr: Pointer to peer device address, of type CYBLE_GAP_BD_ADDR_T.
 653:.\Generated_Source\PSoC4/CYBLE.c **** *                 If device address is set to 0, then all devices shall be
 654:.\Generated_Source\PSoC4/CYBLE.c **** *                 removed from trusted list and white list.
 655:.\Generated_Source\PSoC4/CYBLE.c **** *
 656:.\Generated_Source\PSoC4/CYBLE.c **** * \return
 657:.\Generated_Source\PSoC4/CYBLE.c **** *  CYBLE_API_RESULT_T : Return value indicates if the function succeeded or
 658:.\Generated_Source\PSoC4/CYBLE.c **** *  failed. Following are the possible error codes.
 659:.\Generated_Source\PSoC4/CYBLE.c **** *
 660:.\Generated_Source\PSoC4/CYBLE.c **** *   Errors codes                     | Description
 661:.\Generated_Source\PSoC4/CYBLE.c **** *   ---------------------------------| ------------------------------------
 662:.\Generated_Source\PSoC4/CYBLE.c **** *   CYBLE_ERROR_OK                   | On successful operation.
 663:.\Generated_Source\PSoC4/CYBLE.c **** *   CYBLE_ERROR_INVALID_PARAMETER    | On specifying NULL as input parameter for 'bdAddr'.
 664:.\Generated_Source\PSoC4/CYBLE.c **** *   CYBLE_ERROR_INVALID_OPERATION    | Whitelist is already in use or there is pending write to fla
 665:.\Generated_Source\PSoC4/CYBLE.c **** *   CYBLE_ERROR_NO_DEVICE_ENTITY     | Device does not exist in the bond list.
 666:.\Generated_Source\PSoC4/CYBLE.c **** *
 667:.\Generated_Source\PSoC4/CYBLE.c **** *  \globalvars
 668:.\Generated_Source\PSoC4/CYBLE.c **** *   The bdHandle is set in cyBle_pendingFlashWrite variable to indicate that
 669:.\Generated_Source\PSoC4/CYBLE.c **** *   data should be stored to flash by CyBle_StoreBondingData afterwards. 
 670:.\Generated_Source\PSoC4/CYBLE.c **** *     
 671:.\Generated_Source\PSoC4/CYBLE.c **** ******************************************************************************/
 672:.\Generated_Source\PSoC4/CYBLE.c **** CYBLE_API_RESULT_T CyBle_GapRemoveBondedDevice(CYBLE_GAP_BD_ADDR_T* bdAddr)
 673:.\Generated_Source\PSoC4/CYBLE.c **** {
 674:.\Generated_Source\PSoC4/CYBLE.c ****     CYBLE_API_RESULT_T apiResult = CYBLE_ERROR_OK;
 675:.\Generated_Source\PSoC4/CYBLE.c ****     
 676:.\Generated_Source\PSoC4/CYBLE.c ****     if(cyBle_pendingFlashWrite == 0u)
 677:.\Generated_Source\PSoC4/CYBLE.c ****     {
 678:.\Generated_Source\PSoC4/CYBLE.c ****         
 679:.\Generated_Source\PSoC4/CYBLE.c ****     #if(CYBLE_GATT_DB_CCCD_COUNT != 0u)
 680:.\Generated_Source\PSoC4/CYBLE.c ****         /* Request to clear CCCD values which will be done by CyBle_StoreBondingData API */
 681:.\Generated_Source\PSoC4/CYBLE.c ****         uint8 bDevHandle;
 682:.\Generated_Source\PSoC4/CYBLE.c ****         CYBLE_GAP_BD_ADDR_T invalidBdAddr = {{0u,0u,0u,0u,0u,0u}, 0u};
 683:.\Generated_Source\PSoC4/CYBLE.c **** 
 684:.\Generated_Source\PSoC4/CYBLE.c ****         if(memcmp(((uint8 *) &(bdAddr->bdAddr)), ((uint8 *) &(invalidBdAddr.bdAddr)), CYBLE_GAP_BD_
 685:.\Generated_Source\PSoC4/CYBLE.c **** 	    {
 686:.\Generated_Source\PSoC4/CYBLE.c ****             /* Request to remove all bonded devices by cyBle_StoreBondingData API */
ARM GAS  C:\Users\sunyi\AppData\Local\Temp\ccXDbPBi.s 			page 21


 687:.\Generated_Source\PSoC4/CYBLE.c ****             cyBle_pendingFlashWrite |= CYBLE_PENDING_CCCD_FLASH_CLEAR_ALL_BIT;
 688:.\Generated_Source\PSoC4/CYBLE.c ****         }
 689:.\Generated_Source\PSoC4/CYBLE.c ****         else
 690:.\Generated_Source\PSoC4/CYBLE.c ****         {
 691:.\Generated_Source\PSoC4/CYBLE.c ****             /* Get the BD handle from Address */
 692:.\Generated_Source\PSoC4/CYBLE.c ****             apiResult = CyBle_GapGetPeerBdHandle(&bDevHandle, bdAddr);
 693:.\Generated_Source\PSoC4/CYBLE.c ****             if(apiResult == CYBLE_ERROR_OK)
 694:.\Generated_Source\PSoC4/CYBLE.c ****             {
 695:.\Generated_Source\PSoC4/CYBLE.c ****                 /* Store BD handle to clear cccd values by CyBle_StoreBondingData API */
 696:.\Generated_Source\PSoC4/CYBLE.c ****                 cyBle_pendingFlashWrite |= CYBLE_PENDING_CCCD_FLASH_CLEAR_BIT;
 697:.\Generated_Source\PSoC4/CYBLE.c ****                 cyBle_pendingFlashClearCccdHandle = bDevHandle;
 698:.\Generated_Source\PSoC4/CYBLE.c ****             }
 699:.\Generated_Source\PSoC4/CYBLE.c ****         }
 700:.\Generated_Source\PSoC4/CYBLE.c ****         if(apiResult == CYBLE_ERROR_OK)
 701:.\Generated_Source\PSoC4/CYBLE.c ****         {
 702:.\Generated_Source\PSoC4/CYBLE.c ****             #if(CYBLE_AUTO_POPULATE_WHITELIST != 0u)
 703:.\Generated_Source\PSoC4/CYBLE.c ****                 apiResult = CyBle_GapRemoveDeviceFromWhiteList(bdAddr);
 704:.\Generated_Source\PSoC4/CYBLE.c ****             #else
 705:.\Generated_Source\PSoC4/CYBLE.c ****                 apiResult = CyBle_GapRemDeviceFromBondList(bdAddr);
 706:.\Generated_Source\PSoC4/CYBLE.c ****             #endif
 707:.\Generated_Source\PSoC4/CYBLE.c ****         }
 708:.\Generated_Source\PSoC4/CYBLE.c ****     #endif /* CYBLE_GATT_DB_CCCD_COUNT != 0u */
 709:.\Generated_Source\PSoC4/CYBLE.c ****     }
 710:.\Generated_Source\PSoC4/CYBLE.c ****     else
 711:.\Generated_Source\PSoC4/CYBLE.c ****     {
 712:.\Generated_Source\PSoC4/CYBLE.c ****         apiResult = CYBLE_ERROR_INVALID_OPERATION;
 713:.\Generated_Source\PSoC4/CYBLE.c ****     }
 714:.\Generated_Source\PSoC4/CYBLE.c ****     
 715:.\Generated_Source\PSoC4/CYBLE.c ****     return(apiResult);
 716:.\Generated_Source\PSoC4/CYBLE.c **** }
 717:.\Generated_Source\PSoC4/CYBLE.c **** 
 718:.\Generated_Source\PSoC4/CYBLE.c **** 
 719:.\Generated_Source\PSoC4/CYBLE.c **** #endif /* (CYBLE_GAP_ROLE_PERIPHERAL || CYBLE_GAP_ROLE_CENTRAL) && (CYBLE_BONDING_REQUIREMENT == CY
 720:.\Generated_Source\PSoC4/CYBLE.c **** 
 721:.\Generated_Source\PSoC4/CYBLE.c **** 
 722:.\Generated_Source\PSoC4/CYBLE.c **** #if(CYBLE_GAP_ROLE_PERIPHERAL || CYBLE_GAP_ROLE_BROADCASTER)
 723:.\Generated_Source\PSoC4/CYBLE.c **** 
 724:.\Generated_Source\PSoC4/CYBLE.c ****     /******************************************************************************
 725:.\Generated_Source\PSoC4/CYBLE.c ****     *  Function Name: CyBle_GappStartAdvertisement
 726:.\Generated_Source\PSoC4/CYBLE.c ****     ***************************************************************************//**
 727:.\Generated_Source\PSoC4/CYBLE.c ****     *     
 728:.\Generated_Source\PSoC4/CYBLE.c ****     *  This function is used to start the advertisement using the advertisement data 
 729:.\Generated_Source\PSoC4/CYBLE.c ****     *  set in the component customizer's GUI. After invoking this API, the device 
 730:.\Generated_Source\PSoC4/CYBLE.c ****     *  will be available for connection by the devices configured for GAP central 
 731:.\Generated_Source\PSoC4/CYBLE.c ****     *  role. It is only included if the device is configured for GAP Peripheral or 
 732:.\Generated_Source\PSoC4/CYBLE.c ****     *  GAP Peripheral + Central role.
 733:.\Generated_Source\PSoC4/CYBLE.c ****     *  
 734:.\Generated_Source\PSoC4/CYBLE.c ****     *  On start of advertisement, GAP Peripheral receives the
 735:.\Generated_Source\PSoC4/CYBLE.c ****     *  CYBLE_EVT_GAPP_ADVERTISEMENT_START_STOP event. The following events are 
 736:.\Generated_Source\PSoC4/CYBLE.c ****     *  possible on invoking this function:
 737:.\Generated_Source\PSoC4/CYBLE.c ****     *  
 738:.\Generated_Source\PSoC4/CYBLE.c ****     *  * CYBLE_EVT_GAP_DEVICE_CONNECTED - If the device connects to a GAP Central and 
 739:.\Generated_Source\PSoC4/CYBLE.c ****     *    Link Layer Privacy is disabled in component customizer.
 740:.\Generated_Source\PSoC4/CYBLE.c ****     *  * CYBLE_EVT_GAP_ENHANCE_CONN_COMPLETE - If the device connects to a GAP Central and 
 741:.\Generated_Source\PSoC4/CYBLE.c ****     *    Link Layer Privacy is enabled in component customizer.
 742:.\Generated_Source\PSoC4/CYBLE.c ****     *  * CYBLE_EVT_TIMEOUT: If no device in GAP Central mode connects to this 
 743:.\Generated_Source\PSoC4/CYBLE.c ****     *                       device within the specified timeout limit. Stack 
ARM GAS  C:\Users\sunyi\AppData\Local\Temp\ccXDbPBi.s 			page 22


 744:.\Generated_Source\PSoC4/CYBLE.c ****     *                       automatically initiate stop advertising when Slow 
 745:.\Generated_Source\PSoC4/CYBLE.c ****     *                       advertising was initiated, or starts Slow advertising
 746:.\Generated_Source\PSoC4/CYBLE.c ****     *                       after Fast advertising timeout occur.
 747:.\Generated_Source\PSoC4/CYBLE.c ****     *  * CYBLE_EVT_GAPP_ADVERTISEMENT_START_STOP: If device started or stopped
 748:.\Generated_Source\PSoC4/CYBLE.c ****     *                                               advertising. Use CyBle_GetState()
 749:.\Generated_Source\PSoC4/CYBLE.c ****     *                                               to determine the state. Sequential 
 750:.\Generated_Source\PSoC4/CYBLE.c ****     *                                               advertising could be started when
 751:.\Generated_Source\PSoC4/CYBLE.c ****     *                                               CYBLE_STATE_DISCONNECTED state is
 752:.\Generated_Source\PSoC4/CYBLE.c ****     *                                               returned.
 753:.\Generated_Source\PSoC4/CYBLE.c ****     * 
 754:.\Generated_Source\PSoC4/CYBLE.c ****     *  \param advertisingIntervalType: Fast or slow advertising interval with timings
 755:.\Generated_Source\PSoC4/CYBLE.c ****     *                                 entered in Advertising settings section of the
 756:.\Generated_Source\PSoC4/CYBLE.c ****     *                                 customizer.
 757:.\Generated_Source\PSoC4/CYBLE.c ****     *  * CYBLE_ADVERTISING_FAST   0x00u
 758:.\Generated_Source\PSoC4/CYBLE.c ****     *  * CYBLE_ADVERTISING_SLOW   0x01u
 759:.\Generated_Source\PSoC4/CYBLE.c ****     *  * CYBLE_ADVERTISING_CUSTOM 0x02u
 760:.\Generated_Source\PSoC4/CYBLE.c ****     * 
 761:.\Generated_Source\PSoC4/CYBLE.c ****     * \return
 762:.\Generated_Source\PSoC4/CYBLE.c ****     *  CYBLE_API_RESULT_T : Return value indicates if the function succeeded or
 763:.\Generated_Source\PSoC4/CYBLE.c ****     *  failed. Following are the possible error codes.
 764:.\Generated_Source\PSoC4/CYBLE.c ****     * 
 765:.\Generated_Source\PSoC4/CYBLE.c ****     *   Errors codes                      |  Description
 766:.\Generated_Source\PSoC4/CYBLE.c ****     *   --------------------------------- |  --------------------------------
 767:.\Generated_Source\PSoC4/CYBLE.c ****     *   CYBLE_ERROR_OK                    |  On successful operation.
 768:.\Generated_Source\PSoC4/CYBLE.c ****     *   CYBLE_ERROR_INVALID_PARAMETER     |  On passing an invalid parameter.
 769:.\Generated_Source\PSoC4/CYBLE.c ****     *   CYBLE_ERROR_INVALID_STATE         |  On calling this API not in Disconnected state.
 770:.\Generated_Source\PSoC4/CYBLE.c ****     *
 771:.\Generated_Source\PSoC4/CYBLE.c ****     * 
 772:.\Generated_Source\PSoC4/CYBLE.c ****     *******************************************************************************/
 773:.\Generated_Source\PSoC4/CYBLE.c ****     CYBLE_API_RESULT_T CyBle_GappStartAdvertisement(uint8 advertisingIntervalType)
 774:.\Generated_Source\PSoC4/CYBLE.c ****     {
 447              		.loc 1 774 0
 448              		.cfi_startproc
 449 0000 90B5     		push	{r4, r7, lr}
 450              		.cfi_def_cfa_offset 12
 451              		.cfi_offset 4, -12
 452              		.cfi_offset 7, -8
 453              		.cfi_offset 14, -4
 454 0002 85B0     		sub	sp, sp, #20
 455              		.cfi_def_cfa_offset 32
 456 0004 00AF     		add	r7, sp, #0
 457              		.cfi_def_cfa_register 7
 458 0006 021C     		mov	r2, r0
 459 0008 FB1D     		add	r3, r7, #7
 460 000a 1A70     		strb	r2, [r3]
 775:.\Generated_Source\PSoC4/CYBLE.c ****         CYBLE_API_RESULT_T apiResult;
 776:.\Generated_Source\PSoC4/CYBLE.c ****         
 777:.\Generated_Source\PSoC4/CYBLE.c ****         if(advertisingIntervalType > CYBLE_ADVERTISING_CUSTOM)
 461              		.loc 1 777 0
 462 000c FB1D     		add	r3, r7, #7
 463 000e 1B78     		ldrb	r3, [r3]
 464 0010 022B     		cmp	r3, #2
 465 0012 04D9     		bls	.L18
 778:.\Generated_Source\PSoC4/CYBLE.c ****         {
 779:.\Generated_Source\PSoC4/CYBLE.c ****             apiResult = CYBLE_ERROR_INVALID_PARAMETER;
 466              		.loc 1 779 0
 467 0014 0E23     		mov	r3, #14
ARM GAS  C:\Users\sunyi\AppData\Local\Temp\ccXDbPBi.s 			page 23


 468 0016 FB18     		add	r3, r7, r3
 469 0018 0122     		mov	r2, #1
 470 001a 1A80     		strh	r2, [r3]
 471 001c 4BE0     		b	.L19
 472              	.L18:
 780:.\Generated_Source\PSoC4/CYBLE.c ****         }
 781:.\Generated_Source\PSoC4/CYBLE.c ****         else if((CYBLE_STATE_DISCONNECTED == CyBle_GetState()) && ((cyBle_eventHandlerFlag & CYBLE_
 473              		.loc 1 781 0
 474 001e 294B     		ldr	r3, .L25
 475 0020 1B78     		ldrb	r3, [r3]
 476 0022 042B     		cmp	r3, #4
 477 0024 42D1     		bne	.L20
 478              		.loc 1 781 0 is_stmt 0 discriminator 1
 479 0026 284B     		ldr	r3, .L25+4
 480 0028 1B78     		ldrb	r3, [r3]
 481 002a DBB2     		uxtb	r3, r3
 482 002c 1A1C     		mov	r2, r3
 483 002e 0423     		mov	r3, #4
 484 0030 1340     		and	r3, r2
 485 0032 3BD1     		bne	.L20
 782:.\Generated_Source\PSoC4/CYBLE.c ****         {   
 783:.\Generated_Source\PSoC4/CYBLE.c ****             if(advertisingIntervalType == CYBLE_ADVERTISING_FAST)
 486              		.loc 1 783 0 is_stmt 1
 487 0034 FB1D     		add	r3, r7, #7
 488 0036 1B78     		ldrb	r3, [r3]
 489 0038 002B     		cmp	r3, #0
 490 003a 0BD1     		bne	.L21
 784:.\Generated_Source\PSoC4/CYBLE.c ****             {
 785:.\Generated_Source\PSoC4/CYBLE.c ****                 cyBle_discoveryModeInfo.advTo = CYBLE_FAST_ADV_TIMEOUT;
 491              		.loc 1 785 0
 492 003c 234B     		ldr	r3, .L25+8
 493 003e 1E22     		mov	r2, #30
 494 0040 1A82     		strh	r2, [r3, #16]
 786:.\Generated_Source\PSoC4/CYBLE.c ****                 cyBle_discoveryModeInfo.advParam->advIntvMin = CYBLE_FAST_ADV_INT_MIN;
 495              		.loc 1 786 0
 496 0042 224B     		ldr	r3, .L25+8
 497 0044 5B68     		ldr	r3, [r3, #4]
 498 0046 2022     		mov	r2, #32
 499 0048 1A80     		strh	r2, [r3]
 787:.\Generated_Source\PSoC4/CYBLE.c ****                 cyBle_discoveryModeInfo.advParam->advIntvMax = CYBLE_FAST_ADV_INT_MAX;
 500              		.loc 1 787 0
 501 004a 204B     		ldr	r3, .L25+8
 502 004c 5B68     		ldr	r3, [r3, #4]
 503 004e 3022     		mov	r2, #48
 504 0050 5A80     		strh	r2, [r3, #2]
 505 0052 10E0     		b	.L22
 506              	.L21:
 788:.\Generated_Source\PSoC4/CYBLE.c ****             }
 789:.\Generated_Source\PSoC4/CYBLE.c ****             else if(advertisingIntervalType == CYBLE_ADVERTISING_SLOW)
 507              		.loc 1 789 0
 508 0054 FB1D     		add	r3, r7, #7
 509 0056 1B78     		ldrb	r3, [r3]
 510 0058 012B     		cmp	r3, #1
 511 005a 0CD1     		bne	.L22
 790:.\Generated_Source\PSoC4/CYBLE.c ****             {
 791:.\Generated_Source\PSoC4/CYBLE.c ****                 cyBle_discoveryModeInfo.advTo = CYBLE_SLOW_ADV_TIMEOUT;
 512              		.loc 1 791 0
ARM GAS  C:\Users\sunyi\AppData\Local\Temp\ccXDbPBi.s 			page 24


 513 005c 1B4B     		ldr	r3, .L25+8
 514 005e 9622     		mov	r2, #150
 515 0060 1A82     		strh	r2, [r3, #16]
 792:.\Generated_Source\PSoC4/CYBLE.c ****                 cyBle_discoveryModeInfo.advParam->advIntvMin = CYBLE_SLOW_ADV_INT_MIN;
 516              		.loc 1 792 0
 517 0062 1A4B     		ldr	r3, .L25+8
 518 0064 5B68     		ldr	r3, [r3, #4]
 519 0066 C822     		mov	r2, #200
 520 0068 D200     		lsl	r2, r2, #3
 521 006a 1A80     		strh	r2, [r3]
 793:.\Generated_Source\PSoC4/CYBLE.c ****                 cyBle_discoveryModeInfo.advParam->advIntvMax = CYBLE_SLOW_ADV_INT_MAX;
 522              		.loc 1 793 0
 523 006c 174B     		ldr	r3, .L25+8
 524 006e 5B68     		ldr	r3, [r3, #4]
 525 0070 8022     		mov	r2, #128
 526 0072 D201     		lsl	r2, r2, #7
 527 0074 5A80     		strh	r2, [r3, #2]
 528              	.L22:
 794:.\Generated_Source\PSoC4/CYBLE.c ****             }       
 795:.\Generated_Source\PSoC4/CYBLE.c ****             else /* Do not update advertising intervals */
 796:.\Generated_Source\PSoC4/CYBLE.c ****             {
 797:.\Generated_Source\PSoC4/CYBLE.c ****             }
 798:.\Generated_Source\PSoC4/CYBLE.c ****             cyBle_advertisingIntervalType = advertisingIntervalType;
 529              		.loc 1 798 0
 530 0076 164B     		ldr	r3, .L25+12
 531 0078 FA1D     		add	r2, r7, #7
 532 007a 1278     		ldrb	r2, [r2]
 533 007c 1A70     		strb	r2, [r3]
 799:.\Generated_Source\PSoC4/CYBLE.c ****             apiResult = CyBle_GappEnterDiscoveryMode(&cyBle_discoveryModeInfo);
 534              		.loc 1 799 0
 535 007e 0E23     		mov	r3, #14
 536 0080 FC18     		add	r4, r7, r3
 537 0082 124B     		ldr	r3, .L25+8
 538 0084 181C     		mov	r0, r3
 539 0086 FFF7FEFF 		bl	CyBle_GappEnterDiscoveryMode
 540 008a 031C     		mov	r3, r0
 541 008c 2380     		strh	r3, [r4]
 800:.\Generated_Source\PSoC4/CYBLE.c ****         
 801:.\Generated_Source\PSoC4/CYBLE.c ****             if(CYBLE_ERROR_OK == apiResult)
 542              		.loc 1 801 0
 543 008e 0E23     		mov	r3, #14
 544 0090 FB18     		add	r3, r7, r3
 545 0092 1B88     		ldrh	r3, [r3]
 546 0094 002B     		cmp	r3, #0
 547 0096 08D1     		bne	.L23
 802:.\Generated_Source\PSoC4/CYBLE.c ****             {
 803:.\Generated_Source\PSoC4/CYBLE.c ****                 cyBle_eventHandlerFlag |= CYBLE_START_FLAG;
 548              		.loc 1 803 0
 549 0098 0B4B     		ldr	r3, .L25+4
 550 009a 1B78     		ldrb	r3, [r3]
 551 009c DBB2     		uxtb	r3, r3
 552 009e 0422     		mov	r2, #4
 553 00a0 1343     		orr	r3, r2
 554 00a2 DAB2     		uxtb	r2, r3
 555 00a4 084B     		ldr	r3, .L25+4
 556 00a6 1A70     		strb	r2, [r3]
 801:.\Generated_Source\PSoC4/CYBLE.c ****             {
ARM GAS  C:\Users\sunyi\AppData\Local\Temp\ccXDbPBi.s 			page 25


 557              		.loc 1 801 0
 558 00a8 05E0     		b	.L19
 559              	.L23:
 560 00aa 04E0     		b	.L19
 561              	.L20:
 804:.\Generated_Source\PSoC4/CYBLE.c ****             }
 805:.\Generated_Source\PSoC4/CYBLE.c ****         }
 806:.\Generated_Source\PSoC4/CYBLE.c ****         else
 807:.\Generated_Source\PSoC4/CYBLE.c ****         {
 808:.\Generated_Source\PSoC4/CYBLE.c ****             apiResult = CYBLE_ERROR_INVALID_STATE;
 562              		.loc 1 808 0
 563 00ac 0E23     		mov	r3, #14
 564 00ae FB18     		add	r3, r7, r3
 565 00b0 0422     		mov	r2, #4
 566 00b2 FF32     		add	r2, r2, #255
 567 00b4 1A80     		strh	r2, [r3]
 568              	.L19:
 809:.\Generated_Source\PSoC4/CYBLE.c ****         }
 810:.\Generated_Source\PSoC4/CYBLE.c **** 
 811:.\Generated_Source\PSoC4/CYBLE.c ****         return (apiResult);
 569              		.loc 1 811 0
 570 00b6 0E23     		mov	r3, #14
 571 00b8 FB18     		add	r3, r7, r3
 572 00ba 1B88     		ldrh	r3, [r3]
 812:.\Generated_Source\PSoC4/CYBLE.c ****     }
 573              		.loc 1 812 0
 574 00bc 181C     		mov	r0, r3
 575 00be BD46     		mov	sp, r7
 576 00c0 05B0     		add	sp, sp, #20
 577              		@ sp needed
 578 00c2 90BD     		pop	{r4, r7, pc}
 579              	.L26:
 580              		.align	2
 581              	.L25:
 582 00c4 00000000 		.word	cyBle_state
 583 00c8 00000000 		.word	cyBle_eventHandlerFlag
 584 00cc 00000000 		.word	cyBle_discoveryModeInfo
 585 00d0 00000000 		.word	cyBle_advertisingIntervalType
 586              		.cfi_endproc
 587              	.LFE6:
 588              		.size	CyBle_GappStartAdvertisement, .-CyBle_GappStartAdvertisement
 589              		.section	.text.CyBle_GappStopAdvertisement,"ax",%progbits
 590              		.align	2
 591              		.global	CyBle_GappStopAdvertisement
 592              		.code	16
 593              		.thumb_func
 594              		.type	CyBle_GappStopAdvertisement, %function
 595              	CyBle_GappStopAdvertisement:
 596              	.LFB7:
 813:.\Generated_Source\PSoC4/CYBLE.c **** 
 814:.\Generated_Source\PSoC4/CYBLE.c ****     
 815:.\Generated_Source\PSoC4/CYBLE.c ****     /******************************************************************************
 816:.\Generated_Source\PSoC4/CYBLE.c ****     * Function Name: CyBle_GappStopAdvertisement
 817:.\Generated_Source\PSoC4/CYBLE.c ****     ***************************************************************************//**
 818:.\Generated_Source\PSoC4/CYBLE.c ****     * 
 819:.\Generated_Source\PSoC4/CYBLE.c ****     *   This function can be used to exit from discovery mode. After the execution 
 820:.\Generated_Source\PSoC4/CYBLE.c ****     *   of this function, there will no longer be any advertisements. On stopping 
ARM GAS  C:\Users\sunyi\AppData\Local\Temp\ccXDbPBi.s 			page 26


 821:.\Generated_Source\PSoC4/CYBLE.c ****     *   advertising, GAP Peripheral receives CYBLE_EVT_GAPP_ADVERTISEMENT_START_STOP
 822:.\Generated_Source\PSoC4/CYBLE.c ****     *   event. It is expected that the application layer tracks the function call 
 823:.\Generated_Source\PSoC4/CYBLE.c ****     *   performed before occurrence of this event as this event can occur on making 
 824:.\Generated_Source\PSoC4/CYBLE.c ****     *   a call to Cy_BleGappStartAdvertisement(), CyBle_GappEnterDiscoveryMode(), 
 825:.\Generated_Source\PSoC4/CYBLE.c ****     *   or CyBle_GappStartAdvertisement() functions as well.
 826:.\Generated_Source\PSoC4/CYBLE.c ****     *   
 827:.\Generated_Source\PSoC4/CYBLE.c ****     *   The following event occurs on invoking this function:
 828:.\Generated_Source\PSoC4/CYBLE.c ****     *   * CYBLE_EVT_GAPP_ADVERTISEMENT_START_STOP
 829:.\Generated_Source\PSoC4/CYBLE.c ****     * 
 830:.\Generated_Source\PSoC4/CYBLE.c ****     *  \return
 831:.\Generated_Source\PSoC4/CYBLE.c ****     *   None
 832:.\Generated_Source\PSoC4/CYBLE.c ****     * 
 833:.\Generated_Source\PSoC4/CYBLE.c ****     *******************************************************************************/
 834:.\Generated_Source\PSoC4/CYBLE.c ****     void CyBle_GappStopAdvertisement(void)
 835:.\Generated_Source\PSoC4/CYBLE.c ****     {
 597              		.loc 1 835 0
 598              		.cfi_startproc
 599 0000 80B5     		push	{r7, lr}
 600              		.cfi_def_cfa_offset 8
 601              		.cfi_offset 7, -8
 602              		.cfi_offset 14, -4
 603 0002 00AF     		add	r7, sp, #0
 604              		.cfi_def_cfa_register 7
 836:.\Generated_Source\PSoC4/CYBLE.c ****         CyBle_GappExitDiscoveryMode();
 605              		.loc 1 836 0
 606 0004 FFF7FEFF 		bl	CyBle_GappExitDiscoveryMode
 837:.\Generated_Source\PSoC4/CYBLE.c ****         cyBle_eventHandlerFlag |= CYBLE_STOP_FLAG;
 607              		.loc 1 837 0
 608 0008 044B     		ldr	r3, .L28
 609 000a 1B78     		ldrb	r3, [r3]
 610 000c DBB2     		uxtb	r3, r3
 611 000e 0822     		mov	r2, #8
 612 0010 1343     		orr	r3, r2
 613 0012 DAB2     		uxtb	r2, r3
 614 0014 014B     		ldr	r3, .L28
 615 0016 1A70     		strb	r2, [r3]
 838:.\Generated_Source\PSoC4/CYBLE.c ****     }
 616              		.loc 1 838 0
 617 0018 BD46     		mov	sp, r7
 618              		@ sp needed
 619 001a 80BD     		pop	{r7, pc}
 620              	.L29:
 621              		.align	2
 622              	.L28:
 623 001c 00000000 		.word	cyBle_eventHandlerFlag
 624              		.cfi_endproc
 625              	.LFE7:
 626              		.size	CyBle_GappStopAdvertisement, .-CyBle_GappStopAdvertisement
 627              		.section	.text.CyBle_ChangeAdDeviceAddress,"ax",%progbits
 628              		.align	2
 629              		.global	CyBle_ChangeAdDeviceAddress
 630              		.code	16
 631              		.thumb_func
 632              		.type	CyBle_ChangeAdDeviceAddress, %function
 633              	CyBle_ChangeAdDeviceAddress:
 634              	.LFB8:
 839:.\Generated_Source\PSoC4/CYBLE.c ****     
ARM GAS  C:\Users\sunyi\AppData\Local\Temp\ccXDbPBi.s 			page 27


 840:.\Generated_Source\PSoC4/CYBLE.c ****     
 841:.\Generated_Source\PSoC4/CYBLE.c ****     /******************************************************************************
 842:.\Generated_Source\PSoC4/CYBLE.c ****     * Function Name: CyBle_ChangeAdDeviceAddress
 843:.\Generated_Source\PSoC4/CYBLE.c ****     ***************************************************************************//**
 844:.\Generated_Source\PSoC4/CYBLE.c ****     * 
 845:.\Generated_Source\PSoC4/CYBLE.c ****     *  This API is used to set the Bluetooth device address into the advertisement 
 846:.\Generated_Source\PSoC4/CYBLE.c ****     *  or scan response data structure.
 847:.\Generated_Source\PSoC4/CYBLE.c ****     * 
 848:.\Generated_Source\PSoC4/CYBLE.c ****     *  \param bdAddr: Bluetooth Device address. The variable is of type CYBLE_GAP_BD_ADDR_T
 849:.\Generated_Source\PSoC4/CYBLE.c ****     *  \param dest: 0 - selects advertisement structure, not zero value selects scan 
 850:.\Generated_Source\PSoC4/CYBLE.c ****     *               response structure.
 851:.\Generated_Source\PSoC4/CYBLE.c ****     * 
 852:.\Generated_Source\PSoC4/CYBLE.c ****     * \return
 853:.\Generated_Source\PSoC4/CYBLE.c ****     *  None
 854:.\Generated_Source\PSoC4/CYBLE.c ****     *  
 855:.\Generated_Source\PSoC4/CYBLE.c ****     *******************************************************************************/
 856:.\Generated_Source\PSoC4/CYBLE.c ****     void CyBle_ChangeAdDeviceAddress(const CYBLE_GAP_BD_ADDR_T* bdAddr, uint8 dest)
 857:.\Generated_Source\PSoC4/CYBLE.c ****     {
 635              		.loc 1 857 0
 636              		.cfi_startproc
 637 0000 80B5     		push	{r7, lr}
 638              		.cfi_def_cfa_offset 8
 639              		.cfi_offset 7, -8
 640              		.cfi_offset 14, -4
 641 0002 84B0     		sub	sp, sp, #16
 642              		.cfi_def_cfa_offset 24
 643 0004 00AF     		add	r7, sp, #0
 644              		.cfi_def_cfa_register 7
 645 0006 7860     		str	r0, [r7, #4]
 646 0008 0A1C     		mov	r2, r1
 647 000a FB1C     		add	r3, r7, #3
 648 000c 1A70     		strb	r2, [r3]
 858:.\Generated_Source\PSoC4/CYBLE.c ****         uint8 i;
 859:.\Generated_Source\PSoC4/CYBLE.c ****         uint8 *destBuffer = NULL;
 649              		.loc 1 859 0
 650 000e 0023     		mov	r3, #0
 651 0010 BB60     		str	r3, [r7, #8]
 860:.\Generated_Source\PSoC4/CYBLE.c ****         
 861:.\Generated_Source\PSoC4/CYBLE.c ****         if(dest == 0u)      /* Destination - advertising structure */
 862:.\Generated_Source\PSoC4/CYBLE.c ****         {
 863:.\Generated_Source\PSoC4/CYBLE.c ****             #ifdef CYBLE_ADV_PKT_INDEX_BLUETOOTH_DEVICE_ADDRESS
 864:.\Generated_Source\PSoC4/CYBLE.c ****                 destBuffer = &cyBle_discoveryData.advData[CYBLE_ADV_PKT_INDEX_BLUETOOTH_DEVICE_ADDR
 865:.\Generated_Source\PSoC4/CYBLE.c ****             #endif /* CYBLE_ADV_PKT_INDEX_BLUETOOTH_DEVICE_ADDRESS */
 866:.\Generated_Source\PSoC4/CYBLE.c ****         }
 867:.\Generated_Source\PSoC4/CYBLE.c ****         else                /* Destination - scan response structure */
 868:.\Generated_Source\PSoC4/CYBLE.c ****         {
 869:.\Generated_Source\PSoC4/CYBLE.c ****             #ifdef CYBLE_SCN_PKT_INDEX_BLUETOOTH_DEVICE_ADDRESS
 870:.\Generated_Source\PSoC4/CYBLE.c ****                 destBuffer = &cyBle_scanRspData.scanRspData[CYBLE_SCN_PKT_INDEX_BLUETOOTH_DEVICE_AD
 871:.\Generated_Source\PSoC4/CYBLE.c ****             #endif /* CYBLE_SCN_PKT_INDEX_BLUETOOTH_DEVICE_ADDRESS */    
 872:.\Generated_Source\PSoC4/CYBLE.c ****         }
 873:.\Generated_Source\PSoC4/CYBLE.c ****         
 874:.\Generated_Source\PSoC4/CYBLE.c ****         if(destBuffer != NULL)
 652              		.loc 1 874 0
 653 0012 BB68     		ldr	r3, [r7, #8]
 654 0014 002B     		cmp	r3, #0
 655 0016 20D0     		beq	.L30
 875:.\Generated_Source\PSoC4/CYBLE.c ****         {
ARM GAS  C:\Users\sunyi\AppData\Local\Temp\ccXDbPBi.s 			page 28


 876:.\Generated_Source\PSoC4/CYBLE.c ****             /* Update Device Address type */
 877:.\Generated_Source\PSoC4/CYBLE.c ****             destBuffer[0u] = bdAddr->type;
 656              		.loc 1 877 0
 657 0018 7B68     		ldr	r3, [r7, #4]
 658 001a 9A79     		ldrb	r2, [r3, #6]
 659 001c BB68     		ldr	r3, [r7, #8]
 660 001e 1A70     		strb	r2, [r3]
 878:.\Generated_Source\PSoC4/CYBLE.c ****             
 879:.\Generated_Source\PSoC4/CYBLE.c ****             for(i = 0u; i < CYBLE_GAP_BD_ADDR_SIZE; i++)
 661              		.loc 1 879 0
 662 0020 0F23     		mov	r3, #15
 663 0022 FB18     		add	r3, r7, r3
 664 0024 0022     		mov	r2, #0
 665 0026 1A70     		strb	r2, [r3]
 666 0028 12E0     		b	.L32
 667              	.L33:
 880:.\Generated_Source\PSoC4/CYBLE.c ****             {
 881:.\Generated_Source\PSoC4/CYBLE.c ****                 destBuffer[i + 1u] = bdAddr->bdAddr[i];
 668              		.loc 1 881 0 discriminator 3
 669 002a 0F23     		mov	r3, #15
 670 002c FB18     		add	r3, r7, r3
 671 002e 1B78     		ldrb	r3, [r3]
 672 0030 0133     		add	r3, r3, #1
 673 0032 BA68     		ldr	r2, [r7, #8]
 674 0034 D318     		add	r3, r2, r3
 675 0036 0F22     		mov	r2, #15
 676 0038 BA18     		add	r2, r7, r2
 677 003a 1278     		ldrb	r2, [r2]
 678 003c 7968     		ldr	r1, [r7, #4]
 679 003e 8A5C     		ldrb	r2, [r1, r2]
 680 0040 1A70     		strb	r2, [r3]
 879:.\Generated_Source\PSoC4/CYBLE.c ****             {
 681              		.loc 1 879 0 discriminator 3
 682 0042 0F23     		mov	r3, #15
 683 0044 FB18     		add	r3, r7, r3
 684 0046 1A78     		ldrb	r2, [r3]
 685 0048 0F23     		mov	r3, #15
 686 004a FB18     		add	r3, r7, r3
 687 004c 0132     		add	r2, r2, #1
 688 004e 1A70     		strb	r2, [r3]
 689              	.L32:
 879:.\Generated_Source\PSoC4/CYBLE.c ****             {
 690              		.loc 1 879 0 is_stmt 0 discriminator 1
 691 0050 0F23     		mov	r3, #15
 692 0052 FB18     		add	r3, r7, r3
 693 0054 1B78     		ldrb	r3, [r3]
 694 0056 052B     		cmp	r3, #5
 695 0058 E7D9     		bls	.L33
 696              	.L30:
 882:.\Generated_Source\PSoC4/CYBLE.c ****             }
 883:.\Generated_Source\PSoC4/CYBLE.c ****         }
 884:.\Generated_Source\PSoC4/CYBLE.c ****     }
 697              		.loc 1 884 0 is_stmt 1
 698 005a BD46     		mov	sp, r7
 699 005c 04B0     		add	sp, sp, #16
 700              		@ sp needed
 701 005e 80BD     		pop	{r7, pc}
ARM GAS  C:\Users\sunyi\AppData\Local\Temp\ccXDbPBi.s 			page 29


 702              		.cfi_endproc
 703              	.LFE8:
 704              		.size	CyBle_ChangeAdDeviceAddress, .-CyBle_ChangeAdDeviceAddress
 705              		.section	.text.CyBle_ChangeAdLocalName,"ax",%progbits
 706              		.align	2
 707              		.code	16
 708              		.thumb_func
 709              		.type	CyBle_ChangeAdLocalName, %function
 710              	CyBle_ChangeAdLocalName:
 711              	.LFB9:
 885:.\Generated_Source\PSoC4/CYBLE.c ****   
 886:.\Generated_Source\PSoC4/CYBLE.c **** #endif /* CYBLE_GAP_ROLE_PERIPHERAL || CYBLE_GAP_ROLE_BROADCASTER */
 887:.\Generated_Source\PSoC4/CYBLE.c **** 
 888:.\Generated_Source\PSoC4/CYBLE.c **** 
 889:.\Generated_Source\PSoC4/CYBLE.c **** #if(CYBLE_GAP_ROLE_CENTRAL || CYBLE_GAP_ROLE_OBSERVER)
 890:.\Generated_Source\PSoC4/CYBLE.c **** 
 891:.\Generated_Source\PSoC4/CYBLE.c ****     /******************************************************************************
 892:.\Generated_Source\PSoC4/CYBLE.c ****     * Function Name: CyBle_GapcStartScan
 893:.\Generated_Source\PSoC4/CYBLE.c ****     ***************************************************************************//**
 894:.\Generated_Source\PSoC4/CYBLE.c ****     * 
 895:.\Generated_Source\PSoC4/CYBLE.c ****     *   This function is used for discovering GAP peripheral devices that are 
 896:.\Generated_Source\PSoC4/CYBLE.c ****     *   available for connection. It performs the scanning routine using the 
 897:.\Generated_Source\PSoC4/CYBLE.c ****     *   parameters entered in the component's customizer.
 898:.\Generated_Source\PSoC4/CYBLE.c ****     *   
 899:.\Generated_Source\PSoC4/CYBLE.c ****     *   As soon as the discovery operation starts, CYBLE_EVT_GAPC_SCAN_START_STOP 
 900:.\Generated_Source\PSoC4/CYBLE.c ****     *   event is generated. The CYBLE_EVT_GAPC_SCAN_PROGRESS_RESULT event is 
 901:.\Generated_Source\PSoC4/CYBLE.c ****     *   generated when a GAP peripheral device is located. There are three discovery
 902:.\Generated_Source\PSoC4/CYBLE.c ****     *   procedures can be selected in the customizer's GUI:
 903:.\Generated_Source\PSoC4/CYBLE.c ****     *   
 904:.\Generated_Source\PSoC4/CYBLE.c ****     *   * Observation procedure: A device performing the observer role receives only
 905:.\Generated_Source\PSoC4/CYBLE.c ****     *                            advertisement data from devices irrespective of 
 906:.\Generated_Source\PSoC4/CYBLE.c ****     *                            their discoverable mode settings. Advertisement 
 907:.\Generated_Source\PSoC4/CYBLE.c ****     *                            data received is provided by the event,      
 908:.\Generated_Source\PSoC4/CYBLE.c ****     *                            CYBLE_EVT_GAPC_SCAN_PROGRESS_RESULT. This procedure
 909:.\Generated_Source\PSoC4/CYBLE.c ****     *                            requires the scanType sub parameter to be passive
 910:.\Generated_Source\PSoC4/CYBLE.c ****     *                            scanning. 
 911:.\Generated_Source\PSoC4/CYBLE.c ****     *   
 912:.\Generated_Source\PSoC4/CYBLE.c ****     *   * Limited Discovery procedure: A device performing the limited discovery
 913:.\Generated_Source\PSoC4/CYBLE.c ****     *                                  procedure receives advertisement data and 
 914:.\Generated_Source\PSoC4/CYBLE.c ****     *                                  scan# response data from devices in the 
 915:.\Generated_Source\PSoC4/CYBLE.c ****     *                                  limited discoverable mode only. Received data
 916:.\Generated_Source\PSoC4/CYBLE.c ****     *                                  is provided by the event, 
 917:.\Generated_Source\PSoC4/CYBLE.c ****     *                                  CYBLE_EVT_GAPC_SCAN_PROGRESS_RESULT. This 
 918:.\Generated_Source\PSoC4/CYBLE.c ****     *                                  procedure requires the scanType sub-parameter 
 919:.\Generated_Source\PSoC4/CYBLE.c ****     *                                  to be active scanning.
 920:.\Generated_Source\PSoC4/CYBLE.c ****     *   
 921:.\Generated_Source\PSoC4/CYBLE.c ****     *   * General Discovery procedure: A device performing the general discovery 
 922:.\Generated_Source\PSoC4/CYBLE.c ****     *                                  procedure receives the advertisement data and
 923:.\Generated_Source\PSoC4/CYBLE.c ****     *                                  scan response data from devices in both 
 924:.\Generated_Source\PSoC4/CYBLE.c ****     *                                  limited discoverable mode and the general 
 925:.\Generated_Source\PSoC4/CYBLE.c ****     *                                  discoverable mode. Received data is provided
 926:.\Generated_Source\PSoC4/CYBLE.c ****     *                                  by the event,
 927:.\Generated_Source\PSoC4/CYBLE.c ****     *                                  CYBLE_EVT_GAPC_SCAN_PROGRESS_RESULT. This 
 928:.\Generated_Source\PSoC4/CYBLE.c ****     *                                  procedure requires the scanType sub-parameter
 929:.\Generated_Source\PSoC4/CYBLE.c ****     *                                  to be active scanning.
 930:.\Generated_Source\PSoC4/CYBLE.c ****     *   
 931:.\Generated_Source\PSoC4/CYBLE.c ****     *   Every Advertisement / Scan response packet received results in a new event, 
ARM GAS  C:\Users\sunyi\AppData\Local\Temp\ccXDbPBi.s 			page 30


 932:.\Generated_Source\PSoC4/CYBLE.c ****     *   CYBLE_EVT_GAPC_SCAN_PROGRESS_RESULT.
 933:.\Generated_Source\PSoC4/CYBLE.c ****     *   If 'scanTo' sub-parameter is a non-zero value, then upon commencement of 
 934:.\Generated_Source\PSoC4/CYBLE.c ****     *   discovery procedure and elapsed time = 'scanTo', CYBLE_EVT_TIMEOUT event
 935:.\Generated_Source\PSoC4/CYBLE.c ****     *   is generated with the event parameter indicating CYBLE_GAP_SCAN_TO.
 936:.\Generated_Source\PSoC4/CYBLE.c ****     *   Possible generated events are:
 937:.\Generated_Source\PSoC4/CYBLE.c ****     *   * CYBLE_EVT_GAPC_SCAN_START_STOP: If a device started or stopped scanning. 
 938:.\Generated_Source\PSoC4/CYBLE.c ****     *                                     Use CyBle_GetState() to determine the 
 939:.\Generated_Source\PSoC4/CYBLE.c ****     *                                     state. Sequential scanning could be 
 940:.\Generated_Source\PSoC4/CYBLE.c ****     *                                     started when CYBLE_STATE_DISCONNECTED 
 941:.\Generated_Source\PSoC4/CYBLE.c ****     *                                     state is returned. 
 942:.\Generated_Source\PSoC4/CYBLE.c ****     *   * CYBLE_EVT_GAPC_SCAN_PROGRESS_RESULT 
 943:.\Generated_Source\PSoC4/CYBLE.c ****     *   * CYBLE_EVT_TIMEOUT (CYBLE_GAP_SCAN_TO)
 944:.\Generated_Source\PSoC4/CYBLE.c ****     * 
 945:.\Generated_Source\PSoC4/CYBLE.c ****     *   \param scanningIntervalType:  Fast or slow scanning interval with
 946:.\Generated_Source\PSoC4/CYBLE.c ****     *       timings entered in Scan settings section of the customizer.
 947:.\Generated_Source\PSoC4/CYBLE.c ****     * 	  * CYBLE_SCANNING_FAST   0x00u
 948:.\Generated_Source\PSoC4/CYBLE.c ****     * 	  * CYBLE_SCANNING_SLOW   0x01u
 949:.\Generated_Source\PSoC4/CYBLE.c ****     * 	  * CYBLE_SCANNING_CUSTOM 0x02u
 950:.\Generated_Source\PSoC4/CYBLE.c ****     * 
 951:.\Generated_Source\PSoC4/CYBLE.c ****     * \return
 952:.\Generated_Source\PSoC4/CYBLE.c ****     *  CYBLE_API_RESULT_T : Return value indicates if the function succeeded or
 953:.\Generated_Source\PSoC4/CYBLE.c ****     *  failed. Following are the possible error codes.
 954:.\Generated_Source\PSoC4/CYBLE.c ****     *
 955:.\Generated_Source\PSoC4/CYBLE.c ****     *   Errors codes                       | Description
 956:.\Generated_Source\PSoC4/CYBLE.c ****     *   ---------------------------------- | -----------------------------------
 957:.\Generated_Source\PSoC4/CYBLE.c ****     *   CYBLE_ERROR_OK                     | On successful operation.
 958:.\Generated_Source\PSoC4/CYBLE.c ****     *   CYBLE_ERROR_STACK_INTERNAL         | An error occurred in the BLE stack.
 959:.\Generated_Source\PSoC4/CYBLE.c ****     *   CYBLE_ERROR_INVALID_PARAMETER      | On passing an invalid parameter.
 960:.\Generated_Source\PSoC4/CYBLE.c ****     *  
 961:.\Generated_Source\PSoC4/CYBLE.c ****     *******************************************************************************/
 962:.\Generated_Source\PSoC4/CYBLE.c ****     CYBLE_API_RESULT_T CyBle_GapcStartScan(uint8 scanningIntervalType)
 963:.\Generated_Source\PSoC4/CYBLE.c ****     {
 964:.\Generated_Source\PSoC4/CYBLE.c ****         CYBLE_API_RESULT_T apiResult;
 965:.\Generated_Source\PSoC4/CYBLE.c **** 
 966:.\Generated_Source\PSoC4/CYBLE.c ****         if(scanningIntervalType > CYBLE_SCANNING_CUSTOM)
 967:.\Generated_Source\PSoC4/CYBLE.c ****         {
 968:.\Generated_Source\PSoC4/CYBLE.c ****             apiResult = CYBLE_ERROR_INVALID_PARAMETER;
 969:.\Generated_Source\PSoC4/CYBLE.c ****         }
 970:.\Generated_Source\PSoC4/CYBLE.c ****         else
 971:.\Generated_Source\PSoC4/CYBLE.c ****         {
 972:.\Generated_Source\PSoC4/CYBLE.c ****             if(scanningIntervalType == CYBLE_SCANNING_FAST)
 973:.\Generated_Source\PSoC4/CYBLE.c ****             {
 974:.\Generated_Source\PSoC4/CYBLE.c ****                 cyBle_discoveryInfo.scanTo = CYBLE_FAST_SCAN_TIMEOUT;
 975:.\Generated_Source\PSoC4/CYBLE.c ****                 cyBle_discoveryInfo.scanIntv = CYBLE_FAST_SCAN_INTERVAL;
 976:.\Generated_Source\PSoC4/CYBLE.c ****                 cyBle_discoveryInfo.scanWindow = CYBLE_FAST_SCAN_WINDOW;
 977:.\Generated_Source\PSoC4/CYBLE.c ****             }
 978:.\Generated_Source\PSoC4/CYBLE.c ****             else if(scanningIntervalType == CYBLE_SCANNING_SLOW)
 979:.\Generated_Source\PSoC4/CYBLE.c ****             {
 980:.\Generated_Source\PSoC4/CYBLE.c ****                 cyBle_discoveryInfo.scanTo = CYBLE_SLOW_SCAN_TIMEOUT;
 981:.\Generated_Source\PSoC4/CYBLE.c ****                 cyBle_discoveryInfo.scanIntv = CYBLE_SLOW_SCAN_INTERVAL;
 982:.\Generated_Source\PSoC4/CYBLE.c ****                 cyBle_discoveryInfo.scanWindow = CYBLE_SLOW_SCAN_WINDOW;
 983:.\Generated_Source\PSoC4/CYBLE.c ****             }       
 984:.\Generated_Source\PSoC4/CYBLE.c ****             else /* Do not update scanning intervals */
 985:.\Generated_Source\PSoC4/CYBLE.c ****             {
 986:.\Generated_Source\PSoC4/CYBLE.c ****             }
 987:.\Generated_Source\PSoC4/CYBLE.c ****             
 988:.\Generated_Source\PSoC4/CYBLE.c ****             cyBle_scanningIntervalType = scanningIntervalType;
ARM GAS  C:\Users\sunyi\AppData\Local\Temp\ccXDbPBi.s 			page 31


 989:.\Generated_Source\PSoC4/CYBLE.c ****             apiResult = CyBle_GapcStartDiscovery(&cyBle_discoveryInfo);
 990:.\Generated_Source\PSoC4/CYBLE.c ****         
 991:.\Generated_Source\PSoC4/CYBLE.c ****             if(CYBLE_ERROR_OK == apiResult)
 992:.\Generated_Source\PSoC4/CYBLE.c ****             {
 993:.\Generated_Source\PSoC4/CYBLE.c ****                 cyBle_eventHandlerFlag |= CYBLE_START_FLAG;
 994:.\Generated_Source\PSoC4/CYBLE.c ****             }
 995:.\Generated_Source\PSoC4/CYBLE.c ****         }
 996:.\Generated_Source\PSoC4/CYBLE.c ****        
 997:.\Generated_Source\PSoC4/CYBLE.c ****         return (apiResult);
 998:.\Generated_Source\PSoC4/CYBLE.c ****     }
 999:.\Generated_Source\PSoC4/CYBLE.c ****     
1000:.\Generated_Source\PSoC4/CYBLE.c ****     
1001:.\Generated_Source\PSoC4/CYBLE.c ****     /******************************************************************************
1002:.\Generated_Source\PSoC4/CYBLE.c ****     * Function Name: CyBle_GapcStopScan
1003:.\Generated_Source\PSoC4/CYBLE.c ****     ***************************************************************************//**
1004:.\Generated_Source\PSoC4/CYBLE.c ****     * 
1005:.\Generated_Source\PSoC4/CYBLE.c ****     *   This function used to stop the discovery of devices. On stopping discovery
1006:.\Generated_Source\PSoC4/CYBLE.c ****     *   operation, CYBLE_EVT_GAPC_SCAN_START_STOP event is generated. Application
1007:.\Generated_Source\PSoC4/CYBLE.c ****     *   layer needs to keep track of the function call made before receiving this
1008:.\Generated_Source\PSoC4/CYBLE.c ****     *   event to associate this event with either the start or stop discovery
1009:.\Generated_Source\PSoC4/CYBLE.c ****     *   function.
1010:.\Generated_Source\PSoC4/CYBLE.c ****     * 
1011:.\Generated_Source\PSoC4/CYBLE.c ****     *   Possible events generated are:
1012:.\Generated_Source\PSoC4/CYBLE.c ****     *    * CYBLE_EVT_GAPC_SCAN_START_STOP
1013:.\Generated_Source\PSoC4/CYBLE.c ****     * 
1014:.\Generated_Source\PSoC4/CYBLE.c ****     *  \return
1015:.\Generated_Source\PSoC4/CYBLE.c ****     *   None
1016:.\Generated_Source\PSoC4/CYBLE.c ****     * 
1017:.\Generated_Source\PSoC4/CYBLE.c ****     *******************************************************************************/
1018:.\Generated_Source\PSoC4/CYBLE.c ****     void CyBle_GapcStopScan(void)
1019:.\Generated_Source\PSoC4/CYBLE.c ****     {
1020:.\Generated_Source\PSoC4/CYBLE.c ****         CyBle_GapcStopDiscovery();
1021:.\Generated_Source\PSoC4/CYBLE.c ****         
1022:.\Generated_Source\PSoC4/CYBLE.c ****         cyBle_eventHandlerFlag |= CYBLE_STOP_FLAG;
1023:.\Generated_Source\PSoC4/CYBLE.c ****     }
1024:.\Generated_Source\PSoC4/CYBLE.c **** 
1025:.\Generated_Source\PSoC4/CYBLE.c ****     
1026:.\Generated_Source\PSoC4/CYBLE.c **** #endif /* CYBLE_GAP_ROLE_CENTRAL || CYBLE_GAP_ROLE_OBSERVER */
1027:.\Generated_Source\PSoC4/CYBLE.c **** 
1028:.\Generated_Source\PSoC4/CYBLE.c **** 
1029:.\Generated_Source\PSoC4/CYBLE.c **** #if(CYBLE_GAP_ROLE_CENTRAL)
1030:.\Generated_Source\PSoC4/CYBLE.c **** 
1031:.\Generated_Source\PSoC4/CYBLE.c ****     /******************************************************************************
1032:.\Generated_Source\PSoC4/CYBLE.c ****     * Function Name: CyBle_GapcConnectDevice
1033:.\Generated_Source\PSoC4/CYBLE.c ****     ***************************************************************************//**
1034:.\Generated_Source\PSoC4/CYBLE.c ****     * 
1035:.\Generated_Source\PSoC4/CYBLE.c ****     *  This function is used to send a connection request to the remote device with
1036:.\Generated_Source\PSoC4/CYBLE.c ****     *  the connection parameters set in the component customizer. This function needs
1037:.\Generated_Source\PSoC4/CYBLE.c ****     *  to be called only once after the target device is discovered by 
1038:.\Generated_Source\PSoC4/CYBLE.c ****     *  CyBle_GapcStartScan() and further scanning has stopped. Scanning is 
1039:.\Generated_Source\PSoC4/CYBLE.c ****     *  successfully stopped on invoking CyBle_GapcStopScan() and then receiving the
1040:.\Generated_Source\PSoC4/CYBLE.c ****     *  event CYBLE_EVT_GAPC_SCAN_START_STOP with sub-parameter 'success' = 0x01u.
1041:.\Generated_Source\PSoC4/CYBLE.c ****     *  
1042:.\Generated_Source\PSoC4/CYBLE.c ****     *  On successful connection, the following events are generated at the GAP 
1043:.\Generated_Source\PSoC4/CYBLE.c ****     *  Central device (as well as the GAP Peripheral device), in the following order.
1044:.\Generated_Source\PSoC4/CYBLE.c ****     *  * CYBLE_EVT_GATT_CONNECT_IND
1045:.\Generated_Source\PSoC4/CYBLE.c ****     *  * CYBLE_EVT_GAP_DEVICE_CONNECTED - If the device connects to a GAP Central and 
ARM GAS  C:\Users\sunyi\AppData\Local\Temp\ccXDbPBi.s 			page 32


1046:.\Generated_Source\PSoC4/CYBLE.c ****     *    Link Layer Privacy is disabled in component customizer.
1047:.\Generated_Source\PSoC4/CYBLE.c ****     *  * CYBLE_EVT_GAP_ENHANCE_CONN_COMPLETE - If the device connects to a GAP Central and 
1048:.\Generated_Source\PSoC4/CYBLE.c ****     *    Link Layer Privacy is enabled in component customizer.
1049:.\Generated_Source\PSoC4/CYBLE.c ****     *  * CYBLE_EVT_GAP_DEVICE_CONNECTED
1050:.\Generated_Source\PSoC4/CYBLE.c ****     *  
1051:.\Generated_Source\PSoC4/CYBLE.c ****     *  A procedure is considered to have timed out if a connection response packet is 
1052:.\Generated_Source\PSoC4/CYBLE.c ****     *  not received within time set by cyBle_connectingTimeout global variable
1053:.\Generated_Source\PSoC4/CYBLE.c ****     *  (30 seconds by default). CYBLE_EVT_TIMEOUT event with CYBLE_GENERIC_TO parameter
1054:.\Generated_Source\PSoC4/CYBLE.c ****     *  will indicate about connection procedure timeout. Connection will automatically
1055:.\Generated_Source\PSoC4/CYBLE.c ****     *  be canceled and state will be changed to CYBLE_STATE_DISCONNECTED.
1056:.\Generated_Source\PSoC4/CYBLE.c ****     * 
1057:.\Generated_Source\PSoC4/CYBLE.c ****     *  \param address: The device address of the remote device to connect to. 
1058:.\Generated_Source\PSoC4/CYBLE.c ****     *  
1059:.\Generated_Source\PSoC4/CYBLE.c ****     * \return
1060:.\Generated_Source\PSoC4/CYBLE.c ****     *  CYBLE_API_RESULT_T : Return value indicates if the function succeeded or 
1061:.\Generated_Source\PSoC4/CYBLE.c ****     *  failed. Following are the possible error codes.
1062:.\Generated_Source\PSoC4/CYBLE.c ****     *
1063:.\Generated_Source\PSoC4/CYBLE.c ****     *   Errors codes                       | Description
1064:.\Generated_Source\PSoC4/CYBLE.c ****     *   ------------                       | -----------
1065:.\Generated_Source\PSoC4/CYBLE.c ****     *   CYBLE_ERROR_OK                     | On successful operation.
1066:.\Generated_Source\PSoC4/CYBLE.c ****     *   CYBLE_ERROR_STACK_INTERNAL         | On error occurred in the BLE stack.
1067:.\Generated_Source\PSoC4/CYBLE.c ****     *   CYBLE_ERROR_INVALID_PARAMETER      | On passing an invalid parameter.
1068:.\Generated_Source\PSoC4/CYBLE.c ****     *   CYBLE_ERROR_INVALID_STATE          | On calling this API not in Disconnected state.
1069:.\Generated_Source\PSoC4/CYBLE.c ****     *  
1070:.\Generated_Source\PSoC4/CYBLE.c ****     ******************************************************************************/
1071:.\Generated_Source\PSoC4/CYBLE.c ****     CYBLE_API_RESULT_T CyBle_GapcConnectDevice(const CYBLE_GAP_BD_ADDR_T * address)
1072:.\Generated_Source\PSoC4/CYBLE.c ****     {
1073:.\Generated_Source\PSoC4/CYBLE.c ****         CYBLE_API_RESULT_T apiResult;
1074:.\Generated_Source\PSoC4/CYBLE.c ****         uint8 i;
1075:.\Generated_Source\PSoC4/CYBLE.c **** 
1076:.\Generated_Source\PSoC4/CYBLE.c ****         if(CyBle_GetState() != CYBLE_STATE_DISCONNECTED)
1077:.\Generated_Source\PSoC4/CYBLE.c ****         {
1078:.\Generated_Source\PSoC4/CYBLE.c ****             apiResult = CYBLE_ERROR_INVALID_STATE;
1079:.\Generated_Source\PSoC4/CYBLE.c ****         }
1080:.\Generated_Source\PSoC4/CYBLE.c ****         else if(address == NULL)
1081:.\Generated_Source\PSoC4/CYBLE.c ****         {
1082:.\Generated_Source\PSoC4/CYBLE.c ****             apiResult = CYBLE_ERROR_INVALID_PARAMETER;
1083:.\Generated_Source\PSoC4/CYBLE.c ****         }
1084:.\Generated_Source\PSoC4/CYBLE.c ****         else
1085:.\Generated_Source\PSoC4/CYBLE.c ****         {
1086:.\Generated_Source\PSoC4/CYBLE.c ****             for(i = 0u; i < CYBLE_GAP_BD_ADDR_SIZE; i++)
1087:.\Generated_Source\PSoC4/CYBLE.c ****             {
1088:.\Generated_Source\PSoC4/CYBLE.c ****                 cyBle_connectionParameters.peerBdAddr[i] = address->bdAddr[i];
1089:.\Generated_Source\PSoC4/CYBLE.c ****             }
1090:.\Generated_Source\PSoC4/CYBLE.c ****             cyBle_connectionParameters.peerAddrType = address -> type;
1091:.\Generated_Source\PSoC4/CYBLE.c ****             apiResult = CyBle_GapcInitConnection(&cyBle_connectionParameters);
1092:.\Generated_Source\PSoC4/CYBLE.c ****             
1093:.\Generated_Source\PSoC4/CYBLE.c ****             if(apiResult == CYBLE_ERROR_OK)
1094:.\Generated_Source\PSoC4/CYBLE.c ****             {
1095:.\Generated_Source\PSoC4/CYBLE.c ****                 CyBle_SetState(CYBLE_STATE_CONNECTING);
1096:.\Generated_Source\PSoC4/CYBLE.c ****                 if(cyBle_connectingTimeout != 0u)
1097:.\Generated_Source\PSoC4/CYBLE.c ****                 {
1098:.\Generated_Source\PSoC4/CYBLE.c ****                     (void)CyBle_StartTimer(cyBle_connectingTimeout);
1099:.\Generated_Source\PSoC4/CYBLE.c ****                 }
1100:.\Generated_Source\PSoC4/CYBLE.c ****             }
1101:.\Generated_Source\PSoC4/CYBLE.c ****         }
1102:.\Generated_Source\PSoC4/CYBLE.c ****         return (apiResult);
ARM GAS  C:\Users\sunyi\AppData\Local\Temp\ccXDbPBi.s 			page 33


1103:.\Generated_Source\PSoC4/CYBLE.c ****     }
1104:.\Generated_Source\PSoC4/CYBLE.c ****     
1105:.\Generated_Source\PSoC4/CYBLE.c **** 
1106:.\Generated_Source\PSoC4/CYBLE.c ****     /******************************************************************************
1107:.\Generated_Source\PSoC4/CYBLE.c ****     * Function Name: CyBle_GapcCancelDeviceConnection
1108:.\Generated_Source\PSoC4/CYBLE.c ****     ***************************************************************************//**
1109:.\Generated_Source\PSoC4/CYBLE.c ****     * 
1110:.\Generated_Source\PSoC4/CYBLE.c ****     *  This function cancels a previously initiated connection with the remote 
1111:.\Generated_Source\PSoC4/CYBLE.c ****     *  device. It is a blocking function. No event is generated on calling this 
1112:.\Generated_Source\PSoC4/CYBLE.c ****     *  function. If the devices are already connected then this function should not
1113:.\Generated_Source\PSoC4/CYBLE.c ****     *  be used. If you intend to disconnect from an existing connection, the function
1114:.\Generated_Source\PSoC4/CYBLE.c ****     *  CyBle_GapDisconnect() should be used.
1115:.\Generated_Source\PSoC4/CYBLE.c ****     * 
1116:.\Generated_Source\PSoC4/CYBLE.c ****     * \return
1117:.\Generated_Source\PSoC4/CYBLE.c ****     *  CYBLE_API_RESULT_T : Return value indicates if the function succeeded or 
1118:.\Generated_Source\PSoC4/CYBLE.c ****     *  failed. Following are the possible error codes.
1119:.\Generated_Source\PSoC4/CYBLE.c ****     *
1120:.\Generated_Source\PSoC4/CYBLE.c ****     *   Errors codes                       | Description
1121:.\Generated_Source\PSoC4/CYBLE.c ****     *   ---------------------------------- | --------------------------------------
1122:.\Generated_Source\PSoC4/CYBLE.c ****     *   CYBLE_ERROR_OK                     | On successful operation.
1123:.\Generated_Source\PSoC4/CYBLE.c ****     *   CYBLE_ERROR_STACK_INTERNAL         | An error occurred in the BLE stack.
1124:.\Generated_Source\PSoC4/CYBLE.c ****     *   CYBLE_ERROR_INVALID_STATE          | On calling this API not in Connecting state.
1125:.\Generated_Source\PSoC4/CYBLE.c ****     *  
1126:.\Generated_Source\PSoC4/CYBLE.c ****     *******************************************************************************/
1127:.\Generated_Source\PSoC4/CYBLE.c ****     CYBLE_API_RESULT_T CyBle_GapcCancelDeviceConnection(void)
1128:.\Generated_Source\PSoC4/CYBLE.c ****     {
1129:.\Generated_Source\PSoC4/CYBLE.c ****         CYBLE_API_RESULT_T apiResult;
1130:.\Generated_Source\PSoC4/CYBLE.c ****         
1131:.\Generated_Source\PSoC4/CYBLE.c ****         if(CyBle_GetState() != CYBLE_STATE_CONNECTING)
1132:.\Generated_Source\PSoC4/CYBLE.c ****         {
1133:.\Generated_Source\PSoC4/CYBLE.c ****             apiResult = CYBLE_ERROR_INVALID_STATE;
1134:.\Generated_Source\PSoC4/CYBLE.c ****         }
1135:.\Generated_Source\PSoC4/CYBLE.c ****         else 
1136:.\Generated_Source\PSoC4/CYBLE.c ****         {
1137:.\Generated_Source\PSoC4/CYBLE.c ****             apiResult = CyBle_GapcCancelConnection();
1138:.\Generated_Source\PSoC4/CYBLE.c ****             
1139:.\Generated_Source\PSoC4/CYBLE.c ****             if(cyBle_connectingTimeout != 0u)
1140:.\Generated_Source\PSoC4/CYBLE.c ****             {
1141:.\Generated_Source\PSoC4/CYBLE.c ****                 (void)CyBle_StopTimer();
1142:.\Generated_Source\PSoC4/CYBLE.c ****             }
1143:.\Generated_Source\PSoC4/CYBLE.c **** 
1144:.\Generated_Source\PSoC4/CYBLE.c ****             if(apiResult == CYBLE_ERROR_OK)
1145:.\Generated_Source\PSoC4/CYBLE.c ****             {
1146:.\Generated_Source\PSoC4/CYBLE.c ****                 CyBle_SetState(CYBLE_STATE_DISCONNECTED);
1147:.\Generated_Source\PSoC4/CYBLE.c ****             }
1148:.\Generated_Source\PSoC4/CYBLE.c ****         }
1149:.\Generated_Source\PSoC4/CYBLE.c ****         return (apiResult);
1150:.\Generated_Source\PSoC4/CYBLE.c ****     }    
1151:.\Generated_Source\PSoC4/CYBLE.c **** 
1152:.\Generated_Source\PSoC4/CYBLE.c ****     
1153:.\Generated_Source\PSoC4/CYBLE.c **** #endif /* CYBLE_GAP_ROLE_CENTRAL */
1154:.\Generated_Source\PSoC4/CYBLE.c **** 
1155:.\Generated_Source\PSoC4/CYBLE.c **** 
1156:.\Generated_Source\PSoC4/CYBLE.c **** #if(CYBLE_GATT_ROLE_SERVER)
1157:.\Generated_Source\PSoC4/CYBLE.c **** 
1158:.\Generated_Source\PSoC4/CYBLE.c **** #if(CYBLE_GAP_ROLE_PERIPHERAL)
1159:.\Generated_Source\PSoC4/CYBLE.c **** 
ARM GAS  C:\Users\sunyi\AppData\Local\Temp\ccXDbPBi.s 			page 34


1160:.\Generated_Source\PSoC4/CYBLE.c ****         /******************************************************************************
1161:.\Generated_Source\PSoC4/CYBLE.c ****         * Function Name: CyBle_ChangeAdLocalName
1162:.\Generated_Source\PSoC4/CYBLE.c ****         ***************************************************************************//**
1163:.\Generated_Source\PSoC4/CYBLE.c ****         *  This API is used to set the local device name in the advertisement or scan 
1164:.\Generated_Source\PSoC4/CYBLE.c ****         *  response data structure.
1165:.\Generated_Source\PSoC4/CYBLE.c ****         * 
1166:.\Generated_Source\PSoC4/CYBLE.c ****         *  \param name: The local device name string to be set in advertisement data 
1167:.\Generated_Source\PSoC4/CYBLE.c ****         *            structure.
1168:.\Generated_Source\PSoC4/CYBLE.c ****         *  \param dest: 0 - advertisement structure, not zero value selects scan response
1169:.\Generated_Source\PSoC4/CYBLE.c ****         *              structure.
1170:.\Generated_Source\PSoC4/CYBLE.c ****         * 
1171:.\Generated_Source\PSoC4/CYBLE.c ****         * \return
1172:.\Generated_Source\PSoC4/CYBLE.c ****         *  None
1173:.\Generated_Source\PSoC4/CYBLE.c ****         *  
1174:.\Generated_Source\PSoC4/CYBLE.c ****         *******************************************************************************/
1175:.\Generated_Source\PSoC4/CYBLE.c ****         static void CyBle_ChangeAdLocalName(const char8 name[], uint8 dest)
1176:.\Generated_Source\PSoC4/CYBLE.c ****         {
 712              		.loc 1 1176 0
 713              		.cfi_startproc
 714 0000 80B5     		push	{r7, lr}
 715              		.cfi_def_cfa_offset 8
 716              		.cfi_offset 7, -8
 717              		.cfi_offset 14, -4
 718 0002 86B0     		sub	sp, sp, #24
 719              		.cfi_def_cfa_offset 32
 720 0004 00AF     		add	r7, sp, #0
 721              		.cfi_def_cfa_register 7
 722 0006 7860     		str	r0, [r7, #4]
 723 0008 0A1C     		mov	r2, r1
 724 000a FB1C     		add	r3, r7, #3
 725 000c 1A70     		strb	r2, [r3]
1177:.\Generated_Source\PSoC4/CYBLE.c ****             uint8 i;
1178:.\Generated_Source\PSoC4/CYBLE.c ****             uint8 flag = 0u;
 726              		.loc 1 1178 0
 727 000e 1623     		mov	r3, #22
 728 0010 FB18     		add	r3, r7, r3
 729 0012 0022     		mov	r2, #0
 730 0014 1A70     		strb	r2, [r3]
1179:.\Generated_Source\PSoC4/CYBLE.c ****             uint8 adLength = 0u;
 731              		.loc 1 1179 0
 732 0016 1523     		mov	r3, #21
 733 0018 FB18     		add	r3, r7, r3
 734 001a 0022     		mov	r2, #0
 735 001c 1A70     		strb	r2, [r3]
1180:.\Generated_Source\PSoC4/CYBLE.c ****             uint8 byteCounter = 0u;
 736              		.loc 1 1180 0
 737 001e 1423     		mov	r3, #20
 738 0020 FB18     		add	r3, r7, r3
 739 0022 0022     		mov	r2, #0
 740 0024 1A70     		strb	r2, [r3]
1181:.\Generated_Source\PSoC4/CYBLE.c ****             uint8 *destBuffer;
1182:.\Generated_Source\PSoC4/CYBLE.c ****             uint8 maxLength;
1183:.\Generated_Source\PSoC4/CYBLE.c ****             
1184:.\Generated_Source\PSoC4/CYBLE.c ****             if(dest == 0u)      /* Destination - advertising structure */
 741              		.loc 1 1184 0
 742 0026 FB1C     		add	r3, r7, #3
 743 0028 1B78     		ldrb	r3, [r3]
ARM GAS  C:\Users\sunyi\AppData\Local\Temp\ccXDbPBi.s 			page 35


 744 002a 002B     		cmp	r3, #0
 745 002c 07D1     		bne	.L35
1185:.\Generated_Source\PSoC4/CYBLE.c ****             {
1186:.\Generated_Source\PSoC4/CYBLE.c ****                 destBuffer = cyBle_discoveryData.advData;
 746              		.loc 1 1186 0
 747 002e 5B4B     		ldr	r3, .L50
 748 0030 3B61     		str	r3, [r7, #16]
1187:.\Generated_Source\PSoC4/CYBLE.c ****                 maxLength = cyBle_discoveryData.advDataLen;
 749              		.loc 1 1187 0
 750 0032 0F23     		mov	r3, #15
 751 0034 FB18     		add	r3, r7, r3
 752 0036 594A     		ldr	r2, .L50
 753 0038 D27F     		ldrb	r2, [r2, #31]
 754 003a 1A70     		strb	r2, [r3]
 755 003c 06E0     		b	.L36
 756              	.L35:
1188:.\Generated_Source\PSoC4/CYBLE.c ****             }
1189:.\Generated_Source\PSoC4/CYBLE.c ****             else                /* Destination - scan response structure */
1190:.\Generated_Source\PSoC4/CYBLE.c ****             {
1191:.\Generated_Source\PSoC4/CYBLE.c ****                 destBuffer = cyBle_scanRspData.scanRspData;
 757              		.loc 1 1191 0
 758 003e 584B     		ldr	r3, .L50+4
 759 0040 3B61     		str	r3, [r7, #16]
1192:.\Generated_Source\PSoC4/CYBLE.c ****                 maxLength = cyBle_scanRspData.scanRspDataLen;
 760              		.loc 1 1192 0
 761 0042 0F23     		mov	r3, #15
 762 0044 FB18     		add	r3, r7, r3
 763 0046 564A     		ldr	r2, .L50+4
 764 0048 D27F     		ldrb	r2, [r2, #31]
 765 004a 1A70     		strb	r2, [r3]
 766              	.L36:
1193:.\Generated_Source\PSoC4/CYBLE.c ****             }
1194:.\Generated_Source\PSoC4/CYBLE.c ****             
1195:.\Generated_Source\PSoC4/CYBLE.c ****             while((byteCounter < maxLength) && (0u == flag))
 767              		.loc 1 1195 0
 768 004c 35E0     		b	.L37
 769              	.L43:
1196:.\Generated_Source\PSoC4/CYBLE.c ****             {
1197:.\Generated_Source\PSoC4/CYBLE.c ****                 adLength = destBuffer[byteCounter];
 770              		.loc 1 1197 0
 771 004e 1423     		mov	r3, #20
 772 0050 FB18     		add	r3, r7, r3
 773 0052 1B78     		ldrb	r3, [r3]
 774 0054 3A69     		ldr	r2, [r7, #16]
 775 0056 D218     		add	r2, r2, r3
 776 0058 1523     		mov	r3, #21
 777 005a FB18     		add	r3, r7, r3
 778 005c 1278     		ldrb	r2, [r2]
 779 005e 1A70     		strb	r2, [r3]
1198:.\Generated_Source\PSoC4/CYBLE.c ****                 
1199:.\Generated_Source\PSoC4/CYBLE.c ****                 if(0u != adLength)
 780              		.loc 1 1199 0
 781 0060 1523     		mov	r3, #21
 782 0062 FB18     		add	r3, r7, r3
 783 0064 1B78     		ldrb	r3, [r3]
 784 0066 002B     		cmp	r3, #0
 785 0068 26D0     		beq	.L38
ARM GAS  C:\Users\sunyi\AppData\Local\Temp\ccXDbPBi.s 			page 36


1200:.\Generated_Source\PSoC4/CYBLE.c ****                 {
1201:.\Generated_Source\PSoC4/CYBLE.c ****                     /* Increment byte counter so it can point to AD type */
1202:.\Generated_Source\PSoC4/CYBLE.c ****                     byteCounter++;
 786              		.loc 1 1202 0
 787 006a 1423     		mov	r3, #20
 788 006c FB18     		add	r3, r7, r3
 789 006e 1A78     		ldrb	r2, [r3]
 790 0070 1423     		mov	r3, #20
 791 0072 FB18     		add	r3, r7, r3
 792 0074 0132     		add	r2, r2, #1
 793 0076 1A70     		strb	r2, [r3]
1203:.\Generated_Source\PSoC4/CYBLE.c ****                     
1204:.\Generated_Source\PSoC4/CYBLE.c ****                     if((CYBLE_SHORT_LOCAL_NAME == destBuffer[byteCounter]) || 
 794              		.loc 1 1204 0
 795 0078 1423     		mov	r3, #20
 796 007a FB18     		add	r3, r7, r3
 797 007c 1B78     		ldrb	r3, [r3]
 798 007e 3A69     		ldr	r2, [r7, #16]
 799 0080 D318     		add	r3, r2, r3
 800 0082 1B78     		ldrb	r3, [r3]
 801 0084 082B     		cmp	r3, #8
 802 0086 07D0     		beq	.L39
1205:.\Generated_Source\PSoC4/CYBLE.c ****                        (CYBLE_COMPLETE_LOCAL_NAME == destBuffer[byteCounter]))
 803              		.loc 1 1205 0 discriminator 1
 804 0088 1423     		mov	r3, #20
 805 008a FB18     		add	r3, r7, r3
 806 008c 1B78     		ldrb	r3, [r3]
 807 008e 3A69     		ldr	r2, [r7, #16]
 808 0090 D318     		add	r3, r2, r3
 809 0092 1B78     		ldrb	r3, [r3]
1204:.\Generated_Source\PSoC4/CYBLE.c ****                        (CYBLE_COMPLETE_LOCAL_NAME == destBuffer[byteCounter]))
 810              		.loc 1 1204 0 discriminator 1
 811 0094 092B     		cmp	r3, #9
 812 0096 04D1     		bne	.L40
 813              	.L39:
1206:.\Generated_Source\PSoC4/CYBLE.c ****                     {
1207:.\Generated_Source\PSoC4/CYBLE.c ****                         /* Start of the Local Name AD type was fount. Set flag and exit the loop. *
1208:.\Generated_Source\PSoC4/CYBLE.c ****                         flag = 1u;
 814              		.loc 1 1208 0
 815 0098 1623     		mov	r3, #22
 816 009a FB18     		add	r3, r7, r3
 817 009c 0122     		mov	r2, #1
 818 009e 1A70     		strb	r2, [r3]
 819 00a0 09E0     		b	.L41
 820              	.L40:
1209:.\Generated_Source\PSoC4/CYBLE.c ****                     }
1210:.\Generated_Source\PSoC4/CYBLE.c ****                     else
1211:.\Generated_Source\PSoC4/CYBLE.c ****                     {
1212:.\Generated_Source\PSoC4/CYBLE.c ****                         byteCounter += adLength;
 821              		.loc 1 1212 0
 822 00a2 1423     		mov	r3, #20
 823 00a4 FB18     		add	r3, r7, r3
 824 00a6 1422     		mov	r2, #20
 825 00a8 B918     		add	r1, r7, r2
 826 00aa 1522     		mov	r2, #21
 827 00ac BA18     		add	r2, r7, r2
 828 00ae 0978     		ldrb	r1, [r1]
ARM GAS  C:\Users\sunyi\AppData\Local\Temp\ccXDbPBi.s 			page 37


 829 00b0 1278     		ldrb	r2, [r2]
 830 00b2 8A18     		add	r2, r1, r2
 831 00b4 1A70     		strb	r2, [r3]
 832              	.L41:
 833 00b6 00E0     		b	.L37
 834              	.L38:
1213:.\Generated_Source\PSoC4/CYBLE.c ****                     }
1214:.\Generated_Source\PSoC4/CYBLE.c ****                 }
1215:.\Generated_Source\PSoC4/CYBLE.c ****                 else
1216:.\Generated_Source\PSoC4/CYBLE.c ****                 {
1217:.\Generated_Source\PSoC4/CYBLE.c ****                     /* The end of advertisement data structure was encountered though exit the loop
1218:.\Generated_Source\PSoC4/CYBLE.c ****                     break;
 835              		.loc 1 1218 0
 836 00b8 0CE0     		b	.L42
 837              	.L37:
1195:.\Generated_Source\PSoC4/CYBLE.c ****             {
 838              		.loc 1 1195 0
 839 00ba 1423     		mov	r3, #20
 840 00bc FA18     		add	r2, r7, r3
 841 00be 0F23     		mov	r3, #15
 842 00c0 FB18     		add	r3, r7, r3
 843 00c2 1278     		ldrb	r2, [r2]
 844 00c4 1B78     		ldrb	r3, [r3]
 845 00c6 9A42     		cmp	r2, r3
 846 00c8 04D2     		bcs	.L42
1195:.\Generated_Source\PSoC4/CYBLE.c ****             {
 847              		.loc 1 1195 0 is_stmt 0 discriminator 1
 848 00ca 1623     		mov	r3, #22
 849 00cc FB18     		add	r3, r7, r3
 850 00ce 1B78     		ldrb	r3, [r3]
 851 00d0 002B     		cmp	r3, #0
 852 00d2 BCD0     		beq	.L43
 853              	.L42:
1219:.\Generated_Source\PSoC4/CYBLE.c ****                 }
1220:.\Generated_Source\PSoC4/CYBLE.c ****             }
1221:.\Generated_Source\PSoC4/CYBLE.c ****             
1222:.\Generated_Source\PSoC4/CYBLE.c ****             if(0u != flag)
 854              		.loc 1 1222 0 is_stmt 1
 855 00d4 1623     		mov	r3, #22
 856 00d6 FB18     		add	r3, r7, r3
 857 00d8 1B78     		ldrb	r3, [r3]
 858 00da 002B     		cmp	r3, #0
 859 00dc 5BD0     		beq	.L34
1223:.\Generated_Source\PSoC4/CYBLE.c ****             {
1224:.\Generated_Source\PSoC4/CYBLE.c ****                 /* Reuse "adLength" to hold location of the last character of local name in 
1225:.\Generated_Source\PSoC4/CYBLE.c ****                    AD structure. */
1226:.\Generated_Source\PSoC4/CYBLE.c ****                 adLength += byteCounter;
 860              		.loc 1 1226 0
 861 00de 1523     		mov	r3, #21
 862 00e0 FB18     		add	r3, r7, r3
 863 00e2 1522     		mov	r2, #21
 864 00e4 B918     		add	r1, r7, r2
 865 00e6 1422     		mov	r2, #20
 866 00e8 BA18     		add	r2, r7, r2
 867 00ea 0978     		ldrb	r1, [r1]
 868 00ec 1278     		ldrb	r2, [r2]
 869 00ee 8A18     		add	r2, r1, r2
ARM GAS  C:\Users\sunyi\AppData\Local\Temp\ccXDbPBi.s 			page 38


 870 00f0 1A70     		strb	r2, [r3]
1227:.\Generated_Source\PSoC4/CYBLE.c ****                 
1228:.\Generated_Source\PSoC4/CYBLE.c ****                 /* Increment byte counter to point to start of the local Name string */
1229:.\Generated_Source\PSoC4/CYBLE.c ****                 byteCounter++;
 871              		.loc 1 1229 0
 872 00f2 1423     		mov	r3, #20
 873 00f4 FB18     		add	r3, r7, r3
 874 00f6 1A78     		ldrb	r2, [r3]
 875 00f8 1423     		mov	r3, #20
 876 00fa FB18     		add	r3, r7, r3
 877 00fc 0132     		add	r2, r2, #1
 878 00fe 1A70     		strb	r2, [r3]
1230:.\Generated_Source\PSoC4/CYBLE.c ****                 
1231:.\Generated_Source\PSoC4/CYBLE.c ****                 for(i = byteCounter; ((i < (adLength)) && (CYBLE_NULL_CHARCTER != name[i - byteCoun
 879              		.loc 1 1231 0
 880 0100 1723     		mov	r3, #23
 881 0102 FB18     		add	r3, r7, r3
 882 0104 1422     		mov	r2, #20
 883 0106 BA18     		add	r2, r7, r2
 884 0108 1278     		ldrb	r2, [r2]
 885 010a 1A70     		strb	r2, [r3]
 886 010c 17E0     		b	.L45
 887              	.L47:
1232:.\Generated_Source\PSoC4/CYBLE.c ****                 {
1233:.\Generated_Source\PSoC4/CYBLE.c ****                     destBuffer[i] = (uint8)name[i - byteCounter];
 888              		.loc 1 1233 0 discriminator 4
 889 010e 1723     		mov	r3, #23
 890 0110 FB18     		add	r3, r7, r3
 891 0112 1B78     		ldrb	r3, [r3]
 892 0114 3A69     		ldr	r2, [r7, #16]
 893 0116 D318     		add	r3, r2, r3
 894 0118 1722     		mov	r2, #23
 895 011a BA18     		add	r2, r7, r2
 896 011c 1178     		ldrb	r1, [r2]
 897 011e 1422     		mov	r2, #20
 898 0120 BA18     		add	r2, r7, r2
 899 0122 1278     		ldrb	r2, [r2]
 900 0124 8A1A     		sub	r2, r1, r2
 901 0126 111C     		mov	r1, r2
 902 0128 7A68     		ldr	r2, [r7, #4]
 903 012a 5218     		add	r2, r2, r1
 904 012c 1278     		ldrb	r2, [r2]
 905 012e 1A70     		strb	r2, [r3]
1231:.\Generated_Source\PSoC4/CYBLE.c ****                 {
 906              		.loc 1 1231 0 discriminator 4
 907 0130 1723     		mov	r3, #23
 908 0132 FB18     		add	r3, r7, r3
 909 0134 1A78     		ldrb	r2, [r3]
 910 0136 1723     		mov	r3, #23
 911 0138 FB18     		add	r3, r7, r3
 912 013a 0132     		add	r2, r2, #1
 913 013c 1A70     		strb	r2, [r3]
 914              	.L45:
1231:.\Generated_Source\PSoC4/CYBLE.c ****                 {
 915              		.loc 1 1231 0 is_stmt 0 discriminator 1
 916 013e 1723     		mov	r3, #23
 917 0140 FA18     		add	r2, r7, r3
ARM GAS  C:\Users\sunyi\AppData\Local\Temp\ccXDbPBi.s 			page 39


 918 0142 1523     		mov	r3, #21
 919 0144 FB18     		add	r3, r7, r3
 920 0146 1278     		ldrb	r2, [r2]
 921 0148 1B78     		ldrb	r3, [r3]
 922 014a 9A42     		cmp	r2, r3
 923 014c 0CD2     		bcs	.L46
1231:.\Generated_Source\PSoC4/CYBLE.c ****                 {
 924              		.loc 1 1231 0 discriminator 3
 925 014e 1723     		mov	r3, #23
 926 0150 FB18     		add	r3, r7, r3
 927 0152 1A78     		ldrb	r2, [r3]
 928 0154 1423     		mov	r3, #20
 929 0156 FB18     		add	r3, r7, r3
 930 0158 1B78     		ldrb	r3, [r3]
 931 015a D31A     		sub	r3, r2, r3
 932 015c 1A1C     		mov	r2, r3
 933 015e 7B68     		ldr	r3, [r7, #4]
 934 0160 9B18     		add	r3, r3, r2
 935 0162 1B78     		ldrb	r3, [r3]
 936 0164 002B     		cmp	r3, #0
 937 0166 D2D1     		bne	.L47
 938              	.L46:
1234:.\Generated_Source\PSoC4/CYBLE.c ****                 }
1235:.\Generated_Source\PSoC4/CYBLE.c ****                 
1236:.\Generated_Source\PSoC4/CYBLE.c ****                 /* This loop handles the case when new local name is shorted than old one.
1237:.\Generated_Source\PSoC4/CYBLE.c ****                    In this case all remaining characters should be null characters. */
1238:.\Generated_Source\PSoC4/CYBLE.c ****                 while(adLength > i)
 939              		.loc 1 1238 0 is_stmt 1
 940 0168 0DE0     		b	.L48
 941              	.L49:
1239:.\Generated_Source\PSoC4/CYBLE.c ****                 {
1240:.\Generated_Source\PSoC4/CYBLE.c ****                     /* Terminate string */
1241:.\Generated_Source\PSoC4/CYBLE.c ****                     destBuffer[i] = (uint8)CYBLE_NULL_CHARCTER;
 942              		.loc 1 1241 0
 943 016a 1723     		mov	r3, #23
 944 016c FB18     		add	r3, r7, r3
 945 016e 1B78     		ldrb	r3, [r3]
 946 0170 3A69     		ldr	r2, [r7, #16]
 947 0172 D318     		add	r3, r2, r3
 948 0174 0022     		mov	r2, #0
 949 0176 1A70     		strb	r2, [r3]
1242:.\Generated_Source\PSoC4/CYBLE.c ****                     i++;
 950              		.loc 1 1242 0
 951 0178 1723     		mov	r3, #23
 952 017a FB18     		add	r3, r7, r3
 953 017c 1A78     		ldrb	r2, [r3]
 954 017e 1723     		mov	r3, #23
 955 0180 FB18     		add	r3, r7, r3
 956 0182 0132     		add	r2, r2, #1
 957 0184 1A70     		strb	r2, [r3]
 958              	.L48:
1238:.\Generated_Source\PSoC4/CYBLE.c ****                 {
 959              		.loc 1 1238 0
 960 0186 1523     		mov	r3, #21
 961 0188 FA18     		add	r2, r7, r3
 962 018a 1723     		mov	r3, #23
 963 018c FB18     		add	r3, r7, r3
ARM GAS  C:\Users\sunyi\AppData\Local\Temp\ccXDbPBi.s 			page 40


 964 018e 1278     		ldrb	r2, [r2]
 965 0190 1B78     		ldrb	r3, [r3]
 966 0192 9A42     		cmp	r2, r3
 967 0194 E9D8     		bhi	.L49
 968              	.L34:
1243:.\Generated_Source\PSoC4/CYBLE.c ****                 }
1244:.\Generated_Source\PSoC4/CYBLE.c ****             }
1245:.\Generated_Source\PSoC4/CYBLE.c ****         }
 969              		.loc 1 1245 0
 970 0196 BD46     		mov	sp, r7
 971 0198 06B0     		add	sp, sp, #24
 972              		@ sp needed
 973 019a 80BD     		pop	{r7, pc}
 974              	.L51:
 975              		.align	2
 976              	.L50:
 977 019c 00000000 		.word	cyBle_discoveryData
 978 01a0 00000000 		.word	cyBle_scanRspData
 979              		.cfi_endproc
 980              	.LFE9:
 981              		.size	CyBle_ChangeAdLocalName, .-CyBle_ChangeAdLocalName
 982              		.section	.text.CyBle_GapSetLocalName,"ax",%progbits
 983              		.align	2
 984              		.global	CyBle_GapSetLocalName
 985              		.code	16
 986              		.thumb_func
 987              		.type	CyBle_GapSetLocalName, %function
 988              	CyBle_GapSetLocalName:
 989              	.LFB10:
1246:.\Generated_Source\PSoC4/CYBLE.c ****         
1247:.\Generated_Source\PSoC4/CYBLE.c **** #endif /* (CYBLE_GAP_ROLE_PERIPHERAL) */  
1248:.\Generated_Source\PSoC4/CYBLE.c ****     
1249:.\Generated_Source\PSoC4/CYBLE.c ****     
1250:.\Generated_Source\PSoC4/CYBLE.c ****     /******************************************************************************
1251:.\Generated_Source\PSoC4/CYBLE.c ****     * Function Name: CyBle_GapSetLocalName
1252:.\Generated_Source\PSoC4/CYBLE.c ****     ***************************************************************************//**
1253:.\Generated_Source\PSoC4/CYBLE.c ****     *  This API is used to set the local device name - a Characteristic of the 
1254:.\Generated_Source\PSoC4/CYBLE.c ****     *  GAP Service. If the characteristic length entered in the component customizer
1255:.\Generated_Source\PSoC4/CYBLE.c ****     *  is shorter than the string specified by the "name" parameter, the local device
1256:.\Generated_Source\PSoC4/CYBLE.c ****     *  name will be cut to the length specified in the customizer.
1257:.\Generated_Source\PSoC4/CYBLE.c ****     * 
1258:.\Generated_Source\PSoC4/CYBLE.c ****     *  \param name: The local device name string. The name string to be written as
1259:.\Generated_Source\PSoC4/CYBLE.c ****     *              the local device name. It represents a UTF-8 encoded User
1260:.\Generated_Source\PSoC4/CYBLE.c ****     *              Friendly Descriptive Name for the device. The length of the local
1261:.\Generated_Source\PSoC4/CYBLE.c ****     *              device string is entered into the component customizer and it can
1262:.\Generated_Source\PSoC4/CYBLE.c ****     *              be set to a value from 0 to 248 bytes. If the name contained in
1263:.\Generated_Source\PSoC4/CYBLE.c ****     *              the parameter is shorter than the length from the customizer, the
1264:.\Generated_Source\PSoC4/CYBLE.c ****     *              end of the name is indicated by a NULL octet (0x00).
1265:.\Generated_Source\PSoC4/CYBLE.c ****     * 
1266:.\Generated_Source\PSoC4/CYBLE.c ****     * \return
1267:.\Generated_Source\PSoC4/CYBLE.c ****     *  CYBLE_API_RESULT_T : Return value indicates if the function succeeded or 
1268:.\Generated_Source\PSoC4/CYBLE.c ****     *  failed. Following are the possible error codes.
1269:.\Generated_Source\PSoC4/CYBLE.c ****     *
1270:.\Generated_Source\PSoC4/CYBLE.c ****     *   Errors codes                       | Description
1271:.\Generated_Source\PSoC4/CYBLE.c ****     *   ------------                       | -----------
1272:.\Generated_Source\PSoC4/CYBLE.c ****     *   CYBLE_ERROR_OK                     | Function completed successfully.
1273:.\Generated_Source\PSoC4/CYBLE.c ****     *   CYBLE_ERROR_INVALID_PARAMETER      | On specifying NULL as input parameter
ARM GAS  C:\Users\sunyi\AppData\Local\Temp\ccXDbPBi.s 			page 41


1274:.\Generated_Source\PSoC4/CYBLE.c ****     *  
1275:.\Generated_Source\PSoC4/CYBLE.c ****     *******************************************************************************/
1276:.\Generated_Source\PSoC4/CYBLE.c ****     CYBLE_API_RESULT_T CyBle_GapSetLocalName(const char8 name[])
1277:.\Generated_Source\PSoC4/CYBLE.c ****     {
 990              		.loc 1 1277 0
 991              		.cfi_startproc
 992 0000 80B5     		push	{r7, lr}
 993              		.cfi_def_cfa_offset 8
 994              		.cfi_offset 7, -8
 995              		.cfi_offset 14, -4
 996 0002 86B0     		sub	sp, sp, #24
 997              		.cfi_def_cfa_offset 32
 998 0004 00AF     		add	r7, sp, #0
 999              		.cfi_def_cfa_register 7
 1000 0006 7860     		str	r0, [r7, #4]
1278:.\Generated_Source\PSoC4/CYBLE.c ****         CYBLE_API_RESULT_T apiResult = CYBLE_ERROR_OK;
 1001              		.loc 1 1278 0
 1002 0008 1623     		mov	r3, #22
 1003 000a FB18     		add	r3, r7, r3
 1004 000c 0022     		mov	r2, #0
 1005 000e 1A80     		strh	r2, [r3]
1279:.\Generated_Source\PSoC4/CYBLE.c ****         uint8 i;
1280:.\Generated_Source\PSoC4/CYBLE.c ****         char8 *ptr;
1281:.\Generated_Source\PSoC4/CYBLE.c ****         uint8 charLen;
1282:.\Generated_Source\PSoC4/CYBLE.c **** 
1283:.\Generated_Source\PSoC4/CYBLE.c ****         if(NULL != name)
 1006              		.loc 1 1283 0
 1007 0010 7B68     		ldr	r3, [r7, #4]
 1008 0012 002B     		cmp	r3, #0
 1009 0014 4AD0     		beq	.L53
1284:.\Generated_Source\PSoC4/CYBLE.c ****         {
1285:.\Generated_Source\PSoC4/CYBLE.c ****             /* Get the pointer to the Device Name characteristic  */
1286:.\Generated_Source\PSoC4/CYBLE.c ****             ptr = (char8 *) CYBLE_GATT_DB_ATTR_GET_ATTR_GEN_PTR(CYBLE_GAP_DEVICE_NAME_INDEX + 1u);
 1010              		.loc 1 1286 0
 1011 0016 2B4B     		ldr	r3, .L60
 1012 0018 9B6B     		ldr	r3, [r3, #56]
 1013 001a 5B68     		ldr	r3, [r3, #4]
 1014 001c 3B61     		str	r3, [r7, #16]
1287:.\Generated_Source\PSoC4/CYBLE.c **** 
1288:.\Generated_Source\PSoC4/CYBLE.c ****             /* First need to get the maximum length of the characteristic data in the GATT
1289:.\Generated_Source\PSoC4/CYBLE.c ****                 database to make sure there is enough place for the data. The length
1290:.\Generated_Source\PSoC4/CYBLE.c ****                 can't be longer than 248, so only the LSB of 16 bit of length is to
1291:.\Generated_Source\PSoC4/CYBLE.c ****                 be used. */
1292:.\Generated_Source\PSoC4/CYBLE.c ****             charLen = (uint8)CYBLE_GATT_DB_ATTR_GET_ATTR_GEN_MAX_LEN(CYBLE_GAP_DEVICE_NAME_INDEX + 
 1015              		.loc 1 1292 0
 1016 001e 294B     		ldr	r3, .L60
 1017 0020 9A8E     		ldrh	r2, [r3, #52]
 1018 0022 0F23     		mov	r3, #15
 1019 0024 FB18     		add	r3, r7, r3
 1020 0026 1A70     		strb	r2, [r3]
1293:.\Generated_Source\PSoC4/CYBLE.c **** 
1294:.\Generated_Source\PSoC4/CYBLE.c ****             /* Copy name into characteristic */
1295:.\Generated_Source\PSoC4/CYBLE.c ****             for(i = 0u; ((i < charLen) && (CYBLE_NULL_CHARCTER != name[i])); i++)
 1021              		.loc 1 1295 0
 1022 0028 1523     		mov	r3, #21
 1023 002a FB18     		add	r3, r7, r3
 1024 002c 0022     		mov	r2, #0
ARM GAS  C:\Users\sunyi\AppData\Local\Temp\ccXDbPBi.s 			page 42


 1025 002e 1A70     		strb	r2, [r3]
 1026 0030 12E0     		b	.L54
 1027              	.L56:
1296:.\Generated_Source\PSoC4/CYBLE.c ****             {
1297:.\Generated_Source\PSoC4/CYBLE.c ****                 ptr[i] = name[i];
 1028              		.loc 1 1297 0 discriminator 4
 1029 0032 1523     		mov	r3, #21
 1030 0034 FB18     		add	r3, r7, r3
 1031 0036 1B78     		ldrb	r3, [r3]
 1032 0038 3A69     		ldr	r2, [r7, #16]
 1033 003a D318     		add	r3, r2, r3
 1034 003c 1522     		mov	r2, #21
 1035 003e BA18     		add	r2, r7, r2
 1036 0040 1278     		ldrb	r2, [r2]
 1037 0042 7968     		ldr	r1, [r7, #4]
 1038 0044 8A18     		add	r2, r1, r2
 1039 0046 1278     		ldrb	r2, [r2]
 1040 0048 1A70     		strb	r2, [r3]
1295:.\Generated_Source\PSoC4/CYBLE.c ****             {
 1041              		.loc 1 1295 0 discriminator 4
 1042 004a 1523     		mov	r3, #21
 1043 004c FB18     		add	r3, r7, r3
 1044 004e 1A78     		ldrb	r2, [r3]
 1045 0050 1523     		mov	r3, #21
 1046 0052 FB18     		add	r3, r7, r3
 1047 0054 0132     		add	r2, r2, #1
 1048 0056 1A70     		strb	r2, [r3]
 1049              	.L54:
1295:.\Generated_Source\PSoC4/CYBLE.c ****             {
 1050              		.loc 1 1295 0 is_stmt 0 discriminator 1
 1051 0058 1523     		mov	r3, #21
 1052 005a FA18     		add	r2, r7, r3
 1053 005c 0F23     		mov	r3, #15
 1054 005e FB18     		add	r3, r7, r3
 1055 0060 1278     		ldrb	r2, [r2]
 1056 0062 1B78     		ldrb	r3, [r3]
 1057 0064 9A42     		cmp	r2, r3
 1058 0066 07D2     		bcs	.L55
1295:.\Generated_Source\PSoC4/CYBLE.c ****             {
 1059              		.loc 1 1295 0 discriminator 3
 1060 0068 1523     		mov	r3, #21
 1061 006a FB18     		add	r3, r7, r3
 1062 006c 1B78     		ldrb	r3, [r3]
 1063 006e 7A68     		ldr	r2, [r7, #4]
 1064 0070 D318     		add	r3, r2, r3
 1065 0072 1B78     		ldrb	r3, [r3]
 1066 0074 002B     		cmp	r3, #0
 1067 0076 DCD1     		bne	.L56
 1068              	.L55:
1298:.\Generated_Source\PSoC4/CYBLE.c ****             }
1299:.\Generated_Source\PSoC4/CYBLE.c **** 
1300:.\Generated_Source\PSoC4/CYBLE.c ****             if(i < charLen)
 1069              		.loc 1 1300 0 is_stmt 1
 1070 0078 1523     		mov	r3, #21
 1071 007a FA18     		add	r2, r7, r3
 1072 007c 0F23     		mov	r3, #15
 1073 007e FB18     		add	r3, r7, r3
ARM GAS  C:\Users\sunyi\AppData\Local\Temp\ccXDbPBi.s 			page 43


 1074 0080 1278     		ldrb	r2, [r2]
 1075 0082 1B78     		ldrb	r3, [r3]
 1076 0084 9A42     		cmp	r2, r3
 1077 0086 06D2     		bcs	.L57
1301:.\Generated_Source\PSoC4/CYBLE.c ****             {
1302:.\Generated_Source\PSoC4/CYBLE.c ****                 /* Terminate string */
1303:.\Generated_Source\PSoC4/CYBLE.c ****                 ptr[i] = CYBLE_NULL_CHARCTER;
 1078              		.loc 1 1303 0
 1079 0088 1523     		mov	r3, #21
 1080 008a FB18     		add	r3, r7, r3
 1081 008c 1B78     		ldrb	r3, [r3]
 1082 008e 3A69     		ldr	r2, [r7, #16]
 1083 0090 D318     		add	r3, r2, r3
 1084 0092 0022     		mov	r2, #0
 1085 0094 1A70     		strb	r2, [r3]
 1086              	.L57:
1304:.\Generated_Source\PSoC4/CYBLE.c ****             }
1305:.\Generated_Source\PSoC4/CYBLE.c ****             
1306:.\Generated_Source\PSoC4/CYBLE.c ****             /* Set new actual length */
1307:.\Generated_Source\PSoC4/CYBLE.c ****             
1308:.\Generated_Source\PSoC4/CYBLE.c ****             /* Update device name in advertising and scan response structure */
1309:.\Generated_Source\PSoC4/CYBLE.c ****             #if(CYBLE_GAP_ROLE_PERIPHERAL)
1310:.\Generated_Source\PSoC4/CYBLE.c ****                 CyBle_ChangeAdLocalName(name, 0u);
 1087              		.loc 1 1310 0
 1088 0096 7B68     		ldr	r3, [r7, #4]
 1089 0098 181C     		mov	r0, r3
 1090 009a 0021     		mov	r1, #0
 1091 009c FFF7FEFF 		bl	CyBle_ChangeAdLocalName
1311:.\Generated_Source\PSoC4/CYBLE.c ****                 CyBle_ChangeAdLocalName(name, 1u);
 1092              		.loc 1 1311 0
 1093 00a0 7B68     		ldr	r3, [r7, #4]
 1094 00a2 181C     		mov	r0, r3
 1095 00a4 0121     		mov	r1, #1
 1096 00a6 FFF7FEFF 		bl	CyBle_ChangeAdLocalName
 1097 00aa 03E0     		b	.L58
 1098              	.L53:
1312:.\Generated_Source\PSoC4/CYBLE.c ****             #endif /* (CYBLE_GAP_ROLE_PERIPHERAL) */
1313:.\Generated_Source\PSoC4/CYBLE.c ****         }
1314:.\Generated_Source\PSoC4/CYBLE.c ****         else
1315:.\Generated_Source\PSoC4/CYBLE.c ****         {
1316:.\Generated_Source\PSoC4/CYBLE.c ****             apiResult = CYBLE_ERROR_INVALID_PARAMETER;
 1099              		.loc 1 1316 0
 1100 00ac 1623     		mov	r3, #22
 1101 00ae FB18     		add	r3, r7, r3
 1102 00b0 0122     		mov	r2, #1
 1103 00b2 1A80     		strh	r2, [r3]
 1104              	.L58:
1317:.\Generated_Source\PSoC4/CYBLE.c ****         }
1318:.\Generated_Source\PSoC4/CYBLE.c ****         
1319:.\Generated_Source\PSoC4/CYBLE.c ****         return(apiResult);
 1105              		.loc 1 1319 0
 1106 00b4 1623     		mov	r3, #22
 1107 00b6 FB18     		add	r3, r7, r3
 1108 00b8 1B88     		ldrh	r3, [r3]
1320:.\Generated_Source\PSoC4/CYBLE.c ****     }
 1109              		.loc 1 1320 0
 1110 00ba 181C     		mov	r0, r3
ARM GAS  C:\Users\sunyi\AppData\Local\Temp\ccXDbPBi.s 			page 44


 1111 00bc BD46     		mov	sp, r7
 1112 00be 06B0     		add	sp, sp, #24
 1113              		@ sp needed
 1114 00c0 80BD     		pop	{r7, pc}
 1115              	.L61:
 1116 00c2 C046     		.align	2
 1117              	.L60:
 1118 00c4 00000000 		.word	cyBle_gattDB
 1119              		.cfi_endproc
 1120              	.LFE10:
 1121              		.size	CyBle_GapSetLocalName, .-CyBle_GapSetLocalName
 1122              		.section	.text.CyBle_GapGetLocalName,"ax",%progbits
 1123              		.align	2
 1124              		.global	CyBle_GapGetLocalName
 1125              		.code	16
 1126              		.thumb_func
 1127              		.type	CyBle_GapGetLocalName, %function
 1128              	CyBle_GapGetLocalName:
 1129              	.LFB11:
1321:.\Generated_Source\PSoC4/CYBLE.c **** 
1322:.\Generated_Source\PSoC4/CYBLE.c **** 
1323:.\Generated_Source\PSoC4/CYBLE.c ****     /******************************************************************************
1324:.\Generated_Source\PSoC4/CYBLE.c ****     * Function Name: CyBle_GapGetLocalName
1325:.\Generated_Source\PSoC4/CYBLE.c ****     ***************************************************************************//**
1326:.\Generated_Source\PSoC4/CYBLE.c ****     *  
1327:.\Generated_Source\PSoC4/CYBLE.c ****     *  This API is used to read the local device name - a Characteristic of the 
1328:.\Generated_Source\PSoC4/CYBLE.c ****     *  GAP Service.
1329:.\Generated_Source\PSoC4/CYBLE.c ****     * 
1330:.\Generated_Source\PSoC4/CYBLE.c ****     * \param name: The local device name string. Used to read the local name to the
1331:.\Generated_Source\PSoC4/CYBLE.c ****     *             given string array. It represents a UTF-8 encoded User Friendly 
1332:.\Generated_Source\PSoC4/CYBLE.c ****     *             Descriptive Name for the device. The length of the local device
1333:.\Generated_Source\PSoC4/CYBLE.c ****     *             string is entered into the component customizer and it can be set
1334:.\Generated_Source\PSoC4/CYBLE.c ****     *             to a value from 0 to 248 bytes. If the name contained in the
1335:.\Generated_Source\PSoC4/CYBLE.c ****     *             parameter is shorter than the length from the customizer, the end
1336:.\Generated_Source\PSoC4/CYBLE.c ****     *             of the name is indicated by a NULL octet (0x00).
1337:.\Generated_Source\PSoC4/CYBLE.c ****     * 
1338:.\Generated_Source\PSoC4/CYBLE.c ****     * \return
1339:.\Generated_Source\PSoC4/CYBLE.c ****     *  CYBLE_API_RESULT_T : Return value indicates if the function succeeded or 
1340:.\Generated_Source\PSoC4/CYBLE.c ****     *  failed. Following are the possible error codes.
1341:.\Generated_Source\PSoC4/CYBLE.c ****     *
1342:.\Generated_Source\PSoC4/CYBLE.c ****     *   Errors codes                       | Description
1343:.\Generated_Source\PSoC4/CYBLE.c ****     *   ------------                       | -----------
1344:.\Generated_Source\PSoC4/CYBLE.c ****     *   CYBLE_ERROR_OK                     | Function completed successfully.
1345:.\Generated_Source\PSoC4/CYBLE.c ****     *   CYBLE_ERROR_INVALID_PARAMETER      | On specifying NULL as input parameter
1346:.\Generated_Source\PSoC4/CYBLE.c ****     *
1347:.\Generated_Source\PSoC4/CYBLE.c ****     *******************************************************************************/
1348:.\Generated_Source\PSoC4/CYBLE.c ****     CYBLE_API_RESULT_T CyBle_GapGetLocalName(char8 name[])
1349:.\Generated_Source\PSoC4/CYBLE.c ****     {
 1130              		.loc 1 1349 0
 1131              		.cfi_startproc
 1132 0000 80B5     		push	{r7, lr}
 1133              		.cfi_def_cfa_offset 8
 1134              		.cfi_offset 7, -8
 1135              		.cfi_offset 14, -4
 1136 0002 86B0     		sub	sp, sp, #24
 1137              		.cfi_def_cfa_offset 32
 1138 0004 00AF     		add	r7, sp, #0
ARM GAS  C:\Users\sunyi\AppData\Local\Temp\ccXDbPBi.s 			page 45


 1139              		.cfi_def_cfa_register 7
 1140 0006 7860     		str	r0, [r7, #4]
1350:.\Generated_Source\PSoC4/CYBLE.c ****         CYBLE_API_RESULT_T apiResult = CYBLE_ERROR_OK;
 1141              		.loc 1 1350 0
 1142 0008 1623     		mov	r3, #22
 1143 000a FB18     		add	r3, r7, r3
 1144 000c 0022     		mov	r2, #0
 1145 000e 1A80     		strh	r2, [r3]
1351:.\Generated_Source\PSoC4/CYBLE.c ****         uint8 charLen;
1352:.\Generated_Source\PSoC4/CYBLE.c ****         uint8 i;
1353:.\Generated_Source\PSoC4/CYBLE.c ****         char8 *ptr;
1354:.\Generated_Source\PSoC4/CYBLE.c **** 
1355:.\Generated_Source\PSoC4/CYBLE.c ****         if(NULL != name)
 1146              		.loc 1 1355 0
 1147 0010 7B68     		ldr	r3, [r7, #4]
 1148 0012 002B     		cmp	r3, #0
 1149 0014 39D0     		beq	.L63
1356:.\Generated_Source\PSoC4/CYBLE.c ****         {
1357:.\Generated_Source\PSoC4/CYBLE.c ****             /* Get the pointer to the Device Name characteristic  */
1358:.\Generated_Source\PSoC4/CYBLE.c ****             ptr = (char8 *) CYBLE_GATT_DB_ATTR_GET_ATTR_GEN_PTR(CYBLE_GAP_DEVICE_NAME_INDEX + 1u);
 1150              		.loc 1 1358 0
 1151 0016 224B     		ldr	r3, .L69
 1152 0018 9B6B     		ldr	r3, [r3, #56]
 1153 001a 5B68     		ldr	r3, [r3, #4]
 1154 001c 3B61     		str	r3, [r7, #16]
1359:.\Generated_Source\PSoC4/CYBLE.c **** 
1360:.\Generated_Source\PSoC4/CYBLE.c ****             /* First need to get the length of the characteristic data in the GATT
1361:.\Generated_Source\PSoC4/CYBLE.c ****                 database to make sure there is enough place for the data. The length
1362:.\Generated_Source\PSoC4/CYBLE.c ****                 can't be longer than 248, so only the LSB of 16 bit of length is to
1363:.\Generated_Source\PSoC4/CYBLE.c ****                 be used. */
1364:.\Generated_Source\PSoC4/CYBLE.c ****             charLen = (uint8)CYBLE_GATT_DB_ATTR_GET_ATTR_GEN_LEN(CYBLE_GAP_DEVICE_NAME_INDEX + 1u);
 1155              		.loc 1 1364 0
 1156 001e 204B     		ldr	r3, .L69
 1157 0020 9B6B     		ldr	r3, [r3, #56]
 1158 0022 1A88     		ldrh	r2, [r3]
 1159 0024 0F23     		mov	r3, #15
 1160 0026 FB18     		add	r3, r7, r3
 1161 0028 1A70     		strb	r2, [r3]
1365:.\Generated_Source\PSoC4/CYBLE.c **** 
1366:.\Generated_Source\PSoC4/CYBLE.c ****             /* Copy name from characteristic */
1367:.\Generated_Source\PSoC4/CYBLE.c ****             for(i = 0u; ((i < charLen) && (CYBLE_NULL_CHARCTER != ptr[i])); i++)
 1162              		.loc 1 1367 0
 1163 002a 1523     		mov	r3, #21
 1164 002c FB18     		add	r3, r7, r3
 1165 002e 0022     		mov	r2, #0
 1166 0030 1A70     		strb	r2, [r3]
 1167 0032 12E0     		b	.L64
 1168              	.L66:
1368:.\Generated_Source\PSoC4/CYBLE.c ****             {
1369:.\Generated_Source\PSoC4/CYBLE.c ****                 name[i] = ptr[i];
 1169              		.loc 1 1369 0 discriminator 4
 1170 0034 1523     		mov	r3, #21
 1171 0036 FB18     		add	r3, r7, r3
 1172 0038 1B78     		ldrb	r3, [r3]
 1173 003a 7A68     		ldr	r2, [r7, #4]
 1174 003c D318     		add	r3, r2, r3
 1175 003e 1522     		mov	r2, #21
ARM GAS  C:\Users\sunyi\AppData\Local\Temp\ccXDbPBi.s 			page 46


 1176 0040 BA18     		add	r2, r7, r2
 1177 0042 1278     		ldrb	r2, [r2]
 1178 0044 3969     		ldr	r1, [r7, #16]
 1179 0046 8A18     		add	r2, r1, r2
 1180 0048 1278     		ldrb	r2, [r2]
 1181 004a 1A70     		strb	r2, [r3]
1367:.\Generated_Source\PSoC4/CYBLE.c ****             {
 1182              		.loc 1 1367 0 discriminator 4
 1183 004c 1523     		mov	r3, #21
 1184 004e FB18     		add	r3, r7, r3
 1185 0050 1A78     		ldrb	r2, [r3]
 1186 0052 1523     		mov	r3, #21
 1187 0054 FB18     		add	r3, r7, r3
 1188 0056 0132     		add	r2, r2, #1
 1189 0058 1A70     		strb	r2, [r3]
 1190              	.L64:
1367:.\Generated_Source\PSoC4/CYBLE.c ****             {
 1191              		.loc 1 1367 0 is_stmt 0 discriminator 1
 1192 005a 1523     		mov	r3, #21
 1193 005c FA18     		add	r2, r7, r3
 1194 005e 0F23     		mov	r3, #15
 1195 0060 FB18     		add	r3, r7, r3
 1196 0062 1278     		ldrb	r2, [r2]
 1197 0064 1B78     		ldrb	r3, [r3]
 1198 0066 9A42     		cmp	r2, r3
 1199 0068 07D2     		bcs	.L65
1367:.\Generated_Source\PSoC4/CYBLE.c ****             {
 1200              		.loc 1 1367 0 discriminator 3
 1201 006a 1523     		mov	r3, #21
 1202 006c FB18     		add	r3, r7, r3
 1203 006e 1B78     		ldrb	r3, [r3]
 1204 0070 3A69     		ldr	r2, [r7, #16]
 1205 0072 D318     		add	r3, r2, r3
 1206 0074 1B78     		ldrb	r3, [r3]
 1207 0076 002B     		cmp	r3, #0
 1208 0078 DCD1     		bne	.L66
 1209              	.L65:
1370:.\Generated_Source\PSoC4/CYBLE.c ****             }
1371:.\Generated_Source\PSoC4/CYBLE.c **** 
1372:.\Generated_Source\PSoC4/CYBLE.c ****             /* Terminate string */
1373:.\Generated_Source\PSoC4/CYBLE.c ****             name[i] = CYBLE_NULL_CHARCTER;
 1210              		.loc 1 1373 0 is_stmt 1
 1211 007a 1523     		mov	r3, #21
 1212 007c FB18     		add	r3, r7, r3
 1213 007e 1B78     		ldrb	r3, [r3]
 1214 0080 7A68     		ldr	r2, [r7, #4]
 1215 0082 D318     		add	r3, r2, r3
 1216 0084 0022     		mov	r2, #0
 1217 0086 1A70     		strb	r2, [r3]
 1218 0088 03E0     		b	.L67
 1219              	.L63:
1374:.\Generated_Source\PSoC4/CYBLE.c ****         }
1375:.\Generated_Source\PSoC4/CYBLE.c ****         else
1376:.\Generated_Source\PSoC4/CYBLE.c ****         {
1377:.\Generated_Source\PSoC4/CYBLE.c ****             apiResult = CYBLE_ERROR_INVALID_PARAMETER;
 1220              		.loc 1 1377 0
 1221 008a 1623     		mov	r3, #22
ARM GAS  C:\Users\sunyi\AppData\Local\Temp\ccXDbPBi.s 			page 47


 1222 008c FB18     		add	r3, r7, r3
 1223 008e 0122     		mov	r2, #1
 1224 0090 1A80     		strh	r2, [r3]
 1225              	.L67:
1378:.\Generated_Source\PSoC4/CYBLE.c ****         }
1379:.\Generated_Source\PSoC4/CYBLE.c ****         
1380:.\Generated_Source\PSoC4/CYBLE.c ****         return(apiResult);
 1226              		.loc 1 1380 0
 1227 0092 1623     		mov	r3, #22
 1228 0094 FB18     		add	r3, r7, r3
 1229 0096 1B88     		ldrh	r3, [r3]
1381:.\Generated_Source\PSoC4/CYBLE.c ****     }
 1230              		.loc 1 1381 0
 1231 0098 181C     		mov	r0, r3
 1232 009a BD46     		mov	sp, r7
 1233 009c 06B0     		add	sp, sp, #24
 1234              		@ sp needed
 1235 009e 80BD     		pop	{r7, pc}
 1236              	.L70:
 1237              		.align	2
 1238              	.L69:
 1239 00a0 00000000 		.word	cyBle_gattDB
 1240              		.cfi_endproc
 1241              	.LFE11:
 1242              		.size	CyBle_GapGetLocalName, .-CyBle_GapGetLocalName
 1243              		.section	.text.CyBle_Get16ByPtr,"ax",%progbits
 1244              		.align	2
 1245              		.global	CyBle_Get16ByPtr
 1246              		.code	16
 1247              		.thumb_func
 1248              		.type	CyBle_Get16ByPtr, %function
 1249              	CyBle_Get16ByPtr:
 1250              	.LFB12:
1382:.\Generated_Source\PSoC4/CYBLE.c **** 
1383:.\Generated_Source\PSoC4/CYBLE.c **** #endif /* (CYBLE_GATT_ROLE_SERVER) */
1384:.\Generated_Source\PSoC4/CYBLE.c **** 
1385:.\Generated_Source\PSoC4/CYBLE.c **** 
1386:.\Generated_Source\PSoC4/CYBLE.c **** /******************************************************************************
1387:.\Generated_Source\PSoC4/CYBLE.c **** * Function Name: CyBle_Get16ByPtr
1388:.\Generated_Source\PSoC4/CYBLE.c **** ***************************************************************************//**
1389:.\Generated_Source\PSoC4/CYBLE.c **** * 
1390:.\Generated_Source\PSoC4/CYBLE.c **** *  Returns the two-bytes value by using a pointer to the LSB.
1391:.\Generated_Source\PSoC4/CYBLE.c **** * 
1392:.\Generated_Source\PSoC4/CYBLE.c **** *  \param ptr: Pointer to the LSB of two-bytes data (little endian).
1393:.\Generated_Source\PSoC4/CYBLE.c **** * 
1394:.\Generated_Source\PSoC4/CYBLE.c **** *  \return
1395:.\Generated_Source\PSoC4/CYBLE.c **** *  uint16: Two-bytes data.
1396:.\Generated_Source\PSoC4/CYBLE.c **** * 
1397:.\Generated_Source\PSoC4/CYBLE.c **** ******************************************************************************/
1398:.\Generated_Source\PSoC4/CYBLE.c **** uint16 CyBle_Get16ByPtr(const uint8 ptr[])
1399:.\Generated_Source\PSoC4/CYBLE.c **** {
 1251              		.loc 1 1399 0
 1252              		.cfi_startproc
 1253 0000 80B5     		push	{r7, lr}
 1254              		.cfi_def_cfa_offset 8
 1255              		.cfi_offset 7, -8
 1256              		.cfi_offset 14, -4
ARM GAS  C:\Users\sunyi\AppData\Local\Temp\ccXDbPBi.s 			page 48


 1257 0002 82B0     		sub	sp, sp, #8
 1258              		.cfi_def_cfa_offset 16
 1259 0004 00AF     		add	r7, sp, #0
 1260              		.cfi_def_cfa_register 7
 1261 0006 7860     		str	r0, [r7, #4]
1400:.\Generated_Source\PSoC4/CYBLE.c ****     return ((uint16) ptr[0u] | ((uint16) (((uint16) ptr[1u]) << 8u)));
 1262              		.loc 1 1400 0
 1263 0008 7B68     		ldr	r3, [r7, #4]
 1264 000a 1B78     		ldrb	r3, [r3]
 1265 000c 9AB2     		uxth	r2, r3
 1266 000e 7B68     		ldr	r3, [r7, #4]
 1267 0010 0133     		add	r3, r3, #1
 1268 0012 1B78     		ldrb	r3, [r3]
 1269 0014 9BB2     		uxth	r3, r3
 1270 0016 1B02     		lsl	r3, r3, #8
 1271 0018 9BB2     		uxth	r3, r3
 1272 001a 1343     		orr	r3, r2
 1273 001c 9BB2     		uxth	r3, r3
1401:.\Generated_Source\PSoC4/CYBLE.c **** }
 1274              		.loc 1 1401 0
 1275 001e 181C     		mov	r0, r3
 1276 0020 BD46     		mov	sp, r7
 1277 0022 02B0     		add	sp, sp, #8
 1278              		@ sp needed
 1279 0024 80BD     		pop	{r7, pc}
 1280              		.cfi_endproc
 1281              	.LFE12:
 1282              		.size	CyBle_Get16ByPtr, .-CyBle_Get16ByPtr
 1283 0026 C046     		.section	.text.CyBle_Set16ByPtr,"ax",%progbits
 1284              		.align	2
 1285              		.global	CyBle_Set16ByPtr
 1286              		.code	16
 1287              		.thumb_func
 1288              		.type	CyBle_Set16ByPtr, %function
 1289              	CyBle_Set16ByPtr:
 1290              	.LFB13:
1402:.\Generated_Source\PSoC4/CYBLE.c **** 
1403:.\Generated_Source\PSoC4/CYBLE.c **** 
1404:.\Generated_Source\PSoC4/CYBLE.c **** /******************************************************************************
1405:.\Generated_Source\PSoC4/CYBLE.c **** * Function Name: CyBle_Set16ByPtr
1406:.\Generated_Source\PSoC4/CYBLE.c **** ***************************************************************************//**
1407:.\Generated_Source\PSoC4/CYBLE.c **** * 
1408:.\Generated_Source\PSoC4/CYBLE.c **** *  Sets the two-bytes value by using a pointer to the LSB.
1409:.\Generated_Source\PSoC4/CYBLE.c **** * 
1410:.\Generated_Source\PSoC4/CYBLE.c **** *  \param ptr:    Pointer to the LSB of two-bytes data (little endian).
1411:.\Generated_Source\PSoC4/CYBLE.c **** *  \param value:  Two-bytes data to be written.
1412:.\Generated_Source\PSoC4/CYBLE.c **** * 
1413:.\Generated_Source\PSoC4/CYBLE.c **** *  \return
1414:.\Generated_Source\PSoC4/CYBLE.c **** *  None
1415:.\Generated_Source\PSoC4/CYBLE.c **** * 
1416:.\Generated_Source\PSoC4/CYBLE.c **** ******************************************************************************/
1417:.\Generated_Source\PSoC4/CYBLE.c **** void CyBle_Set16ByPtr(uint8 ptr[], uint16 value)
1418:.\Generated_Source\PSoC4/CYBLE.c **** {
 1291              		.loc 1 1418 0
 1292              		.cfi_startproc
 1293 0000 80B5     		push	{r7, lr}
 1294              		.cfi_def_cfa_offset 8
ARM GAS  C:\Users\sunyi\AppData\Local\Temp\ccXDbPBi.s 			page 49


 1295              		.cfi_offset 7, -8
 1296              		.cfi_offset 14, -4
 1297 0002 82B0     		sub	sp, sp, #8
 1298              		.cfi_def_cfa_offset 16
 1299 0004 00AF     		add	r7, sp, #0
 1300              		.cfi_def_cfa_register 7
 1301 0006 7860     		str	r0, [r7, #4]
 1302 0008 0A1C     		mov	r2, r1
 1303 000a BB1C     		add	r3, r7, #2
 1304 000c 1A80     		strh	r2, [r3]
1419:.\Generated_Source\PSoC4/CYBLE.c ****     ptr[0u] = (uint8) value;
 1305              		.loc 1 1419 0
 1306 000e BB1C     		add	r3, r7, #2
 1307 0010 1B88     		ldrh	r3, [r3]
 1308 0012 DAB2     		uxtb	r2, r3
 1309 0014 7B68     		ldr	r3, [r7, #4]
 1310 0016 1A70     		strb	r2, [r3]
1420:.\Generated_Source\PSoC4/CYBLE.c ****     ptr[1u] = (uint8) (value >> 8u);
 1311              		.loc 1 1420 0
 1312 0018 7B68     		ldr	r3, [r7, #4]
 1313 001a 0133     		add	r3, r3, #1
 1314 001c BA1C     		add	r2, r7, #2
 1315 001e 1288     		ldrh	r2, [r2]
 1316 0020 120A     		lsr	r2, r2, #8
 1317 0022 92B2     		uxth	r2, r2
 1318 0024 D2B2     		uxtb	r2, r2
 1319 0026 1A70     		strb	r2, [r3]
1421:.\Generated_Source\PSoC4/CYBLE.c **** }
 1320              		.loc 1 1421 0
 1321 0028 BD46     		mov	sp, r7
 1322 002a 02B0     		add	sp, sp, #8
 1323              		@ sp needed
 1324 002c 80BD     		pop	{r7, pc}
 1325              		.cfi_endproc
 1326              	.LFE13:
 1327              		.size	CyBle_Set16ByPtr, .-CyBle_Set16ByPtr
 1328 002e C046     		.text
 1329              	.Letext0:
 1330              		.file 2 ".\\Generated_Source\\PSoC4\\cytypes.h"
 1331              		.file 3 ".\\Generated_Source\\PSoC4\\CYBLE_Stack.h"
 1332              		.file 4 ".\\Generated_Source\\PSoC4\\CYBLE_StackGap.h"
 1333              		.file 5 ".\\Generated_Source\\PSoC4\\CYBLE_StackGattDb.h"
 1334              		.file 6 ".\\Generated_Source\\PSoC4\\CYBLE.h"
 1335              		.file 7 ".\\Generated_Source\\PSoC4\\CYBLE_eventHandler.h"
 1336              		.file 8 ".\\Generated_Source\\PSoC4\\CYBLE_gatt.h"