ARM GAS  C:\Users\sunyi\AppData\Local\Temp\ccXDbPBi.s 			page 1


   1              		.cpu cortex-m0
   2              		.fpu softvfp
   3              		.eabi_attribute 20, 1
   4              		.eabi_attribute 21, 1
   5              		.eabi_attribute 23, 3
   6              		.eabi_attribute 24, 1
   7              		.eabi_attribute 25, 1
   8              		.eabi_attribute 26, 1
   9              		.eabi_attribute 30, 6
  10              		.eabi_attribute 34, 0
  11              		.eabi_attribute 18, 4
  12              		.code	16
  13              		.file	"CYBLE.c"
  14              		.text
  15              	.Ltext0:
  16              		.cfi_sections	.debug_frame
  17              		.global	cyBle_initVar
  18              		.bss
  19              		.type	cyBle_initVar, %object
  20              		.size	cyBle_initVar, 1
  21              	cyBle_initVar:
  22 0000 00       		.space	1
  23              		.global	cyBle_stackMemoryRam
  24              		.section	.noinit,"aw",%progbits
  25              		.align	3
  26              		.type	cyBle_stackMemoryRam, %object
  27              		.size	cyBle_stackMemoryRam, 2784
  28              	cyBle_stackMemoryRam:
  29 0000 00000000 		.space	2784
  29      00000000 
  29      00000000 
  29      00000000 
  29      00000000 
  30              		.global	cyBle_discoveryParam
  31              		.data
  32              		.align	2
  33              		.type	cyBle_discoveryParam, %object
  34              		.size	cyBle_discoveryParam, 16
  35              	cyBle_discoveryParam:
  36 0000 2000     		.short	32
  37 0002 3000     		.short	48
  38 0004 00       		.byte	0
  39 0005 00       		.byte	0
  40 0006 00       		.byte	0
  41 0007 00       		.byte	0
  42 0008 00       		.byte	0
  43 0009 00       		.byte	0
  44 000a 50       		.byte	80
  45 000b A0       		.byte	-96
  46 000c 00       		.byte	0
  47 000d 07       		.byte	7
  48 000e 00       		.byte	0
  49 000f 00       		.space	1
  50              		.global	cyBle_discoveryData
  51              		.align	2
  52              		.type	cyBle_discoveryData, %object
  53              		.size	cyBle_discoveryData, 32
ARM GAS  C:\Users\sunyi\AppData\Local\Temp\ccXDbPBi.s 			page 2


  54              	cyBle_discoveryData:
  55 0010 02       		.byte	2
  56 0011 01       		.byte	1
  57 0012 05       		.byte	5
  58 0013 0A       		.byte	10
  59 0014 08       		.byte	8
  60 0015 50       		.byte	80
  61 0016 72       		.byte	114
  62 0017 6F       		.byte	111
  63 0018 78       		.byte	120
  64 0019 69       		.byte	105
  65 001a 6D       		.byte	109
  66 001b 69       		.byte	105
  67 001c 74       		.byte	116
  68 001d 79       		.byte	121
  69 001e 05       		.byte	5
  70 001f 03       		.byte	3
  71 0020 03       		.byte	3
  72 0021 18       		.byte	24
  73 0022 04       		.byte	4
  74 0023 18       		.byte	24
  75 0024 00       		.byte	0
  76 0025 00       		.byte	0
  77 0026 00       		.byte	0
  78 0027 00       		.byte	0
  79 0028 00       		.byte	0
  80 0029 00       		.byte	0
  81 002a 00       		.byte	0
  82 002b 00       		.byte	0
  83 002c 00       		.byte	0
  84 002d 00       		.byte	0
  85 002e 00       		.byte	0
  86 002f 14       		.byte	20
  87              		.global	cyBle_scanRspData
  88              		.bss
  89 0001 000000   		.align	2
  90              		.type	cyBle_scanRspData, %object
  91              		.size	cyBle_scanRspData, 32
  92              	cyBle_scanRspData:
  93 0004 00000000 		.space	32
  93      00000000 
  93      00000000 
  93      00000000 
  93      00000000 
  94              		.global	cyBle_discoveryModeInfo
  95              		.data
  96              		.align	2
  97              		.type	cyBle_discoveryModeInfo, %object
  98              		.size	cyBle_discoveryModeInfo, 20
  99              	cyBle_discoveryModeInfo:
 100 0030 01       		.byte	1
 101 0031 000000   		.space	3
 102 0034 00000000 		.word	cyBle_discoveryParam
 103 0038 00000000 		.word	cyBle_discoveryData
 104 003c 00000000 		.word	cyBle_scanRspData
 105 0040 1E00     		.short	30
 106 0042 0000     		.space	2
ARM GAS  C:\Users\sunyi\AppData\Local\Temp\ccXDbPBi.s 			page 3


 107              		.comm	CyBle_ApplCallback,4,4
 108              		.global	cyBle_deviceAddress
 109              		.align	2
 110              		.type	cyBle_deviceAddress, %object
 111              		.size	cyBle_deviceAddress, 7
 112              	cyBle_deviceAddress:
 113 0044 00       		.byte	0
 114 0045 00       		.byte	0
 115 0046 00       		.byte	0
 116 0047 50       		.byte	80
 117 0048 A0       		.byte	-96
 118 0049 00       		.byte	0
 119 004a 00       		.byte	0
 120              		.global	cyBle_sflashDeviceAddress
 121 004b 00       		.align	2
 122              		.type	cyBle_sflashDeviceAddress, %object
 123              		.size	cyBle_sflashDeviceAddress, 4
 124              	cyBle_sflashDeviceAddress:
 125 004c 00F2FF0F 		.word	268431872
 126              		.section	.text.CyBle_Init,"ax",%progbits
 127              		.align	2
 128              		.global	CyBle_Init
 129              		.code	16
 130              		.thumb_func
 131              		.type	CyBle_Init, %function
 132              	CyBle_Init:
 133              	.LFB2:
 134              		.file 1 ".\\Generated_Source\\PSoC4\\CYBLE.c"
   1:.\Generated_Source\PSoC4/CYBLE.c **** /***************************************************************************//**
   2:.\Generated_Source\PSoC4/CYBLE.c **** * \file CYBLE.c
   3:.\Generated_Source\PSoC4/CYBLE.c **** * \version 3.10
   4:.\Generated_Source\PSoC4/CYBLE.c **** * 
   5:.\Generated_Source\PSoC4/CYBLE.c **** * \brief
   6:.\Generated_Source\PSoC4/CYBLE.c **** *  This file contains the source code for the Common APIs of the BLE Component.
   7:.\Generated_Source\PSoC4/CYBLE.c **** * 
   8:.\Generated_Source\PSoC4/CYBLE.c **** ********************************************************************************
   9:.\Generated_Source\PSoC4/CYBLE.c **** * \copyright
  10:.\Generated_Source\PSoC4/CYBLE.c **** * Copyright 2014-2016, Cypress Semiconductor Corporation.  All rights reserved.
  11:.\Generated_Source\PSoC4/CYBLE.c **** * You may use this file only in accordance with the license, terms, conditions,
  12:.\Generated_Source\PSoC4/CYBLE.c **** * disclaimers, and limitations in the end user license agreement accompanying
  13:.\Generated_Source\PSoC4/CYBLE.c **** * the software package with which this file was provided.
  14:.\Generated_Source\PSoC4/CYBLE.c **** *******************************************************************************/
  15:.\Generated_Source\PSoC4/CYBLE.c **** 
  16:.\Generated_Source\PSoC4/CYBLE.c **** #include "CYBLE_eventHandler.h"
  17:.\Generated_Source\PSoC4/CYBLE.c **** #include "CYBLE_HAL_PVT.h"
  18:.\Generated_Source\PSoC4/CYBLE.c **** #include <stdlib.h>
  19:.\Generated_Source\PSoC4/CYBLE.c **** 
  20:.\Generated_Source\PSoC4/CYBLE.c **** 
  21:.\Generated_Source\PSoC4/CYBLE.c **** /***************************************
  22:.\Generated_Source\PSoC4/CYBLE.c **** * Function Prototypes
  23:.\Generated_Source\PSoC4/CYBLE.c **** ***************************************/
  24:.\Generated_Source\PSoC4/CYBLE.c **** 
  25:.\Generated_Source\PSoC4/CYBLE.c **** #if(CYBLE_GATT_ROLE_SERVER)
  26:.\Generated_Source\PSoC4/CYBLE.c ****     #if(CYBLE_GAP_ROLE_PERIPHERAL)
  27:.\Generated_Source\PSoC4/CYBLE.c ****         static void CyBle_ChangeAdLocalName(const char8 name[], uint8 dest);
  28:.\Generated_Source\PSoC4/CYBLE.c ****     #endif /* (CYBLE_GAP_ROLE_PERIPHERAL) */
  29:.\Generated_Source\PSoC4/CYBLE.c **** #endif /* (CYBLE_GATT_ROLE_SERVER) */
ARM GAS  C:\Users\sunyi\AppData\Local\Temp\ccXDbPBi.s 			page 4


  30:.\Generated_Source\PSoC4/CYBLE.c ****     
  31:.\Generated_Source\PSoC4/CYBLE.c **** 
  32:.\Generated_Source\PSoC4/CYBLE.c **** /***************************************
  33:.\Generated_Source\PSoC4/CYBLE.c **** * Global Variables
  34:.\Generated_Source\PSoC4/CYBLE.c **** ***************************************/
  35:.\Generated_Source\PSoC4/CYBLE.c **** 
  36:.\Generated_Source\PSoC4/CYBLE.c **** /* Indicates whether the BLE has been initialized. The variable is initialized to
  37:.\Generated_Source\PSoC4/CYBLE.c ****    0 and set to 1 the first time CyBle_Start() is called. This allows the component
  38:.\Generated_Source\PSoC4/CYBLE.c ****    to restart without reinitialization after the first call to the CyBle_Start() 
  39:.\Generated_Source\PSoC4/CYBLE.c ****    routine. If reinitialization of the component is required, the variable should 
  40:.\Generated_Source\PSoC4/CYBLE.c ****    be set to 0 before the CyBle_Start() routine is called. Alternatively, the BLE
  41:.\Generated_Source\PSoC4/CYBLE.c ****    can be reinitialized by calling the CyBle_Init() function.
  42:.\Generated_Source\PSoC4/CYBLE.c **** */
  43:.\Generated_Source\PSoC4/CYBLE.c **** uint8  cyBle_initVar = 0u;
  44:.\Generated_Source\PSoC4/CYBLE.c **** 
  45:.\Generated_Source\PSoC4/CYBLE.c **** /* Allocate RAM memory for stack. This buffer could be reused by application when 
  46:.\Generated_Source\PSoC4/CYBLE.c ****    BLE component is stopped. For export mode buffer is allocated in heap.
  47:.\Generated_Source\PSoC4/CYBLE.c **** */
  48:.\Generated_Source\PSoC4/CYBLE.c **** #if(CYBLE_SHARING_MODE_EXPORT)
  49:.\Generated_Source\PSoC4/CYBLE.c ****     
  50:.\Generated_Source\PSoC4/CYBLE.c **** uint8 *cyBle_stackMemoryRam = NULL;
  51:.\Generated_Source\PSoC4/CYBLE.c **** 
  52:.\Generated_Source\PSoC4/CYBLE.c **** #else
  53:.\Generated_Source\PSoC4/CYBLE.c **** 
  54:.\Generated_Source\PSoC4/CYBLE.c **** CYBLE_CYALIGNED_BEGIN CY_NOINIT uint8 cyBle_stackMemoryRam[CYBLE_STACK_RAM_SIZE] CYBLE_CYALIGNED_EN
  55:.\Generated_Source\PSoC4/CYBLE.c **** 
  56:.\Generated_Source\PSoC4/CYBLE.c **** #endif  /* CYBLE_SHARING_MODE_EXPORT */
  57:.\Generated_Source\PSoC4/CYBLE.c **** 
  58:.\Generated_Source\PSoC4/CYBLE.c **** #if(CYBLE_GAP_ROLE_PERIPHERAL || CYBLE_GAP_ROLE_BROADCASTER)
  59:.\Generated_Source\PSoC4/CYBLE.c **** 
  60:.\Generated_Source\PSoC4/CYBLE.c **** CYBLE_GAPP_DISC_PARAM_T cyBle_discoveryParam =
  61:.\Generated_Source\PSoC4/CYBLE.c **** {
  62:.\Generated_Source\PSoC4/CYBLE.c ****     0x0020u,    /* uint16 advertising_interval_min */
  63:.\Generated_Source\PSoC4/CYBLE.c ****     0x0030u,    /* uint16 advertising_interval_max */
  64:.\Generated_Source\PSoC4/CYBLE.c ****     CYBLE_GAPP_CONNECTABLE_UNDIRECTED_ADV, /* uint8 advertising_type */
  65:.\Generated_Source\PSoC4/CYBLE.c ****     0x00u,      /* uint8 own_addr_type */
  66:.\Generated_Source\PSoC4/CYBLE.c ****     0x00u,      /* uint8 direct_addr_type */
  67:.\Generated_Source\PSoC4/CYBLE.c ****     {0x00u, 0x00u, 0x00u, 0x50u, 0xA0u, 0x00u}, /* uint8* direct_addr */
  68:.\Generated_Source\PSoC4/CYBLE.c ****     0x07u,      /* uint8 advertising_channel_map */
  69:.\Generated_Source\PSoC4/CYBLE.c ****     0x00u,      /* uint8 advertising_filter_policy */
  70:.\Generated_Source\PSoC4/CYBLE.c **** };
  71:.\Generated_Source\PSoC4/CYBLE.c **** 
  72:.\Generated_Source\PSoC4/CYBLE.c **** CYBLE_GAPP_DISC_DATA_T cyBle_discoveryData =
  73:.\Generated_Source\PSoC4/CYBLE.c **** {
  74:.\Generated_Source\PSoC4/CYBLE.c ****     { 0x02u, 0x01u, 0x05u, 0x0Au, 0x08u, 0x50u, 0x72u,
  75:.\Generated_Source\PSoC4/CYBLE.c ****     0x6Fu, 0x78u, 0x69u, 0x6Du, 0x69u, 0x74u, 0x79u, 0x05u,
  76:.\Generated_Source\PSoC4/CYBLE.c ****     0x03u, 0x03u, 0x18u, 0x04u, 0x18u, 0x00u, 0x00u, 0x00u,
  77:.\Generated_Source\PSoC4/CYBLE.c ****     0x00u, 0x00u, 0x00u, 0x00u, 0x00u, 0x00u, 0x00u, 0x00u }, /* uint8 advertising_data[CYBLE_MAX_A
  78:.\Generated_Source\PSoC4/CYBLE.c ****     0x14u,      /* uint8 adv_data_length */
  79:.\Generated_Source\PSoC4/CYBLE.c **** };
  80:.\Generated_Source\PSoC4/CYBLE.c **** 
  81:.\Generated_Source\PSoC4/CYBLE.c **** CYBLE_GAPP_SCAN_RSP_DATA_T cyBle_scanRspData =
  82:.\Generated_Source\PSoC4/CYBLE.c **** {
  83:.\Generated_Source\PSoC4/CYBLE.c ****     { 0x00u, 0x00u, 0x00u, 0x00u, 0x00u, 0x00u, 0x00u,
  84:.\Generated_Source\PSoC4/CYBLE.c ****     0x00u, 0x00u, 0x00u, 0x00u, 0x00u, 0x00u, 0x00u, 0x00u,
  85:.\Generated_Source\PSoC4/CYBLE.c ****     0x00u, 0x00u, 0x00u, 0x00u, 0x00u, 0x00u, 0x00u, 0x00u,
  86:.\Generated_Source\PSoC4/CYBLE.c ****     0x00u, 0x00u, 0x00u, 0x00u, 0x00u, 0x00u, 0x00u, 0x00u }, /* uint8 scan_rsp_data[CYBLE_MAX_SCAN
ARM GAS  C:\Users\sunyi\AppData\Local\Temp\ccXDbPBi.s 			page 5


  87:.\Generated_Source\PSoC4/CYBLE.c ****     0x00u,      /* uint8 scan_rsp_data_length */
  88:.\Generated_Source\PSoC4/CYBLE.c **** };
  89:.\Generated_Source\PSoC4/CYBLE.c **** 
  90:.\Generated_Source\PSoC4/CYBLE.c **** /* This variable of type CYBLE_GAPP_DISC_MODE_INFO_T is present only when 
  91:.\Generated_Source\PSoC4/CYBLE.c ****    the BLE component is configured for Peripheral GAP role or Central and 
  92:.\Generated_Source\PSoC4/CYBLE.c ****    Peripheral GAP role. It contains the Advertisement settings and also the 
  93:.\Generated_Source\PSoC4/CYBLE.c ****    Advertisement and Scan response data parameters entered in the customizer.
  94:.\Generated_Source\PSoC4/CYBLE.c ****    This variable can be used by advanced users to change Advertisement settings,
  95:.\Generated_Source\PSoC4/CYBLE.c ****    Advertisement or Scan response data in runtime. 
  96:.\Generated_Source\PSoC4/CYBLE.c **** */
  97:.\Generated_Source\PSoC4/CYBLE.c **** CYBLE_GAPP_DISC_MODE_INFO_T cyBle_discoveryModeInfo =
  98:.\Generated_Source\PSoC4/CYBLE.c **** {
  99:.\Generated_Source\PSoC4/CYBLE.c ****     0x01u,      /* uint8 discMode */
 100:.\Generated_Source\PSoC4/CYBLE.c ****     &cyBle_discoveryParam,
 101:.\Generated_Source\PSoC4/CYBLE.c ****     &cyBle_discoveryData,
 102:.\Generated_Source\PSoC4/CYBLE.c ****     &cyBle_scanRspData,
 103:.\Generated_Source\PSoC4/CYBLE.c ****     0x001Eu,    /* uint16 advTo */
 104:.\Generated_Source\PSoC4/CYBLE.c **** };
 105:.\Generated_Source\PSoC4/CYBLE.c **** 
 106:.\Generated_Source\PSoC4/CYBLE.c **** 
 107:.\Generated_Source\PSoC4/CYBLE.c **** #endif /* CYBLE_GAP_ROLE_PERIPHERAL || CYBLE_GAP_ROLE_BROADCASTER */
 108:.\Generated_Source\PSoC4/CYBLE.c **** 
 109:.\Generated_Source\PSoC4/CYBLE.c **** #if(CYBLE_GAP_ROLE_CENTRAL)
 110:.\Generated_Source\PSoC4/CYBLE.c ****     
 111:.\Generated_Source\PSoC4/CYBLE.c **** CYBLE_GAPC_CONN_PARAM_T cyBle_connectionParameters;
 112:.\Generated_Source\PSoC4/CYBLE.c **** 
 113:.\Generated_Source\PSoC4/CYBLE.c **** /* Connecting timeout is set to 30 seconds in CyBle_Init function. 
 114:.\Generated_Source\PSoC4/CYBLE.c ****    Not zero value starts timer in CyBle_GapcConnectDevice API.
 115:.\Generated_Source\PSoC4/CYBLE.c **** */
 116:.\Generated_Source\PSoC4/CYBLE.c **** uint16 cyBle_connectingTimeout;
 117:.\Generated_Source\PSoC4/CYBLE.c ****     
 118:.\Generated_Source\PSoC4/CYBLE.c **** #endif /* CYBLE_GAP_ROLE_CENTRAL */
 119:.\Generated_Source\PSoC4/CYBLE.c **** 
 120:.\Generated_Source\PSoC4/CYBLE.c **** #if(CYBLE_GAP_ROLE_CENTRAL || CYBLE_GAP_ROLE_OBSERVER)
 121:.\Generated_Source\PSoC4/CYBLE.c ****     
 122:.\Generated_Source\PSoC4/CYBLE.c **** 
 123:.\Generated_Source\PSoC4/CYBLE.c ****     
 124:.\Generated_Source\PSoC4/CYBLE.c **** #endif /* CYBLE_GAP_ROLE_CENTRAL || CYBLE_GAP_ROLE_OBSERVER */
 125:.\Generated_Source\PSoC4/CYBLE.c **** 
 126:.\Generated_Source\PSoC4/CYBLE.c **** #if((CYBLE_GAP_ROLE_PERIPHERAL || CYBLE_GAP_ROLE_CENTRAL) && (CYBLE_BONDING_REQUIREMENT == CYBLE_BO
 127:.\Generated_Source\PSoC4/CYBLE.c **** 
 128:.\Generated_Source\PSoC4/CYBLE.c **** uint8 cyBle_peerBonding;
 129:.\Generated_Source\PSoC4/CYBLE.c **** uint8 cyBle_pendingFlashWrite;
 130:.\Generated_Source\PSoC4/CYBLE.c ****     
 131:.\Generated_Source\PSoC4/CYBLE.c **** #if(CYBLE_GATT_DB_CCCD_COUNT != 0u)
 132:.\Generated_Source\PSoC4/CYBLE.c ****     static uint8 cyBle_pendingFlashClearCccdHandle;
 133:.\Generated_Source\PSoC4/CYBLE.c **** #endif /* CYBLE_GATT_DB_CCCD_COUNT != 0u */
 134:.\Generated_Source\PSoC4/CYBLE.c ****     
 135:.\Generated_Source\PSoC4/CYBLE.c **** #endif  /* (CYBLE_BONDING_REQUIREMENT == CYBLE_BONDING_YES) */
 136:.\Generated_Source\PSoC4/CYBLE.c **** 
 137:.\Generated_Source\PSoC4/CYBLE.c **** CYBLE_CALLBACK_T CyBle_ApplCallback;
 138:.\Generated_Source\PSoC4/CYBLE.c **** CYBLE_GAP_BD_ADDR_T cyBle_deviceAddress = {{0x00u, 0x00u, 0x00u, 0x50u, 0xA0u, 0x00u}, 0x00u };
 139:.\Generated_Source\PSoC4/CYBLE.c **** CYBLE_GAP_BD_ADDR_T * cyBle_sflashDeviceAddress = CYBLE_SFLASH_DEVICE_ADDRESS_PTR;
 140:.\Generated_Source\PSoC4/CYBLE.c **** 
 141:.\Generated_Source\PSoC4/CYBLE.c **** 
 142:.\Generated_Source\PSoC4/CYBLE.c **** /******************************************************************************
 143:.\Generated_Source\PSoC4/CYBLE.c **** * Function Name: CyBle_Init
ARM GAS  C:\Users\sunyi\AppData\Local\Temp\ccXDbPBi.s 			page 6


 144:.\Generated_Source\PSoC4/CYBLE.c **** ***************************************************************************//**
 145:.\Generated_Source\PSoC4/CYBLE.c **** *
 146:.\Generated_Source\PSoC4/CYBLE.c **** *   Initializes the component with the parameters set in the customizer.
 147:.\Generated_Source\PSoC4/CYBLE.c **** * 
 148:.\Generated_Source\PSoC4/CYBLE.c **** *  \return
 149:.\Generated_Source\PSoC4/CYBLE.c **** *   None
 150:.\Generated_Source\PSoC4/CYBLE.c **** * 
 151:.\Generated_Source\PSoC4/CYBLE.c **** ******************************************************************************/
 152:.\Generated_Source\PSoC4/CYBLE.c **** void CyBle_Init(void)
 153:.\Generated_Source\PSoC4/CYBLE.c **** {
 135              		.loc 1 153 0
 136              		.cfi_startproc
 137 0000 80B5     		push	{r7, lr}
 138              		.cfi_def_cfa_offset 8
 139              		.cfi_offset 7, -8
 140              		.cfi_offset 14, -4
 141 0002 00AF     		add	r7, sp, #0
 142              		.cfi_def_cfa_register 7
 154:.\Generated_Source\PSoC4/CYBLE.c ****     cyBle_eventHandlerFlag = 0u;
 143              		.loc 1 154 0
 144 0004 064B     		ldr	r3, .L2
 145 0006 0022     		mov	r2, #0
 146 0008 1A70     		strb	r2, [r3]
 155:.\Generated_Source\PSoC4/CYBLE.c ****     cyBle_busyStatus = CYBLE_STACK_STATE_FREE;
 147              		.loc 1 155 0
 148 000a 064B     		ldr	r3, .L2+4
 149 000c 0022     		mov	r2, #0
 150 000e 1A70     		strb	r2, [r3]
 156:.\Generated_Source\PSoC4/CYBLE.c **** 
 157:.\Generated_Source\PSoC4/CYBLE.c ****     #if(CYBLE_GAP_ROLE_PERIPHERAL || CYBLE_GAP_ROLE_BROADCASTER) 
 158:.\Generated_Source\PSoC4/CYBLE.c ****         cyBle_advertisingIntervalType = CYBLE_ADVERTISING_FAST; 
 151              		.loc 1 158 0
 152 0010 054B     		ldr	r3, .L2+8
 153 0012 0022     		mov	r2, #0
 154 0014 1A70     		strb	r2, [r3]
 159:.\Generated_Source\PSoC4/CYBLE.c ****     #endif /* (CYBLE_GAP_ROLE_PERIPHERAL || CYBLE_GAP_ROLE_BROADCASTER)  */
 160:.\Generated_Source\PSoC4/CYBLE.c ****     #if(CYBLE_GAP_ROLE_CENTRAL || CYBLE_GAP_ROLE_OBSERVER)
 161:.\Generated_Source\PSoC4/CYBLE.c ****         cyBle_scanningIntervalType = CYBLE_SCANNING_FAST; 
 162:.\Generated_Source\PSoC4/CYBLE.c ****     #endif /* (CYBLE_GAP_ROLE_CENTRAL || CYBLE_GAP_ROLE_OBSERVER) */
 163:.\Generated_Source\PSoC4/CYBLE.c ****         
 164:.\Generated_Source\PSoC4/CYBLE.c ****     /* Init default connection parameters. 
 165:.\Generated_Source\PSoC4/CYBLE.c ****        Application may change it before initiating a connection */
 166:.\Generated_Source\PSoC4/CYBLE.c ****     #if(CYBLE_GAP_ROLE_CENTRAL)
 167:.\Generated_Source\PSoC4/CYBLE.c ****         cyBle_connectionParameters.scanIntv = cyBle_discoveryInfo.scanIntv;
 168:.\Generated_Source\PSoC4/CYBLE.c ****         cyBle_connectionParameters.scanWindow = cyBle_discoveryInfo.scanWindow;
 169:.\Generated_Source\PSoC4/CYBLE.c ****         cyBle_connectionParameters.ownAddrType = cyBle_discoveryInfo.ownAddrType;
 170:.\Generated_Source\PSoC4/CYBLE.c ****         cyBle_connectionParameters.initiatorFilterPolicy = cyBle_discoveryInfo.scanFilterPolicy;
 171:.\Generated_Source\PSoC4/CYBLE.c ****         cyBle_connectionParameters.connIntvMin = CYBLE_GAPC_CONNECTION_INTERVAL_MIN;
 172:.\Generated_Source\PSoC4/CYBLE.c ****         cyBle_connectionParameters.connIntvMax = CYBLE_GAPC_CONNECTION_INTERVAL_MAX;
 173:.\Generated_Source\PSoC4/CYBLE.c ****         cyBle_connectionParameters.connLatency = CYBLE_GAPC_CONNECTION_SLAVE_LATENCY;
 174:.\Generated_Source\PSoC4/CYBLE.c ****         cyBle_connectionParameters.supervisionTO = CYBLE_GAPC_CONNECTION_TIME_OUT;
 175:.\Generated_Source\PSoC4/CYBLE.c ****         cyBle_connectionParameters.minCeLength = 0x0000u;
 176:.\Generated_Source\PSoC4/CYBLE.c ****         cyBle_connectionParameters.maxCeLength = 0xFFFFu;
 177:.\Generated_Source\PSoC4/CYBLE.c ****         
 178:.\Generated_Source\PSoC4/CYBLE.c ****         cyBle_connectingTimeout = CYBLE_GAPC_CONNECTING_TIMEOUT;
 179:.\Generated_Source\PSoC4/CYBLE.c ****     #endif /* CYBLE_GAP_ROLE_CENTRAL */
 180:.\Generated_Source\PSoC4/CYBLE.c **** 
ARM GAS  C:\Users\sunyi\AppData\Local\Temp\ccXDbPBi.s 			page 7


 181:.\Generated_Source\PSoC4/CYBLE.c ****     CyBle_ServiceInit();
 155              		.loc 1 181 0
 156 0016 FFF7FEFF 		bl	CyBle_ServiceInit
 182:.\Generated_Source\PSoC4/CYBLE.c **** 
 183:.\Generated_Source\PSoC4/CYBLE.c ****     #if((CYBLE_GAP_ROLE_PERIPHERAL || CYBLE_GAP_ROLE_CENTRAL) && (CYBLE_BONDING_REQUIREMENT == CYBL
 184:.\Generated_Source\PSoC4/CYBLE.c ****         cyBle_pendingFlashWrite = 0u;
 185:.\Generated_Source\PSoC4/CYBLE.c ****         cyBle_peerBonding = CYBLE_GAP_BONDING_NONE;
 186:.\Generated_Source\PSoC4/CYBLE.c ****     #endif  /* (CYBLE_BONDING_REQUIREMENT == CYBLE_BONDING_YES) */
 187:.\Generated_Source\PSoC4/CYBLE.c **** 
 188:.\Generated_Source\PSoC4/CYBLE.c **** }
 157              		.loc 1 188 0
 158 001a BD46     		mov	sp, r7
 159              		@ sp needed
 160 001c 80BD     		pop	{r7, pc}
 161              	.L3:
 162 001e C046     		.align	2
 163              	.L2:
 164 0020 00000000 		.word	cyBle_eventHandlerFlag
 165 0024 00000000 		.word	cyBle_busyStatus
 166 0028 00000000 		.word	cyBle_advertisingIntervalType
 167              		.cfi_endproc
 168              	.LFE2:
 169              		.size	CyBle_Init, .-CyBle_Init
 170              		.section	.text.CyBle_ServiceInit,"ax",%progbits
 171              		.align	2
 172              		.global	CyBle_ServiceInit
 173              		.code	16
 174              		.thumb_func
 175              		.type	CyBle_ServiceInit, %function
 176              	CyBle_ServiceInit:
 177              	.LFB3:
 189:.\Generated_Source\PSoC4/CYBLE.c **** 
 190:.\Generated_Source\PSoC4/CYBLE.c **** 
 191:.\Generated_Source\PSoC4/CYBLE.c **** /******************************************************************************
 192:.\Generated_Source\PSoC4/CYBLE.c **** * Function Name: CyBle_ServiceInit
 193:.\Generated_Source\PSoC4/CYBLE.c **** ***************************************************************************//**
 194:.\Generated_Source\PSoC4/CYBLE.c **** * 
 195:.\Generated_Source\PSoC4/CYBLE.c **** *  Initializes all included services.
 196:.\Generated_Source\PSoC4/CYBLE.c **** * 
 197:.\Generated_Source\PSoC4/CYBLE.c **** * \return
 198:.\Generated_Source\PSoC4/CYBLE.c **** *  None
 199:.\Generated_Source\PSoC4/CYBLE.c **** * 
 200:.\Generated_Source\PSoC4/CYBLE.c **** ******************************************************************************/
 201:.\Generated_Source\PSoC4/CYBLE.c **** void CyBle_ServiceInit(void)
 202:.\Generated_Source\PSoC4/CYBLE.c **** {
 178              		.loc 1 202 0
 179              		.cfi_startproc
 180 0000 80B5     		push	{r7, lr}
 181              		.cfi_def_cfa_offset 8
 182              		.cfi_offset 7, -8
 183              		.cfi_offset 14, -4
 184 0002 00AF     		add	r7, sp, #0
 185              		.cfi_def_cfa_register 7
 203:.\Generated_Source\PSoC4/CYBLE.c ****     #if(CYBLE_GATT_ROLE_CLIENT)
 204:.\Generated_Source\PSoC4/CYBLE.c ****         /* Check service range before clearing to support partial discovery */
 205:.\Generated_Source\PSoC4/CYBLE.c ****         if(cyBle_serverInfo[CYBLE_SRVI_GAP].range.startHandle == CYBLE_GATT_INVALID_ATTR_HANDLE_VAL
 206:.\Generated_Source\PSoC4/CYBLE.c ****         {
ARM GAS  C:\Users\sunyi\AppData\Local\Temp\ccXDbPBi.s 			page 8


 207:.\Generated_Source\PSoC4/CYBLE.c ****             (void)memset(&cyBle_gapc, 0, sizeof(cyBle_gapc));
 208:.\Generated_Source\PSoC4/CYBLE.c ****         }
 209:.\Generated_Source\PSoC4/CYBLE.c ****         if(cyBle_serverInfo[CYBLE_SRVI_GATT].range.startHandle == CYBLE_GATT_INVALID_ATTR_HANDLE_VA
 210:.\Generated_Source\PSoC4/CYBLE.c ****         {
 211:.\Generated_Source\PSoC4/CYBLE.c ****             (void)memset(&cyBle_gattc, 0, sizeof(cyBle_gattc));
 212:.\Generated_Source\PSoC4/CYBLE.c ****         }
 213:.\Generated_Source\PSoC4/CYBLE.c ****     #endif /* CYBLE_GATT_ROLE_CLIENT */
 214:.\Generated_Source\PSoC4/CYBLE.c ****     
 215:.\Generated_Source\PSoC4/CYBLE.c **** 	#ifdef CYBLE_ANCS
 216:.\Generated_Source\PSoC4/CYBLE.c ****         CyBle_AncsInit();
 217:.\Generated_Source\PSoC4/CYBLE.c ****     #endif /* CYBLE_ANCS */
 218:.\Generated_Source\PSoC4/CYBLE.c **** 	
 219:.\Generated_Source\PSoC4/CYBLE.c ****     #ifdef CYBLE_ANS
 220:.\Generated_Source\PSoC4/CYBLE.c ****         CyBle_AnsInit();
 221:.\Generated_Source\PSoC4/CYBLE.c ****     #endif /* CYBLE_ANS */
 222:.\Generated_Source\PSoC4/CYBLE.c ****     
 223:.\Generated_Source\PSoC4/CYBLE.c ****     #ifdef CYBLE_BAS
 224:.\Generated_Source\PSoC4/CYBLE.c ****         CyBle_BasInit();
 225:.\Generated_Source\PSoC4/CYBLE.c ****     #endif /* CYBLE_BAS */
 226:.\Generated_Source\PSoC4/CYBLE.c ****     
 227:.\Generated_Source\PSoC4/CYBLE.c ****     #ifdef CYBLE_BCS
 228:.\Generated_Source\PSoC4/CYBLE.c ****         CyBle_BcsInit();
 229:.\Generated_Source\PSoC4/CYBLE.c ****     #endif /* CYBLE_BCS */
 230:.\Generated_Source\PSoC4/CYBLE.c **** 
 231:.\Generated_Source\PSoC4/CYBLE.c ****     #ifdef CYBLE_BLS
 232:.\Generated_Source\PSoC4/CYBLE.c ****         CyBle_BlsInit();
 233:.\Generated_Source\PSoC4/CYBLE.c ****     #endif /* CYBLE_BLS */
 234:.\Generated_Source\PSoC4/CYBLE.c ****     
 235:.\Generated_Source\PSoC4/CYBLE.c ****     #ifdef CYBLE_BMS
 236:.\Generated_Source\PSoC4/CYBLE.c ****         CyBle_BmsInit();
 237:.\Generated_Source\PSoC4/CYBLE.c ****     #endif /* CYBLE_BMS */
 238:.\Generated_Source\PSoC4/CYBLE.c ****     
 239:.\Generated_Source\PSoC4/CYBLE.c ****     #ifdef CYBLE_CGMS
 240:.\Generated_Source\PSoC4/CYBLE.c ****         CyBle_CgmsInit();
 241:.\Generated_Source\PSoC4/CYBLE.c ****     #endif /* CYBLE_CGMS */
 242:.\Generated_Source\PSoC4/CYBLE.c **** 
 243:.\Generated_Source\PSoC4/CYBLE.c ****     #ifdef CYBLE_CPS
 244:.\Generated_Source\PSoC4/CYBLE.c ****         CyBle_CpsInit();
 245:.\Generated_Source\PSoC4/CYBLE.c ****     #endif /* CYBLE_CPS */
 246:.\Generated_Source\PSoC4/CYBLE.c **** 
 247:.\Generated_Source\PSoC4/CYBLE.c ****     #ifdef CYBLE_CSCS
 248:.\Generated_Source\PSoC4/CYBLE.c ****         CyBle_CscsInit();
 249:.\Generated_Source\PSoC4/CYBLE.c ****     #endif /* CYBLE_CSCS */
 250:.\Generated_Source\PSoC4/CYBLE.c ****     
 251:.\Generated_Source\PSoC4/CYBLE.c ****     #ifdef CYBLE_CTS
 252:.\Generated_Source\PSoC4/CYBLE.c ****         CyBle_CtsInit();
 253:.\Generated_Source\PSoC4/CYBLE.c ****     #endif /* CYBLE_CTS */
 254:.\Generated_Source\PSoC4/CYBLE.c **** 
 255:.\Generated_Source\PSoC4/CYBLE.c ****     #ifdef CYBLE_CUSTOM
 256:.\Generated_Source\PSoC4/CYBLE.c ****         CyBle_CustomInit();
 257:.\Generated_Source\PSoC4/CYBLE.c ****     #endif /* CYBLE_CUSTOM */
 258:.\Generated_Source\PSoC4/CYBLE.c **** 
 259:.\Generated_Source\PSoC4/CYBLE.c ****     #ifdef CYBLE_DIS
 260:.\Generated_Source\PSoC4/CYBLE.c ****         CyBle_DisInit();
 261:.\Generated_Source\PSoC4/CYBLE.c ****     #endif /* CYBLE_DIS */
 262:.\Generated_Source\PSoC4/CYBLE.c **** 
 263:.\Generated_Source\PSoC4/CYBLE.c ****     #ifdef CYBLE_ESS
ARM GAS  C:\Users\sunyi\AppData\Local\Temp\ccXDbPBi.s 			page 9


 264:.\Generated_Source\PSoC4/CYBLE.c ****         CyBle_EssInit();
 265:.\Generated_Source\PSoC4/CYBLE.c ****     #endif /* CYBLE_ESS */
 266:.\Generated_Source\PSoC4/CYBLE.c ****     
 267:.\Generated_Source\PSoC4/CYBLE.c ****     #ifdef CYBLE_GLS
 268:.\Generated_Source\PSoC4/CYBLE.c ****         CyBle_GlsInit();
 269:.\Generated_Source\PSoC4/CYBLE.c ****     #endif /* CYBLE_GLS */
 270:.\Generated_Source\PSoC4/CYBLE.c ****     
 271:.\Generated_Source\PSoC4/CYBLE.c ****     #ifdef CYBLE_HIDS
 272:.\Generated_Source\PSoC4/CYBLE.c ****         CyBle_HidsInit();
 273:.\Generated_Source\PSoC4/CYBLE.c ****     #endif /* CYBLE_HIDS */
 274:.\Generated_Source\PSoC4/CYBLE.c **** 
 275:.\Generated_Source\PSoC4/CYBLE.c ****     #ifdef CYBLE_HPS
 276:.\Generated_Source\PSoC4/CYBLE.c ****         CyBle_HpsInit();
 277:.\Generated_Source\PSoC4/CYBLE.c ****     #endif /* CYBLE_HPS */
 278:.\Generated_Source\PSoC4/CYBLE.c **** 
 279:.\Generated_Source\PSoC4/CYBLE.c ****     #ifdef CYBLE_HRS
 280:.\Generated_Source\PSoC4/CYBLE.c ****         CyBle_HrsInit();
 281:.\Generated_Source\PSoC4/CYBLE.c ****     #endif /* CYBLE_HRS */
 282:.\Generated_Source\PSoC4/CYBLE.c ****     
 283:.\Generated_Source\PSoC4/CYBLE.c ****     #ifdef CYBLE_HTS
 284:.\Generated_Source\PSoC4/CYBLE.c ****         CyBle_HtsInit();
 285:.\Generated_Source\PSoC4/CYBLE.c ****     #endif /* CYBLE_RSCS */
 286:.\Generated_Source\PSoC4/CYBLE.c **** 
 287:.\Generated_Source\PSoC4/CYBLE.c ****     #ifdef CYBLE_IAS
 288:.\Generated_Source\PSoC4/CYBLE.c ****         CyBle_IasInit();
 289:.\Generated_Source\PSoC4/CYBLE.c ****     #endif /* CYBLE_IAS */
 290:.\Generated_Source\PSoC4/CYBLE.c **** 
 291:.\Generated_Source\PSoC4/CYBLE.c ****     #ifdef CYBLE_IPS
 292:.\Generated_Source\PSoC4/CYBLE.c ****         CyBle_IpsInit();
 293:.\Generated_Source\PSoC4/CYBLE.c ****     #endif /* CYBLE_IPS */
 294:.\Generated_Source\PSoC4/CYBLE.c ****     
 295:.\Generated_Source\PSoC4/CYBLE.c ****     #ifdef CYBLE_LLS
 296:.\Generated_Source\PSoC4/CYBLE.c ****         CyBle_LlsInit();
 186              		.loc 1 296 0
 187 0004 FFF7FEFF 		bl	CyBle_LlsInit
 297:.\Generated_Source\PSoC4/CYBLE.c ****     #endif /* CYBLE_LLS */
 298:.\Generated_Source\PSoC4/CYBLE.c **** 
 299:.\Generated_Source\PSoC4/CYBLE.c ****     #ifdef CYBLE_LNS
 300:.\Generated_Source\PSoC4/CYBLE.c ****         CyBle_LnsInit();
 301:.\Generated_Source\PSoC4/CYBLE.c ****     #endif /* CYBLE_LNS */
 302:.\Generated_Source\PSoC4/CYBLE.c ****     
 303:.\Generated_Source\PSoC4/CYBLE.c ****     #ifdef CYBLE_NDCS
 304:.\Generated_Source\PSoC4/CYBLE.c ****         CyBle_NdcsInit();
 305:.\Generated_Source\PSoC4/CYBLE.c ****     #endif /* CYBLE_NDCS */
 306:.\Generated_Source\PSoC4/CYBLE.c ****     
 307:.\Generated_Source\PSoC4/CYBLE.c ****     #ifdef CYBLE_PASS
 308:.\Generated_Source\PSoC4/CYBLE.c ****         CyBle_PassInit();
 309:.\Generated_Source\PSoC4/CYBLE.c ****     #endif /* CYBLE_PASS */
 310:.\Generated_Source\PSoC4/CYBLE.c ****     
 311:.\Generated_Source\PSoC4/CYBLE.c ****     #ifdef CYBLE_RSCS
 312:.\Generated_Source\PSoC4/CYBLE.c ****         CyBle_RscsInit();
 313:.\Generated_Source\PSoC4/CYBLE.c ****     #endif /* CYBLE_RSCS */
 314:.\Generated_Source\PSoC4/CYBLE.c **** 
 315:.\Generated_Source\PSoC4/CYBLE.c ****     #ifdef CYBLE_RTUS
 316:.\Generated_Source\PSoC4/CYBLE.c ****         CyBle_RtusInit();
 317:.\Generated_Source\PSoC4/CYBLE.c ****     #endif /* CYBLE_RTUS */
 318:.\Generated_Source\PSoC4/CYBLE.c **** 
ARM GAS  C:\Users\sunyi\AppData\Local\Temp\ccXDbPBi.s 			page 10


 319:.\Generated_Source\PSoC4/CYBLE.c ****     #ifdef CYBLE_SCPS
 320:.\Generated_Source\PSoC4/CYBLE.c ****         CyBle_ScpsInit();
 321:.\Generated_Source\PSoC4/CYBLE.c ****     #endif /* CYBLE_SCPS */
 322:.\Generated_Source\PSoC4/CYBLE.c ****     
 323:.\Generated_Source\PSoC4/CYBLE.c ****     #ifdef CYBLE_TPS
 324:.\Generated_Source\PSoC4/CYBLE.c ****         CyBle_TpsInit();
 188              		.loc 1 324 0
 189 0008 FFF7FEFF 		bl	CyBle_TpsInit
 325:.\Generated_Source\PSoC4/CYBLE.c ****     #endif /* CYBLE_TPS */
 326:.\Generated_Source\PSoC4/CYBLE.c ****     
 327:.\Generated_Source\PSoC4/CYBLE.c ****     #ifdef CYBLE_UDS
 328:.\Generated_Source\PSoC4/CYBLE.c ****         CyBle_UdsInit();
 329:.\Generated_Source\PSoC4/CYBLE.c ****     #endif /* CYBLE_UDS */
 330:.\Generated_Source\PSoC4/CYBLE.c **** 
 331:.\Generated_Source\PSoC4/CYBLE.c ****     #ifdef CYBLE_WPTS
 332:.\Generated_Source\PSoC4/CYBLE.c ****         CyBle_WptsInit();
 333:.\Generated_Source\PSoC4/CYBLE.c ****     #endif /* CYBLE_WPTS */
 334:.\Generated_Source\PSoC4/CYBLE.c **** 
 335:.\Generated_Source\PSoC4/CYBLE.c ****     #ifdef CYBLE_WSS
 336:.\Generated_Source\PSoC4/CYBLE.c ****         CyBle_WssInit();
 337:.\Generated_Source\PSoC4/CYBLE.c ****     #endif /* CYBLE_WSS */
 338:.\Generated_Source\PSoC4/CYBLE.c **** }
 190              		.loc 1 338 0
 191 000c BD46     		mov	sp, r7
 192              		@ sp needed
 193 000e 80BD     		pop	{r7, pc}
 194              		.cfi_endproc
 195              	.LFE3:
 196              		.size	CyBle_ServiceInit, .-CyBle_ServiceInit
 197              		.section	.rodata
 198              		.align	2
 199              	.LC0:
 200 0000 2400     		.short	36
 201 0002 03       		.byte	3
 202 0003 00       		.space	1
 203 0004 3000     		.short	48
 204 0006 01       		.byte	1
 205 0007 00       		.space	1
 206 0008 2800     		.short	40
 207 000a 02       		.byte	2
 208 000b 00       		.space	1
 209 000c 2400     		.short	36
 210 000e 01       		.byte	1
 211 000f 00       		.space	1
 212 0010 2400     		.short	36
 213 0012 01       		.byte	1
 214 0013 00       		.space	1
 215              		.section	.text.CyBle_Start,"ax",%progbits
 216              		.align	2
 217              		.global	CyBle_Start
 218              		.code	16
 219              		.thumb_func
 220              		.type	CyBle_Start, %function
 221              	CyBle_Start:
 222              	.LFB4:
 339:.\Generated_Source\PSoC4/CYBLE.c **** 
 340:.\Generated_Source\PSoC4/CYBLE.c **** 
ARM GAS  C:\Users\sunyi\AppData\Local\Temp\ccXDbPBi.s 			page 11


 341:.\Generated_Source\PSoC4/CYBLE.c **** /******************************************************************************
 342:.\Generated_Source\PSoC4/CYBLE.c **** * Function Name: CyBle_Start
 343:.\Generated_Source\PSoC4/CYBLE.c **** ***************************************************************************//**
 344:.\Generated_Source\PSoC4/CYBLE.c **** * 
 345:.\Generated_Source\PSoC4/CYBLE.c **** *  This function initializes the BLE Stack, which consists of the BLE Stack 
 346:.\Generated_Source\PSoC4/CYBLE.c **** *  Manager, BLE Controller, and BLE Host modules. It takes care of initializing
 347:.\Generated_Source\PSoC4/CYBLE.c **** *  the Profile layer, schedulers, Timer and other platform related
 348:.\Generated_Source\PSoC4/CYBLE.c **** *  resources required for the BLE component. It also registers the callback 
 349:.\Generated_Source\PSoC4/CYBLE.c **** *  function for BLE events that will be registered in the BLE stack.
 350:.\Generated_Source\PSoC4/CYBLE.c **** * 
 351:.\Generated_Source\PSoC4/CYBLE.c **** *  Note that this function does not reset the BLE Stack.
 352:.\Generated_Source\PSoC4/CYBLE.c **** * 
 353:.\Generated_Source\PSoC4/CYBLE.c **** *  For HCI-Mode of operation, this function will not initialize the BLE Host 
 354:.\Generated_Source\PSoC4/CYBLE.c **** *  module.
 355:.\Generated_Source\PSoC4/CYBLE.c **** * 
 356:.\Generated_Source\PSoC4/CYBLE.c **** *  Calling this function results in the generation of CYBLE_EVT_STACK_ON event
 357:.\Generated_Source\PSoC4/CYBLE.c **** *  on successful initialization of the BLE Stack.
 358:.\Generated_Source\PSoC4/CYBLE.c **** * 
 359:.\Generated_Source\PSoC4/CYBLE.c **** *  \param callbackFunc: Event callback function to receive events from BLE stack.
 360:.\Generated_Source\PSoC4/CYBLE.c **** *   CYBLE_CALLBACK_T is a function pointer type.
 361:.\Generated_Source\PSoC4/CYBLE.c **** * 
 362:.\Generated_Source\PSoC4/CYBLE.c **** * \return
 363:.\Generated_Source\PSoC4/CYBLE.c **** *  CYBLE_API_RESULT_T : Return value indicates if the function succeeded or 
 364:.\Generated_Source\PSoC4/CYBLE.c **** *  failed. Following are the possible error codes.
 365:.\Generated_Source\PSoC4/CYBLE.c **** * 
 366:.\Generated_Source\PSoC4/CYBLE.c **** *   <table>
 367:.\Generated_Source\PSoC4/CYBLE.c **** *  	  <tr>
 368:.\Generated_Source\PSoC4/CYBLE.c **** *       <th>Error codes</th>
 369:.\Generated_Source\PSoC4/CYBLE.c **** *       <th>Description</th>
 370:.\Generated_Source\PSoC4/CYBLE.c **** *     </tr>
 371:.\Generated_Source\PSoC4/CYBLE.c **** *     <tr>
 372:.\Generated_Source\PSoC4/CYBLE.c **** *       <td>CYBLE_ERROR_OK</td>
 373:.\Generated_Source\PSoC4/CYBLE.c **** *       <td>On successful operation.</td>
 374:.\Generated_Source\PSoC4/CYBLE.c **** *     </tr>
 375:.\Generated_Source\PSoC4/CYBLE.c **** *     <tr>
 376:.\Generated_Source\PSoC4/CYBLE.c **** *       <td>CYBLE_ERROR_INVALID_PARAMETER</td>
 377:.\Generated_Source\PSoC4/CYBLE.c **** *       <td>On passing a NULL pointer to the function when the BLE stack is not built in HCI mode. 
 378:.\Generated_Source\PSoC4/CYBLE.c **** *			CYBLE_ERROR_INVALID_PARAMETER is never returned in HCI mode.</td>
 379:.\Generated_Source\PSoC4/CYBLE.c **** *     </tr>
 380:.\Generated_Source\PSoC4/CYBLE.c **** *     <tr>
 381:.\Generated_Source\PSoC4/CYBLE.c **** *       <td>CYBLE_ERROR_REPEATED_ATTEMPTS</td>
 382:.\Generated_Source\PSoC4/CYBLE.c **** *       <td>On invoking this function more than once without calling CyBle_Shutdown() 
 383:.\Generated_Source\PSoC4/CYBLE.c **** *           function between calls to this function.</td>
 384:.\Generated_Source\PSoC4/CYBLE.c **** *     </tr>
 385:.\Generated_Source\PSoC4/CYBLE.c **** *     <tr>
 386:.\Generated_Source\PSoC4/CYBLE.c **** *       <td>CYBLE_ERROR_MEMORY_ALLOCATION_FAILED</td>
 387:.\Generated_Source\PSoC4/CYBLE.c **** *       <td>There is insufficient memory available.</td>
 388:.\Generated_Source\PSoC4/CYBLE.c **** *     </tr>
 389:.\Generated_Source\PSoC4/CYBLE.c **** *   </table>
 390:.\Generated_Source\PSoC4/CYBLE.c **** * 
 391:.\Generated_Source\PSoC4/CYBLE.c **** *  \globalvars
 392:.\Generated_Source\PSoC4/CYBLE.c **** *   The CyBle_initVar variable is used to indicate initial
 393:.\Generated_Source\PSoC4/CYBLE.c **** *   configuration of this component. The variable is initialized to zero (0u)
 394:.\Generated_Source\PSoC4/CYBLE.c **** *   and set to one (1u) the first time CyBle_Start() is called. This
 395:.\Generated_Source\PSoC4/CYBLE.c **** *   allows for component initialization without re-initialization in all
 396:.\Generated_Source\PSoC4/CYBLE.c **** *   subsequent calls to the CyBle_Start() routine.
 397:.\Generated_Source\PSoC4/CYBLE.c **** * 
ARM GAS  C:\Users\sunyi\AppData\Local\Temp\ccXDbPBi.s 			page 12


 398:.\Generated_Source\PSoC4/CYBLE.c **** ******************************************************************************/
 399:.\Generated_Source\PSoC4/CYBLE.c **** CYBLE_API_RESULT_T CyBle_Start(CYBLE_CALLBACK_T callbackFunc)
 400:.\Generated_Source\PSoC4/CYBLE.c **** {
 223              		.loc 1 400 0
 224              		.cfi_startproc
 225 0000 B0B5     		push	{r4, r5, r7, lr}
 226              		.cfi_def_cfa_offset 16
 227              		.cfi_offset 4, -16
 228              		.cfi_offset 5, -12
 229              		.cfi_offset 7, -8
 230              		.cfi_offset 14, -4
 231 0002 94B0     		sub	sp, sp, #80
 232              		.cfi_def_cfa_offset 96
 233 0004 04AF     		add	r7, sp, #16
 234              		.cfi_def_cfa 7, 80
 235 0006 7860     		str	r0, [r7, #4]
 401:.\Generated_Source\PSoC4/CYBLE.c ****     CYBLE_API_RESULT_T apiResult = CYBLE_ERROR_OK;
 236              		.loc 1 401 0
 237 0008 3E23     		mov	r3, #62
 238 000a FB18     		add	r3, r7, r3
 239 000c 0022     		mov	r2, #0
 240 000e 1A80     		strh	r2, [r3]
 402:.\Generated_Source\PSoC4/CYBLE.c ****     
 403:.\Generated_Source\PSoC4/CYBLE.c ****     #if(CYBLE_MODE_PROFILE)
 404:.\Generated_Source\PSoC4/CYBLE.c ****     
 405:.\Generated_Source\PSoC4/CYBLE.c ****     CYBLE_STK_APP_DATA_BUFF_T cyBle_stackDataBuff[CYBLE_STACK_APP_MIN_POOL] = 
 241              		.loc 1 405 0
 242 0010 2823     		mov	r3, #40
 243 0012 FA18     		add	r2, r7, r3
 244 0014 3E4B     		ldr	r3, .L12
 245 0016 111C     		mov	r1, r2
 246 0018 1A1C     		mov	r2, r3
 247 001a 1423     		mov	r3, #20
 248 001c 081C     		mov	r0, r1
 249 001e 111C     		mov	r1, r2
 250 0020 1A1C     		mov	r2, r3
 251 0022 FFF7FEFF 		bl	memcpy
 406:.\Generated_Source\PSoC4/CYBLE.c ****     {
 407:.\Generated_Source\PSoC4/CYBLE.c ****         {CYBLE_GATT_MTU_PLUS_L2CAP_MEM_EXT, CYBLE_GATT_MTU_BUFF_COUNT + CYBLE_GATT_MAX_ATTR_BUFF_CO
 408:.\Generated_Source\PSoC4/CYBLE.c ****         {CYBLE_L2CAP_PSM_PLUS_L2CAP_MEM_EXT, CYBLE_L2CAP_PSM_COUNT},
 409:.\Generated_Source\PSoC4/CYBLE.c ****         {CYBLE_L2CAP_CBFC_PLUS_L2CAP_MEM_EXT, 2u * CYBLE_L2CAP_LOGICAL_CHANNEL_COUNT},
 410:.\Generated_Source\PSoC4/CYBLE.c ****         {CYBLE_L2CAP_MTU_PLUS_L2CAP_MEM_EXT, CYBLE_L2CAP_LOGICAL_CHANNEL_COUNT},
 411:.\Generated_Source\PSoC4/CYBLE.c ****         {CYBLE_L2CAP_MPS_PLUS_L2CAP_MEM_EXT, CYBLE_L2CAP_LOGICAL_CHANNEL_COUNT * (CYBLE_L2CAP_MTU_M
 412:.\Generated_Source\PSoC4/CYBLE.c ****     }; 
 413:.\Generated_Source\PSoC4/CYBLE.c **** 
 414:.\Generated_Source\PSoC4/CYBLE.c ****     #endif /* CYBLE_MODE_PROFILE */
 415:.\Generated_Source\PSoC4/CYBLE.c ****     
 416:.\Generated_Source\PSoC4/CYBLE.c ****     /* If not initialized then initialize all the required hardware and software */
 417:.\Generated_Source\PSoC4/CYBLE.c ****     if(cyBle_initVar == 0u)
 252              		.loc 1 417 0
 253 0026 3B4B     		ldr	r3, .L12+4
 254 0028 1B78     		ldrb	r3, [r3]
 255 002a 002B     		cmp	r3, #0
 256 002c 04D1     		bne	.L6
 418:.\Generated_Source\PSoC4/CYBLE.c ****     {
 419:.\Generated_Source\PSoC4/CYBLE.c ****         CyBle_Init();
 257              		.loc 1 419 0
ARM GAS  C:\Users\sunyi\AppData\Local\Temp\ccXDbPBi.s 			page 13


 258 002e FFF7FEFF 		bl	CyBle_Init
 420:.\Generated_Source\PSoC4/CYBLE.c ****         cyBle_initVar = 1u;
 259              		.loc 1 420 0
 260 0032 384B     		ldr	r3, .L12+4
 261 0034 0122     		mov	r2, #1
 262 0036 1A70     		strb	r2, [r3]
 263              	.L6:
 421:.\Generated_Source\PSoC4/CYBLE.c ****     }
 422:.\Generated_Source\PSoC4/CYBLE.c ****     
 423:.\Generated_Source\PSoC4/CYBLE.c ****     if(callbackFunc != NULL)
 264              		.loc 1 423 0
 265 0038 7B68     		ldr	r3, [r7, #4]
 266 003a 002B     		cmp	r3, #0
 267 003c 5CD0     		beq	.L7
 424:.\Generated_Source\PSoC4/CYBLE.c ****     {
 425:.\Generated_Source\PSoC4/CYBLE.c ****         CyBle_ApplCallback = callbackFunc;
 268              		.loc 1 425 0
 269 003e 364B     		ldr	r3, .L12+8
 270 0040 7A68     		ldr	r2, [r7, #4]
 271 0042 1A60     		str	r2, [r3]
 426:.\Generated_Source\PSoC4/CYBLE.c ****         
 427:.\Generated_Source\PSoC4/CYBLE.c ****     #if(CYBLE_SHARING_MODE_EXPORT)
 428:.\Generated_Source\PSoC4/CYBLE.c ****         if(cyBle_stackMemoryRam == NULL)
 429:.\Generated_Source\PSoC4/CYBLE.c ****         {
 430:.\Generated_Source\PSoC4/CYBLE.c ****             cyBle_stackMemoryRam = (uint8 *)malloc(CYBLE_STACK_RAM_SIZE);
 431:.\Generated_Source\PSoC4/CYBLE.c ****             if(cyBle_stackMemoryRam == NULL)
 432:.\Generated_Source\PSoC4/CYBLE.c ****             {
 433:.\Generated_Source\PSoC4/CYBLE.c ****                 apiResult = CYBLE_ERROR_MEMORY_ALLOCATION_FAILED;
 434:.\Generated_Source\PSoC4/CYBLE.c ****             }
 435:.\Generated_Source\PSoC4/CYBLE.c ****         }
 436:.\Generated_Source\PSoC4/CYBLE.c ****     #endif /* CYBLE_SHARING_MODE_EXPORT */
 437:.\Generated_Source\PSoC4/CYBLE.c ****         if(apiResult == CYBLE_ERROR_OK)
 272              		.loc 1 437 0
 273 0044 3E23     		mov	r3, #62
 274 0046 FB18     		add	r3, r7, r3
 275 0048 1B88     		ldrh	r3, [r3]
 276 004a 002B     		cmp	r3, #0
 277 004c 29D1     		bne	.L8
 278              	.LBB2:
 438:.\Generated_Source\PSoC4/CYBLE.c ****         {
 439:.\Generated_Source\PSoC4/CYBLE.c ****             CYBLE_DLE_CONFIG_PARAM_T dleConfigParams;
 440:.\Generated_Source\PSoC4/CYBLE.c ****             CYBLE_PRIVACY_1_2_CONFIG_PARAM_T privacyConfigParams;
 441:.\Generated_Source\PSoC4/CYBLE.c ****             CYBLE_STACK_CONFIG_PARAM_T stackConfig;
 442:.\Generated_Source\PSoC4/CYBLE.c ****             uint16 featureHeapReq;
 443:.\Generated_Source\PSoC4/CYBLE.c ****             
 444:.\Generated_Source\PSoC4/CYBLE.c ****             stackConfig.privacyConfig = &privacyConfigParams;
 279              		.loc 1 444 0
 280 004e 1023     		mov	r3, #16
 281 0050 FB18     		add	r3, r7, r3
 282 0052 1C22     		mov	r2, #28
 283 0054 BA18     		add	r2, r7, r2
 284 0056 5A60     		str	r2, [r3, #4]
 445:.\Generated_Source\PSoC4/CYBLE.c ****             stackConfig.dleConfig = &dleConfigParams;
 285              		.loc 1 445 0
 286 0058 1023     		mov	r3, #16
 287 005a FB18     		add	r3, r7, r3
 288 005c 2022     		mov	r2, #32
ARM GAS  C:\Users\sunyi\AppData\Local\Temp\ccXDbPBi.s 			page 14


 289 005e BA18     		add	r2, r7, r2
 290 0060 1A60     		str	r2, [r3]
 446:.\Generated_Source\PSoC4/CYBLE.c ****             
 447:.\Generated_Source\PSoC4/CYBLE.c ****             /* Configure default BLE 4.1 features and enabled 4.2 features */
 448:.\Generated_Source\PSoC4/CYBLE.c ****             stackConfig.feature_mask = CYBLE_DLE_FEATURE | CYBLE_LL_PRIVACY_FEATURE | 
 291              		.loc 1 448 0
 292 0062 1023     		mov	r3, #16
 293 0064 FB18     		add	r3, r7, r3
 294 0066 0022     		mov	r2, #0
 295 0068 1A81     		strh	r2, [r3, #8]
 449:.\Generated_Source\PSoC4/CYBLE.c ****                                        CYBLE_SECURE_CONN_FEATURE;
 450:.\Generated_Source\PSoC4/CYBLE.c **** 
 451:.\Generated_Source\PSoC4/CYBLE.c ****             /* Configure DLE */
 452:.\Generated_Source\PSoC4/CYBLE.c ****             dleConfigParams.dleMaxTxCapability = CYBLE_LL_MAX_TX_PAYLOAD_SIZE;
 296              		.loc 1 452 0
 297 006a 2023     		mov	r3, #32
 298 006c FB18     		add	r3, r7, r3
 299 006e 1B22     		mov	r2, #27
 300 0070 1A80     		strh	r2, [r3]
 453:.\Generated_Source\PSoC4/CYBLE.c ****             dleConfigParams.dleMaxRxCapability = CYBLE_LL_MAX_RX_PAYLOAD_SIZE;
 301              		.loc 1 453 0
 302 0072 2023     		mov	r3, #32
 303 0074 FB18     		add	r3, r7, r3
 304 0076 1B22     		mov	r2, #27
 305 0078 5A80     		strh	r2, [r3, #2]
 454:.\Generated_Source\PSoC4/CYBLE.c ****             dleConfigParams.dleNumTxBuffer = CYBLE_LL_DEFAULT_NUM_ACL_TX_PACKETS;
 306              		.loc 1 454 0
 307 007a 2023     		mov	r3, #32
 308 007c FB18     		add	r3, r7, r3
 309 007e 0422     		mov	r2, #4
 310 0080 1A71     		strb	r2, [r3, #4]
 455:.\Generated_Source\PSoC4/CYBLE.c ****         #if(CYBLE_DLE_FEATURE_ENABLED)
 456:.\Generated_Source\PSoC4/CYBLE.c ****             CyBle_EnableDleFeature();              /* Enable DLE code in stack */
 457:.\Generated_Source\PSoC4/CYBLE.c ****         #endif /* CYBLE_DLE_FEATURE_ENABLED */
 458:.\Generated_Source\PSoC4/CYBLE.c ****         
 459:.\Generated_Source\PSoC4/CYBLE.c ****             /* Configure LL Privacy */
 460:.\Generated_Source\PSoC4/CYBLE.c ****             privacyConfigParams.resolvingListSize = CYBLE_MAX_RESOLVABLE_DEVICES;
 311              		.loc 1 460 0
 312 0082 1C23     		mov	r3, #28
 313 0084 FB18     		add	r3, r7, r3
 314 0086 0022     		mov	r2, #0
 315 0088 1A70     		strb	r2, [r3]
 461:.\Generated_Source\PSoC4/CYBLE.c ****         #if(CYBLE_LL_PRIVACY_FEATURE_ENABLED)
 462:.\Generated_Source\PSoC4/CYBLE.c ****             CyBle_EnablePrivacyFeature();          /* Enable LL Privacy code in stack */
 463:.\Generated_Source\PSoC4/CYBLE.c ****         #endif /* CYBLE_LL_PRIVACY_FEATURE_ENABLED */
 464:.\Generated_Source\PSoC4/CYBLE.c **** 
 465:.\Generated_Source\PSoC4/CYBLE.c ****             apiResult = CyBle_StackSetFeatureConfig(&stackConfig, &featureHeapReq);
 316              		.loc 1 465 0
 317 008a 3E23     		mov	r3, #62
 318 008c FC18     		add	r4, r7, r3
 319 008e 1023     		mov	r3, #16
 320 0090 FA18     		add	r2, r7, r3
 321 0092 0E23     		mov	r3, #14
 322 0094 FB18     		add	r3, r7, r3
 323 0096 101C     		mov	r0, r2
 324 0098 191C     		mov	r1, r3
 325 009a FFF7FEFF 		bl	CyBle_StackSetFeatureConfig
ARM GAS  C:\Users\sunyi\AppData\Local\Temp\ccXDbPBi.s 			page 15


 326 009e 031C     		mov	r3, r0
 327 00a0 2380     		strh	r3, [r4]
 328              	.L8:
 329              	.LBE2:
 466:.\Generated_Source\PSoC4/CYBLE.c ****             }
 467:.\Generated_Source\PSoC4/CYBLE.c ****     
 468:.\Generated_Source\PSoC4/CYBLE.c ****         if(apiResult == CYBLE_ERROR_OK)
 330              		.loc 1 468 0
 331 00a2 3E23     		mov	r3, #62
 332 00a4 FB18     		add	r3, r7, r3
 333 00a6 1B88     		ldrh	r3, [r3]
 334 00a8 002B     		cmp	r3, #0
 335 00aa 29D1     		bne	.L10
 469:.\Generated_Source\PSoC4/CYBLE.c ****         {
 470:.\Generated_Source\PSoC4/CYBLE.c ****             
 471:.\Generated_Source\PSoC4/CYBLE.c ****         #if(CYBLE_MODE_PROFILE)
 472:.\Generated_Source\PSoC4/CYBLE.c ****             #if(CYBLE_BONDING_REQUIREMENT == CYBLE_BONDING_YES)
 473:.\Generated_Source\PSoC4/CYBLE.c ****                 apiResult = CyBle_StackInit(&CyBle_EventHandler, cyBle_stackMemoryRam, 
 474:.\Generated_Source\PSoC4/CYBLE.c ****                     CYBLE_STACK_RAM_SIZE - CYBLE_GATT_PREPARE_WRITE_BUFF_LEN, cyBle_stackDataBuff, 
 475:.\Generated_Source\PSoC4/CYBLE.c ****                     CYBLE_STACK_APP_MIN_POOL, cyBle_flashStorage.stackFlashptr, CYBLE_STACK_FLASH_S
 476:.\Generated_Source\PSoC4/CYBLE.c ****             #else
 477:.\Generated_Source\PSoC4/CYBLE.c ****                 apiResult = CyBle_StackInit(&CyBle_EventHandler, cyBle_stackMemoryRam, 
 336              		.loc 1 477 0
 337 00ac 3E23     		mov	r3, #62
 338 00ae FC18     		add	r4, r7, r3
 339 00b0 1A48     		ldr	r0, .L12+12
 340 00b2 1B49     		ldr	r1, .L12+16
 341 00b4 AE23     		mov	r3, #174
 342 00b6 1A01     		lsl	r2, r3, #4
 343 00b8 2823     		mov	r3, #40
 344 00ba FD18     		add	r5, r7, r3
 345 00bc 0523     		mov	r3, #5
 346 00be 0093     		str	r3, [sp]
 347 00c0 0023     		mov	r3, #0
 348 00c2 0193     		str	r3, [sp, #4]
 349 00c4 0023     		mov	r3, #0
 350 00c6 0293     		str	r3, [sp, #8]
 351 00c8 2B1C     		mov	r3, r5
 352 00ca FFF7FEFF 		bl	CyBle_StackInit
 353 00ce 031C     		mov	r3, r0
 354 00d0 2380     		strh	r3, [r4]
 478:.\Generated_Source\PSoC4/CYBLE.c ****                     CYBLE_STACK_RAM_SIZE - CYBLE_GATT_PREPARE_WRITE_BUFF_LEN, cyBle_stackDataBuff, 
 479:.\Generated_Source\PSoC4/CYBLE.c ****                     CYBLE_STACK_APP_MIN_POOL, NULL, 0u);
 480:.\Generated_Source\PSoC4/CYBLE.c ****             #endif  /* CYBLE_BONDING_REQUIREMENT == CYBLE_BONDING_YES */
 481:.\Generated_Source\PSoC4/CYBLE.c ****         #else
 482:.\Generated_Source\PSoC4/CYBLE.c ****             apiResult = CyBle_StackInit(&CyBle_EventHandler, cyBle_stackMemoryRam, CYBLE_STACK_RAM_
 483:.\Generated_Source\PSoC4/CYBLE.c ****                 NULL, 0u, NULL, 0u);
 484:.\Generated_Source\PSoC4/CYBLE.c ****         #endif /* CYBLE_MODE_PROFILE */
 485:.\Generated_Source\PSoC4/CYBLE.c **** 
 486:.\Generated_Source\PSoC4/CYBLE.c ****             if(apiResult == CYBLE_ERROR_OK)
 355              		.loc 1 486 0
 356 00d2 3E23     		mov	r3, #62
 357 00d4 FB18     		add	r3, r7, r3
 358 00d6 1B88     		ldrh	r3, [r3]
 359 00d8 002B     		cmp	r3, #0
 360 00da 11D1     		bne	.L10
 487:.\Generated_Source\PSoC4/CYBLE.c ****             {
ARM GAS  C:\Users\sunyi\AppData\Local\Temp\ccXDbPBi.s 			page 16


 488:.\Generated_Source\PSoC4/CYBLE.c ****                 CyBle_SetState(CYBLE_STATE_INITIALIZING);
 361              		.loc 1 488 0
 362 00dc 114B     		ldr	r3, .L12+20
 363 00de 0122     		mov	r2, #1
 364 00e0 1A70     		strb	r2, [r3]
 489:.\Generated_Source\PSoC4/CYBLE.c ****                 
 490:.\Generated_Source\PSoC4/CYBLE.c ****             #if (CYBLE_GATT_ROLE_CLIENT)
 491:.\Generated_Source\PSoC4/CYBLE.c ****                 CyBle_SetClientState(CYBLE_CLIENT_STATE_DISCONNECTED);
 492:.\Generated_Source\PSoC4/CYBLE.c ****             #endif /* CYBLE_GATT_ROLE_CLIENT */
 493:.\Generated_Source\PSoC4/CYBLE.c ****                 
 494:.\Generated_Source\PSoC4/CYBLE.c ****             #if(CYBLE_GATT_ROLE_SERVER)
 495:.\Generated_Source\PSoC4/CYBLE.c ****                 apiResult = CyBle_GattsDbRegister(cyBle_gattDB, CYBLE_GATT_DB_INDEX_COUNT, CYBLE_GA
 365              		.loc 1 495 0
 366 00e2 3E23     		mov	r3, #62
 367 00e4 FC18     		add	r4, r7, r3
 368 00e6 104B     		ldr	r3, .L12+24
 369 00e8 181C     		mov	r0, r3
 370 00ea 1221     		mov	r1, #18
 371 00ec 1222     		mov	r2, #18
 372 00ee FFF7FEFF 		bl	CyBle_GattsDbRegister
 373 00f2 031C     		mov	r3, r0
 374 00f4 2380     		strh	r3, [r4]
 375 00f6 03E0     		b	.L10
 376              	.L7:
 496:.\Generated_Source\PSoC4/CYBLE.c ****             #endif /* CYBLE_GATT_ROLE_SERVER */
 497:.\Generated_Source\PSoC4/CYBLE.c ****             }
 498:.\Generated_Source\PSoC4/CYBLE.c ****         }
 499:.\Generated_Source\PSoC4/CYBLE.c ****     }
 500:.\Generated_Source\PSoC4/CYBLE.c ****     else
 501:.\Generated_Source\PSoC4/CYBLE.c ****     {
 502:.\Generated_Source\PSoC4/CYBLE.c ****         apiResult = CYBLE_ERROR_INVALID_PARAMETER;
 377              		.loc 1 502 0
 378 00f8 3E23     		mov	r3, #62
 379 00fa FB18     		add	r3, r7, r3
 380 00fc 0122     		mov	r2, #1
 381 00fe 1A80     		strh	r2, [r3]
 382              	.L10:
 503:.\Generated_Source\PSoC4/CYBLE.c ****     }
 504:.\Generated_Source\PSoC4/CYBLE.c **** 
 505:.\Generated_Source\PSoC4/CYBLE.c ****     return (apiResult);
 383              		.loc 1 505 0
 384 0100 3E23     		mov	r3, #62
 385 0102 FB18     		add	r3, r7, r3
 386 0104 1B88     		ldrh	r3, [r3]
 506:.\Generated_Source\PSoC4/CYBLE.c **** }
 387              		.loc 1 506 0
 388 0106 181C     		mov	r0, r3
 389 0108 BD46     		mov	sp, r7
 390 010a 10B0     		add	sp, sp, #64
 391              		@ sp needed
 392 010c B0BD     		pop	{r4, r5, r7, pc}
 393              	.L13:
 394 010e C046     		.align	2
 395              	.L12:
 396 0110 00000000 		.word	.LC0
 397 0114 00000000 		.word	cyBle_initVar
 398 0118 00000000 		.word	CyBle_ApplCallback
ARM GAS  C:\Users\sunyi\AppData\Local\Temp\ccXDbPBi.s 			page 17


 399 011c 00000000 		.word	CyBle_EventHandler
 400 0120 00000000 		.word	cyBle_stackMemoryRam
 401 0124 00000000 		.word	cyBle_state
 402 0128 00000000 		.word	cyBle_gattDB
 403              		.cfi_endproc
 404              	.LFE4:
 405              		.size	CyBle_Start, .-CyBle_Start
 406              		.section	.text.CyBle_Stop,"ax",%progbits
 407              		.align	2
 408              		.global	CyBle_Stop
 409              		.code	16
 410              		.thumb_func
 411              		.type	CyBle_Stop, %function
 412              	CyBle_Stop:
 413              	.LFB5:
 507:.\Generated_Source\PSoC4/CYBLE.c **** 
 508:.\Generated_Source\PSoC4/CYBLE.c **** 
 509:.\Generated_Source\PSoC4/CYBLE.c **** /******************************************************************************
 510:.\Generated_Source\PSoC4/CYBLE.c **** * Function Name: CyBle_Stop
 511:.\Generated_Source\PSoC4/CYBLE.c **** ***************************************************************************//**
 512:.\Generated_Source\PSoC4/CYBLE.c **** * 
 513:.\Generated_Source\PSoC4/CYBLE.c **** *  This function stops any ongoing operation in the BLE Stack and forces the 
 514:.\Generated_Source\PSoC4/CYBLE.c **** *  BLE Stack to shut down. The only function that can be called after calling
 515:.\Generated_Source\PSoC4/CYBLE.c **** *  this function is CyBle_Start(). 
 516:.\Generated_Source\PSoC4/CYBLE.c **** * 
 517:.\Generated_Source\PSoC4/CYBLE.c **** * \return
 518:.\Generated_Source\PSoC4/CYBLE.c **** *  None
 519:.\Generated_Source\PSoC4/CYBLE.c **** * 
 520:.\Generated_Source\PSoC4/CYBLE.c **** ******************************************************************************/
 521:.\Generated_Source\PSoC4/CYBLE.c **** void CyBle_Stop(void)
 522:.\Generated_Source\PSoC4/CYBLE.c **** {
 414              		.loc 1 522 0
 415              		.cfi_startproc
 416 0000 80B5     		push	{r7, lr}
 417              		.cfi_def_cfa_offset 8
 418              		.cfi_offset 7, -8
 419              		.cfi_offset 14, -4
 420 0002 00AF     		add	r7, sp, #0
 421              		.cfi_def_cfa_register 7
 523:.\Generated_Source\PSoC4/CYBLE.c ****     CyBle_Shutdown();                         /* Stop all ongoing activities */
 422              		.loc 1 523 0
 423 0004 FFF7FEFF 		bl	CyBle_Shutdown
 524:.\Generated_Source\PSoC4/CYBLE.c ****     CyBle_SetState(CYBLE_STATE_STOPPED);
 424              		.loc 1 524 0
 425 0008 024B     		ldr	r3, .L15
 426 000a 0022     		mov	r2, #0
 427 000c 1A70     		strb	r2, [r3]
 525:.\Generated_Source\PSoC4/CYBLE.c ****     #if(CYBLE_SHARING_MODE_EXPORT)
 526:.\Generated_Source\PSoC4/CYBLE.c ****         if(cyBle_stackMemoryRam != NULL)
 527:.\Generated_Source\PSoC4/CYBLE.c ****         {
 528:.\Generated_Source\PSoC4/CYBLE.c ****             free(cyBle_stackMemoryRam);
 529:.\Generated_Source\PSoC4/CYBLE.c ****         }
 530:.\Generated_Source\PSoC4/CYBLE.c ****     #endif /* CYBLE_SHARING_MODE_EXPORT */
 531:.\Generated_Source\PSoC4/CYBLE.c **** }
 428              		.loc 1 531 0
 429 000e BD46     		mov	sp, r7
 430              		@ sp needed
ARM GAS  C:\Users\sunyi\AppData\Local\Temp\ccXDbPBi.s 			page 18


 431 0010 80BD     		pop	{r7, pc}
 432              	.L16:
 433 0012 C046     		.align	2
 434              	.L15:
 435 0014 00000000 		.word	cyBle_state
 436              		.cfi_endproc
 437              	.LFE5:
 438              		.size	CyBle_Stop, .-CyBle_Stop
 439              		.section	.text.CyBle_GappStartAdvertisement,"ax",%progbits
 440              		.align	2
 441              		.global	CyBle_GappStartAdvertisement
 442              		.code	16
 443              		.thumb_func
 444              		.type	CyBle_GappStartAdvertisement, %function
 445              	CyBle_GappStartAdvertisement:
 446              	.LFB6:
 532:.\Generated_Source\PSoC4/CYBLE.c **** 
 533:.\Generated_Source\PSoC4/CYBLE.c **** 
 534:.\Generated_Source\PSoC4/CYBLE.c **** #if((CYBLE_GAP_ROLE_PERIPHERAL || CYBLE_GAP_ROLE_CENTRAL) && (CYBLE_BONDING_REQUIREMENT == CYBLE_BO
 535:.\Generated_Source\PSoC4/CYBLE.c **** 
 536:.\Generated_Source\PSoC4/CYBLE.c ****     
 537:.\Generated_Source\PSoC4/CYBLE.c **** /******************************************************************************
 538:.\Generated_Source\PSoC4/CYBLE.c **** * Function Name: CyBle_StoreBondingData
 539:.\Generated_Source\PSoC4/CYBLE.c **** ***************************************************************************//**
 540:.\Generated_Source\PSoC4/CYBLE.c **** * 
 541:.\Generated_Source\PSoC4/CYBLE.c **** *  This function writes the new bonding data from RAM to the dedicated Flash 
 542:.\Generated_Source\PSoC4/CYBLE.c **** *  location as defined by the component. It performs data comparing between RAM
 543:.\Generated_Source\PSoC4/CYBLE.c **** *  and Flash before writing to Flash. If there is no change between RAM and Flash
 544:.\Generated_Source\PSoC4/CYBLE.c **** *  data, then no write is performed. It writes only one flash row in one call.
 545:.\Generated_Source\PSoC4/CYBLE.c **** *  Application should keep calling this function till API return CYBLE_ERROR_OK. 
 546:.\Generated_Source\PSoC4/CYBLE.c **** *  This function is available only when Bonding requirement is selected in
 547:.\Generated_Source\PSoC4/CYBLE.c **** *  Security settings.    
 548:.\Generated_Source\PSoC4/CYBLE.c **** * 
 549:.\Generated_Source\PSoC4/CYBLE.c **** *  \param isForceWrite:  If value is set to 0, then stack will check if flash write 
 550:.\Generated_Source\PSoC4/CYBLE.c **** *                 is permissible. 
 551:.\Generated_Source\PSoC4/CYBLE.c **** *  
 552:.\Generated_Source\PSoC4/CYBLE.c **** * \return
 553:.\Generated_Source\PSoC4/CYBLE.c **** *  Return value is of type CYBLE_API_RESULT_T.
 554:.\Generated_Source\PSoC4/CYBLE.c **** *
 555:.\Generated_Source\PSoC4/CYBLE.c **** *   Errors codes                         | Description
 556:.\Generated_Source\PSoC4/CYBLE.c **** *   ----------------------------------   | ------------------------------------
 557:.\Generated_Source\PSoC4/CYBLE.c **** *   CYBLE_ERROR_OK                       | On successful operation
 558:.\Generated_Source\PSoC4/CYBLE.c **** *   CYBLE_ERROR_FLASH_WRITE_NOT_PERMITED | Flash Write is not complete
 559:.\Generated_Source\PSoC4/CYBLE.c **** *    
 560:.\Generated_Source\PSoC4/CYBLE.c **** *  \sideeffect
 561:.\Generated_Source\PSoC4/CYBLE.c **** *   For BLE devices with 128K of Flash memory this API will automatically 
 562:.\Generated_Source\PSoC4/CYBLE.c **** *   modify the clock settings for the device.
 563:.\Generated_Source\PSoC4/CYBLE.c **** *   Writing to flash requires changes to be done to the IMO (set to 48 MHz)
 564:.\Generated_Source\PSoC4/CYBLE.c **** *   and HFCLK (source set to IMO) settings. The configuration is restored before
 565:.\Generated_Source\PSoC4/CYBLE.c **** *   returning. This will impact the operation of most of the hardware in the
 566:.\Generated_Source\PSoC4/CYBLE.c **** *   device.
 567:.\Generated_Source\PSoC4/CYBLE.c **** * 
 568:.\Generated_Source\PSoC4/CYBLE.c **** *  \globalvars
 569:.\Generated_Source\PSoC4/CYBLE.c **** *   The cyBle_pendingFlashWrite variable is used to detect status
 570:.\Generated_Source\PSoC4/CYBLE.c **** *   of pending write to flash operation for stack data and CCCD.
 571:.\Generated_Source\PSoC4/CYBLE.c **** *   This API automatically clears pending bits after write operation complete.
 572:.\Generated_Source\PSoC4/CYBLE.c **** *     
ARM GAS  C:\Users\sunyi\AppData\Local\Temp\ccXDbPBi.s 			page 19


 573:.\Generated_Source\PSoC4/CYBLE.c **** ******************************************************************************/
 574:.\Generated_Source\PSoC4/CYBLE.c **** CYBLE_API_RESULT_T CyBle_StoreBondingData(uint8 isForceWrite)
 575:.\Generated_Source\PSoC4/CYBLE.c **** {
 576:.\Generated_Source\PSoC4/CYBLE.c ****     CYBLE_API_RESULT_T apiResult = CYBLE_ERROR_OK;
 577:.\Generated_Source\PSoC4/CYBLE.c ****     
 578:.\Generated_Source\PSoC4/CYBLE.c ****     /* Store Stack data */
 579:.\Generated_Source\PSoC4/CYBLE.c ****     if((cyBle_pendingFlashWrite & CYBLE_PENDING_STACK_FLASH_WRITE_BIT) != 0u)
 580:.\Generated_Source\PSoC4/CYBLE.c ****     {
 581:.\Generated_Source\PSoC4/CYBLE.c ****         apiResult = CyBle_StoreStackData(isForceWrite);
 582:.\Generated_Source\PSoC4/CYBLE.c ****         if(apiResult == CYBLE_ERROR_OK)
 583:.\Generated_Source\PSoC4/CYBLE.c ****         {
 584:.\Generated_Source\PSoC4/CYBLE.c ****             cyBle_pendingFlashWrite &= (uint8)~CYBLE_PENDING_STACK_FLASH_WRITE_BIT;
 585:.\Generated_Source\PSoC4/CYBLE.c ****             /* Change apiResult if there are more pending data to store */
 586:.\Generated_Source\PSoC4/CYBLE.c ****             if((cyBle_pendingFlashWrite & CYBLE_PENDING_CCCD_FLASH_WRITE_BIT) != 0u)
 587:.\Generated_Source\PSoC4/CYBLE.c ****             {
 588:.\Generated_Source\PSoC4/CYBLE.c ****                 apiResult = CYBLE_ERROR_FLASH_WRITE_NOT_PERMITED;
 589:.\Generated_Source\PSoC4/CYBLE.c ****             }
 590:.\Generated_Source\PSoC4/CYBLE.c ****         }
 591:.\Generated_Source\PSoC4/CYBLE.c ****     }
 592:.\Generated_Source\PSoC4/CYBLE.c **** #if(CYBLE_GATT_DB_CCCD_COUNT != 0u)
 593:.\Generated_Source\PSoC4/CYBLE.c ****     /* Store CCCD values */
 594:.\Generated_Source\PSoC4/CYBLE.c ****     if( ((apiResult == CYBLE_ERROR_OK) || (isForceWrite != 0u)) && 
 595:.\Generated_Source\PSoC4/CYBLE.c ****         ((cyBle_pendingFlashWrite & CYBLE_PENDING_CCCD_FLASH_WRITE_BIT) != 0u) &&
 596:.\Generated_Source\PSoC4/CYBLE.c ****         (cyBle_connHandle.bdHandle <= CYBLE_GAP_MAX_BONDED_DEVICE))
 597:.\Generated_Source\PSoC4/CYBLE.c ****     {
 598:.\Generated_Source\PSoC4/CYBLE.c ****         apiResult = CyBle_StoreAppData(cyBle_attValuesCCCD, cyBle_flashStorage.attValuesCCCDFlashMe
 599:.\Generated_Source\PSoC4/CYBLE.c ****                         cyBle_connHandle.bdHandle], CYBLE_GATT_DB_CCCD_COUNT, isForceWrite);
 600:.\Generated_Source\PSoC4/CYBLE.c ****         if(apiResult == CYBLE_ERROR_OK)
 601:.\Generated_Source\PSoC4/CYBLE.c ****         {
 602:.\Generated_Source\PSoC4/CYBLE.c ****             cyBle_pendingFlashWrite &= (uint8)~CYBLE_PENDING_CCCD_FLASH_WRITE_BIT;
 603:.\Generated_Source\PSoC4/CYBLE.c ****         }
 604:.\Generated_Source\PSoC4/CYBLE.c ****     }
 605:.\Generated_Source\PSoC4/CYBLE.c ****     /* Clear requested CCCD values */
 606:.\Generated_Source\PSoC4/CYBLE.c ****     if( ((apiResult == CYBLE_ERROR_OK) || (isForceWrite != 0u)) && 
 607:.\Generated_Source\PSoC4/CYBLE.c ****         ((cyBle_pendingFlashWrite & CYBLE_PENDING_CCCD_FLASH_CLEAR_MASK) != 0u) )
 608:.\Generated_Source\PSoC4/CYBLE.c ****     {
 609:.\Generated_Source\PSoC4/CYBLE.c ****         if((cyBle_pendingFlashWrite & CYBLE_PENDING_CCCD_FLASH_CLEAR_ALL_BIT) != 0u)
 610:.\Generated_Source\PSoC4/CYBLE.c ****         {
 611:.\Generated_Source\PSoC4/CYBLE.c ****             /* Remove cccd values for all bonded devices */
 612:.\Generated_Source\PSoC4/CYBLE.c ****             uint8 defaultValuesCCCD[CYBLE_GAP_MAX_BONDED_DEVICE + 1u][CYBLE_GATT_DB_CCCD_COUNT];
 613:.\Generated_Source\PSoC4/CYBLE.c ****             
 614:.\Generated_Source\PSoC4/CYBLE.c ****             (void)memset(defaultValuesCCCD, 0, sizeof(defaultValuesCCCD));
 615:.\Generated_Source\PSoC4/CYBLE.c **** 
 616:.\Generated_Source\PSoC4/CYBLE.c ****             apiResult = CyBle_StoreAppData((uint8 *)defaultValuesCCCD, 
 617:.\Generated_Source\PSoC4/CYBLE.c ****                 (const uint8 *)cyBle_flashStorage.attValuesCCCDFlashMemory, sizeof(defaultValuesCCC
 618:.\Generated_Source\PSoC4/CYBLE.c ****             if(apiResult == CYBLE_ERROR_OK)
 619:.\Generated_Source\PSoC4/CYBLE.c ****             {
 620:.\Generated_Source\PSoC4/CYBLE.c ****                 cyBle_pendingFlashWrite &= (uint8)~CYBLE_PENDING_CCCD_FLASH_CLEAR_ALL_BIT;
 621:.\Generated_Source\PSoC4/CYBLE.c ****             }
 622:.\Generated_Source\PSoC4/CYBLE.c ****         }
 623:.\Generated_Source\PSoC4/CYBLE.c ****         else /* Remove cccd values for particular device */
 624:.\Generated_Source\PSoC4/CYBLE.c ****         {
 625:.\Generated_Source\PSoC4/CYBLE.c ****             uint8 defaultValuesCCCD[CYBLE_GATT_DB_CCCD_COUNT] = {0u};
 626:.\Generated_Source\PSoC4/CYBLE.c ****             
 627:.\Generated_Source\PSoC4/CYBLE.c ****             apiResult = CyBle_StoreAppData(defaultValuesCCCD, cyBle_flashStorage.attValuesCCCDFlash
 628:.\Generated_Source\PSoC4/CYBLE.c ****                                     cyBle_pendingFlashClearCccdHandle], CYBLE_GATT_DB_CCCD_COUNT, i
 629:.\Generated_Source\PSoC4/CYBLE.c ****             if(apiResult == CYBLE_ERROR_OK)
ARM GAS  C:\Users\sunyi\AppData\Local\Temp\ccXDbPBi.s 			page 20


 630:.\Generated_Source\PSoC4/CYBLE.c ****             {
 631:.\Generated_Source\PSoC4/CYBLE.c ****                 cyBle_pendingFlashWrite &= (uint8)~CYBLE_PENDING_CCCD_FLASH_CLEAR_BIT;
 632:.\Generated_Source\PSoC4/CYBLE.c ****             }
 633:.\Generated_Source\PSoC4/CYBLE.c ****         }
 634:.\Generated_Source\PSoC4/CYBLE.c ****     }
 635:.\Generated_Source\PSoC4/CYBLE.c **** #endif /* CYBLE_GATT_DB_CCCD_COUNT != 0u */
 636:.\Generated_Source\PSoC4/CYBLE.c ****     return(apiResult);
 637:.\Generated_Source\PSoC4/CYBLE.c **** }
 638:.\Generated_Source\PSoC4/CYBLE.c **** 
 639:.\Generated_Source\PSoC4/CYBLE.c **** 
 640:.\Generated_Source\PSoC4/CYBLE.c **** /******************************************************************************
 641:.\Generated_Source\PSoC4/CYBLE.c **** * Function Name: CyBle_GapRemoveBondedDevice
 642:.\Generated_Source\PSoC4/CYBLE.c **** ***************************************************************************//**
 643:.\Generated_Source\PSoC4/CYBLE.c **** * 
 644:.\Generated_Source\PSoC4/CYBLE.c **** *  This function marks the device untrusted. It removes the bonding information
 645:.\Generated_Source\PSoC4/CYBLE.c **** *  of the device including CCCD values. This function removes device from the
 646:.\Generated_Source\PSoC4/CYBLE.c **** *  white list also when autopopulate white list with bonded devices option is
 647:.\Generated_Source\PSoC4/CYBLE.c **** *  enabled.
 648:.\Generated_Source\PSoC4/CYBLE.c **** * 
 649:.\Generated_Source\PSoC4/CYBLE.c **** *  This function is available only when Bonding requirement is selected in
 650:.\Generated_Source\PSoC4/CYBLE.c **** *  Security settings.    
 651:.\Generated_Source\PSoC4/CYBLE.c **** *
 652:.\Generated_Source\PSoC4/CYBLE.c **** *  \param bdAddr: Pointer to peer device address, of type CYBLE_GAP_BD_ADDR_T.
 653:.\Generated_Source\PSoC4/CYBLE.c **** *                 If device address is set to 0, then all devices shall be
 654:.\Generated_Source\PSoC4/CYBLE.c **** *                 removed from trusted list and white list.
 655:.\Generated_Source\PSoC4/CYBLE.c **** *
 656:.\Generated_Source\PSoC4/CYBLE.c **** * \return
 657:.\Generated_Source\PSoC4/CYBLE.c **** *  CYBLE_API_RESULT_T : Return value indicates if the function succeeded or
 658:.\Generated_Source\PSoC4/CYBLE.c **** *  failed. Following are the possible error codes.
 659:.\Generated_Source\PSoC4/CYBLE.c **** *
 660:.\Generated_Source\PSoC4/CYBLE.c **** *   Errors codes                     | Description
 661:.\Generated_Source\PSoC4/CYBLE.c **** *   ---------------------------------| ------------------------------------
 662:.\Generated_Source\PSoC4/CYBLE.c **** *   CYBLE_ERROR_OK                   | On successful operation.
 663:.\Generated_Source\PSoC4/CYBLE.c **** *   CYBLE_ERROR_INVALID_PARAMETER    | On specifying NULL as input parameter for 'bdAddr'.
 664:.\Generated_Source\PSoC4/CYBLE.c **** *   CYBLE_ERROR_INVALID_OPERATION    | Whitelist is already in use or there is pending write to fla
 665:.\Generated_Source\PSoC4/CYBLE.c **** *   CYBLE_ERROR_NO_DEVICE_ENTITY     | Device does not exist in the bond list.
 666:.\Generated_Source\PSoC4/CYBLE.c **** *
 667:.\Generated_Source\PSoC4/CYBLE.c **** *  \globalvars
 668:.\Generated_Source\PSoC4/CYBLE.c **** *   The bdHandle is set in cyBle_pendingFlashWrite variable to indicate that
 669:.\Generated_Source\PSoC4/CYBLE.c **** *   data should be stored to flash by CyBle_StoreBondingData afterwards. 
 670:.\Generated_Source\PSoC4/CYBLE.c **** *     
 671:.\Generated_Source\PSoC4/CYBLE.c **** ******************************************************************************/
 672:.\Generated_Source\PSoC4/CYBLE.c **** CYBLE_API_RESULT_T CyBle_GapRemoveBondedDevice(CYBLE_GAP_BD_ADDR_T* bdAddr)
 673:.\Generated_Source\PSoC4/CYBLE.c **** {
 674:.\Generated_Source\PSoC4/CYBLE.c ****     CYBLE_API_RESULT_T apiResult = CYBLE_ERROR_OK;
 675:.\Generated_Source\PSoC4/CYBLE.c ****     
 676:.\Generated_Source\PSoC4/CYBLE.c ****     if(cyBle_pendingFlashWrite == 0u)
 677:.\Generated_Source\PSoC4/CYBLE.c ****     {
 678:.\Generated_Source\PSoC4/CYBLE.c ****         
 679:.\Generated_Source\PSoC4/CYBLE.c ****     #if(CYBLE_GATT_DB_CCCD_COUNT != 0u)
 680:.\Generated_Source\PSoC4/CYBLE.c ****         /* Request to clear CCCD values which will be done by CyBle_StoreBondingData API */
 681:.\Generated_Source\PSoC4/CYBLE.c ****         uint8 bDevHandle;
 682:.\Generated_Source\PSoC4/CYBLE.c ****         CYBLE_GAP_BD_ADDR_T invalidBdAddr = {{0u,0u,0u,0u,0u,0u}, 0u};
 683:.\Generated_Source\PSoC4/CYBLE.c **** 
 684:.\Generated_Source\PSoC4/CYBLE.c ****         if(memcmp(((uint8 *) &(bdAddr->bdAddr)), ((uint8 *) &(invalidBdAddr.bdAddr)), CYBLE_GAP_BD_
 685:.\Generated_Source\PSoC4/CYBLE.c **** 	    {
 686:.\Generated_Source\PSoC4/CYBLE.c ****             /* Request to remove all bonded devices by cyBle_StoreBondingData API */
ARM GAS  C:\Users\sunyi\AppData\Local\Temp\ccXDbPBi.s 			page 21


 687:.\Generated_Source\PSoC4/CYBLE.c ****             cyBle_pendingFlashWrite |= CYBLE_PENDING_CCCD_FLASH_CLEAR_ALL_BIT;
 688:.\Generated_Source\PSoC4/CYBLE.c ****         }
 689:.\Generated_Source\PSoC4/CYBLE.c ****         else
 690:.\Generated_Source\PSoC4/CYBLE.c ****         {
 691:.\Generated_Source\PSoC4/CYBLE.c ****             /* Get the BD handle from Address */
 692:.\Generated_Source\PSoC4/CYBLE.c ****             apiResult = CyBle_GapGetPeerBdHandle(&bDevHandle, bdAddr);
 693:.\Generated_Source\PSoC4/CYBLE.c ****             if(apiResult == CYBLE_ERROR_OK)
 694:.\Generated_Source\PSoC4/CYBLE.c ****             {
 695:.\Generated_Source\PSoC4/CYBLE.c ****                 /* Store BD handle to clear cccd values by CyBle_StoreBondingData API */
 696:.\Generated_Source\PSoC4/CYBLE.c ****                 cyBle_pendingFlashWrite |= CYBLE_PENDING_CCCD_FLASH_CLEAR_BIT;
 697:.\Generated_Source\PSoC4/CYBLE.c ****                 cyBle_pendingFlashClearCccdHandle = bDevHandle;
 698:.\Generated_Source\PSoC4/CYBLE.c ****             }
 699:.\Generated_Source\PSoC4/CYBLE.c ****         }
 700:.\Generated_Source\PSoC4/CYBLE.c ****         if(apiResult == CYBLE_ERROR_OK)
 701:.\Generated_Source\PSoC4/CYBLE.c ****         {
 702:.\Generated_Source\PSoC4/CYBLE.c ****             #if(CYBLE_AUTO_POPULATE_WHITELIST != 0u)
 703:.\Generated_Source\PSoC4/CYBLE.c ****                 apiResult = CyBle_GapRemoveDeviceFromWhiteList(bdAddr);
 704:.\Generated_Source\PSoC4/CYBLE.c ****             #else
 705:.\Generated_Source\PSoC4/CYBLE.c ****                 apiResult = CyBle_GapRemDeviceFromBondList(bdAddr);
 706:.\Generated_Source\PSoC4/CYBLE.c ****             #endif
 707:.\Generated_Source\PSoC4/CYBLE.c ****         }
 708:.\Generated_Source\PSoC4/CYBLE.c ****     #endif /* CYBLE_GATT_DB_CCCD_COUNT != 0u */
 709:.\Generated_Source\PSoC4/CYBLE.c ****     }
 710:.\Generated_Source\PSoC4/CYBLE.c ****     else
 711:.\Generated_Source\PSoC4/CYBLE.c ****     {
 712:.\Generated_Source\PSoC4/CYBLE.c ****         apiResult = CYBLE_ERROR_INVALID_OPERATION;
 713:.\Generated_Source\PSoC4/CYBLE.c ****     }
 714:.\Generated_Source\PSoC4/CYBLE.c ****     
 715:.\Generated_Source\PSoC4/CYBLE.c ****     return(apiResult);
 716:.\Generated_Source\PSoC4/CYBLE.c **** }
 717:.\Generated_Source\PSoC4/CYBLE.c **** 
 718:.\Generated_Source\PSoC4/CYBLE.c **** 
 719:.\Generated_Source\PSoC4/CYBLE.c **** #endif /* (CYBLE_GAP_ROLE_PERIPHERAL || CYBLE_GAP_ROLE_CENTRAL) && (CYBLE_BONDING_REQUIREMENT == CY
 720:.\Generated_Source\PSoC4/CYBLE.c **** 
 721:.\Generated_Source\PSoC4/CYBLE.c **** 
 722:.\Generated_Source\PSoC4/CYBLE.c **** #if(CYBLE_GAP_ROLE_PERIPHERAL || CYBLE_GAP_ROLE_BROADCASTER)
 723:.\Generated_Source\PSoC4/CYBLE.c **** 
 724:.\Generated_Source\PSoC4/CYBLE.c ****     /******************************************************************************
 725:.\Generated_Source\PSoC4/CYBLE.c ****     *  Function Name: CyBle_GappStartAdvertisement
 726:.\Generated_Source\PSoC4/CYBLE.c ****     ***************************************************************************//**
 727:.\Generated_Source\PSoC4/CYBLE.c ****     *     
 728:.\Generated_Source\PSoC4/CYBLE.c ****     *  This function is used to start the advertisement using the advertisement data 
 729:.\Generated_Source\PSoC4/CYBLE.c ****     *  set in the component customizer's GUI. After invoking this API, the device 
 730:.\Generated_Source\PSoC4/CYBLE.c ****     *  will be available for connection by the devices configured for GAP central 
 731:.\Generated_Source\PSoC4/CYBLE.c ****     *  role. It is only included if the device is configured for GAP Peripheral or 
 732:.\Generated_Source\PSoC4/CYBLE.c ****     *  GAP Peripheral + Central role.
 733:.\Generated_Source\PSoC4/CYBLE.c ****     *  
 734:.\Generated_Source\PSoC4/CYBLE.c ****     *  On start of advertisement, GAP Peripheral receives the
 735:.\Generated_Source\PSoC4/CYBLE.c ****     *  CYBLE_EVT_GAPP_ADVERTISEMENT_START_STOP event. The following events are 
 736:.\Generated_Source\PSoC4/CYBLE.c ****     *  possible on invoking this function:
 737:.\Generated_Source\PSoC4/CYBLE.c ****     *  
 738:.\Generated_Source\PSoC4/CYBLE.c ****     *  * CYBLE_EVT_GAP_DEVICE_CONNECTED - If the device connects to a GAP Central and 
 739:.\Generated_Source\PSoC4/CYBLE.c ****     *    Link Layer Privacy is disabled in component customizer.
 740:.\Generated_Source\PSoC4/CYBLE.c ****     *  * CYBLE_EVT_GAP_ENHANCE_CONN_COMPLETE - If the device connects to a GAP Central and 
 741:.\Generated_Source\PSoC4/CYBLE.c ****     *    Link Layer Privacy is enabled in component customizer.
 742:.\Generated_Source\PSoC4/CYBLE.c ****     *  * CYBLE_EVT_TIMEOUT: If no device in GAP Central mode connects to this 
 743:.\Generated_Source\PSoC4/CYBLE.c ****     *                       device within the specified timeout limit. Stack 
ARM GAS  C:\Users\sunyi\AppData\Local\Temp\ccXDbPBi.s 			page 22


 744:.\Generated_Source\PSoC4/CYBLE.c ****     *                       automatically initiate stop advertising when Slow 
 745:.\Generated_Source\PSoC4/CYBLE.c ****     *                       advertising was initiated, or starts Slow advertising
 746:.\Generated_Source\PSoC4/CYBLE.c ****     *                       after Fast advertising timeout occur.
 747:.\Generated_Source\PSoC4/CYBLE.c ****     *  * CYBLE_EVT_GAPP_ADVERTISEMENT_START_STOP: If device started or stopped
 748:.\Generated_Source\PSoC4/CYBLE.c ****     *                                               advertising. Use CyBle_GetState()
 749:.\Generated_Source\PSoC4/CYBLE.c ****     *                                               to determine the state. Sequential 
 750:.\Generated_Source\PSoC4/CYBLE.c ****     *                                               advertising could be started when
 751:.\Generated_Source\PSoC4/CYBLE.c ****     *                                               CYBLE_STATE_DISCONNECTED state is
 752:.\Generated_Source\PSoC4/CYBLE.c ****     *                                               returned.
 753:.\Generated_Source\PSoC4/CYBLE.c ****     * 
 754:.\Generated_Source\PSoC4/CYBLE.c ****     *  \param advertisingIntervalType: Fast or slow advertising interval with timings
 755:.\Generated_Source\PSoC4/CYBLE.c ****     *                                 entered in Advertising settings section of the
 756:.\Generated_Source\PSoC4/CYBLE.c ****     *                                 customizer.
 757:.\Generated_Source\PSoC4/CYBLE.c ****     *  * CYBLE_ADVERTISING_FAST   0x00u
 758:.\Generated_Source\PSoC4/CYBLE.c ****     *  * CYBLE_ADVERTISING_SLOW   0x01u
 759:.\Generated_Source\PSoC4/CYBLE.c ****     *  * CYBLE_ADVERTISING_CUSTOM 0x02u
 760:.\Generated_Source\PSoC4/CYBLE.c ****     * 
 761:.\Generated_Source\PSoC4/CYBLE.c ****     * \return
 762:.\Generated_Source\PSoC4/CYBLE.c ****     *  CYBLE_API_RESULT_T : Return value indicates if the function succeeded or
 763:.\Generated_Source\PSoC4/CYBLE.c ****     *  failed. Following are the possible error codes.
 764:.\Generated_Source\PSoC4/CYBLE.c ****     * 
 765:.\Generated_Source\PSoC4/CYBLE.c ****     *   Errors codes                      |  Description
 766:.\Generated_Source\PSoC4/CYBLE.c ****     *   --------------------------------- |  --------------------------------
 767:.\Generated_Source\PSoC4/CYBLE.c ****     *   CYBLE_ERROR_OK                    |  On successful operation.
 768:.\Generated_Source\PSoC4/CYBLE.c ****     *   CYBLE_ERROR_INVALID_PARAMETER     |  On passing an invalid parameter.
 769:.\Generated_Source\PSoC4/CYBLE.c ****     *   CYBLE_ERROR_INVALID_STATE         |  On calling this API not in Disconnected state.
 770:.\Generated_Source\PSoC4/CYBLE.c ****     *
 771:.\Generated_Source\PSoC4/CYBLE.c ****     * 
 772:.\Generated_Source\PSoC4/CYBLE.c ****     *******************************************************************************/
 773:.\Generated_Source\PSoC4/CYBLE.c ****     CYBLE_API_RESULT_T CyBle_GappStartAdvertisement(uint8 advertisingIntervalType)
 774:.\Generated_Source\PSoC4/CYBLE.c ****     {
 447              		.loc 1 774 0
 448              		.cfi_startproc
 449 0000 90B5     		push	{r4, r7, lr}
 450              		.cfi_def_cfa_offset 12
 451              		.cfi_offset 4, -12
 452              		.cfi_offset 7, -8
 453              		.cfi_offset 14, -4
 454 0002 85B0     		sub	sp, sp, #20
 455              		.cfi_def_cfa_offset 32
 456 0004 00AF     		add	r7, sp, #0
 457              		.cfi_def_cfa_register 7
 458 0006 021C     		mov	r2, r0
 459 0008 FB1D     		add	r3, r7, #7
 460 000a 1A70     		strb	r2, [r3]
 775:.\Generated_Source\PSoC4/CYBLE.c ****         CYBLE_API_RESULT_T apiResult;
 776:.\Generated_Source\PSoC4/CYBLE.c ****         
 777:.\Generated_Source\PSoC4/CYBLE.c ****         if(advertisingIntervalType > CYBLE_ADVERTISING_CUSTOM)
 461              		.loc 1 777 0
 462 000c FB1D     		add	r3, r7, #7
 463 000e 1B78     		ldrb	r3, [r3]
 464 0010 022B     		cmp	r3, #2
 465 0012 04D9     		bls	.L18
 778:.\Generated_Source\PSoC4/CYBLE.c ****         {
 779:.\Generated_Source\PSoC4/CYBLE.c ****             apiResult = CYBLE_ERROR_INVALID_PARAMETER;
 466              		.loc 1 779 0
 467 0014 0E23     		mov	r3, #14
ARM GAS  C:\Users\sunyi\AppData\Local\Temp\ccXDbPBi.s 			page 23


 468 0016 FB18     		add	r3, r7, r3
 469 0018 0122     		mov	r2, #1
 470 001a 1A80     		strh	r2, [r3]
 471 001c 4BE0     		b	.L19
 472              	.L18:
 780:.\Generated_Source\PSoC4/CYBLE.c ****         }
 781:.\Generated_Source\PSoC4/CYBLE.c ****         else if((CYBLE_STATE_DISCONNECTED == CyBle_GetState()) && ((cyBle_eventHandlerFlag & CYBLE_
 473              		.loc 1 781 0
 474 001e 294B     		ldr	r3, .L25
 475 0020 1B78     		ldrb	r3, [r3]
 476 0022 042B     		cmp	r3, #4
 477 0024 42D1     		bne	.L20
 478              		.loc 1 781 0 is_stmt 0 discriminator 1
 479 0026 284B     		ldr	r3, .L25+4
 480 0028 1B78     		ldrb	r3, [r3]
 481 002a DBB2     		uxtb	r3, r3
 482 002c 1A1C     		mov	r2, r3
 483 002e 0423     		mov	r3, #4
 484 0030 1340     		and	r3, r2
 485 0032 3BD1     		bne	.L20
 782:.\Generated_Source\PSoC4/CYBLE.c ****         {   
 783:.\Generated_Source\PSoC4/CYBLE.c ****             if(advertisingIntervalType == CYBLE_ADVERTISING_FAST)
 486              		.loc 1 783 0 is_stmt 1
 487 0034 FB1D     		add	r3, r7, #7
 488 0036 1B78     		ldrb	r3, [r3]
 489 0038 002B     		cmp	r3, #0
 490 003a 0BD1     		bne	.L21
 784:.\Generated_Source\PSoC4/CYBLE.c ****             {
 785:.\Generated_Source\PSoC4/CYBLE.c ****                 cyBle_discoveryModeInfo.advTo = CYBLE_FAST_ADV_TIMEOUT;
 491              		.loc 1 785 0
 492 003c 234B     		ldr	r3, .L25+8
 493 003e 1E22     		mov	r2, #30
 494 0040 1A82     		strh	r2, [r3, #16]
 786:.\Generated_Source\PSoC4/CYBLE.c ****                 cyBle_discoveryModeInfo.advParam->advIntvMin = CYBLE_FAST_ADV_INT_MIN;
 495              		.loc 1 786 0
 496 0042 224B     		ldr	r3, .L25+8
 497 0044 5B68     		ldr	r3, [r3, #4]
 498 0046 2022     		mov	r2, #32
 499 0048 1A80     		strh	r2, [r3]
 787:.\Generated_Source\PSoC4/CYBLE.c ****                 cyBle_discoveryModeInfo.advParam->advIntvMax = CYBLE_FAST_ADV_INT_MAX;
 500              		.loc 1 787 0
 501 004a 204B     		ldr	r3, .L25+8
 502 004c 5B68     		ldr	r3, [r3, #4]
 503 004e 3022     		mov	r2, #48
 504 0050 5A80     		strh	r2, [r3, #2]
 505 0052 10E0     		b	.L22
 506              	.L21:
 788:.\Generated_Source\PSoC4/CYBLE.c ****             }
 789:.\Generated_Source\PSoC4/CYBLE.c ****             else if(advertisingIntervalType == CYBLE_ADVERTISING_SLOW)
 507              		.loc 1 789 0
 508 0054 FB1D     		add	r3, r7, #7
 509 0056 1B78     		ldrb	r3, [r3]
 510 0058 012B     		cmp	r3, #1
 511 005a 0CD1     		bne	.L22
 790:.\Generated_Source\PSoC4/CYBLE.c ****             {
 791:.\Generated_Source\PSoC4/CYBLE.c ****                 cyBle_discoveryModeInfo.advTo = CYBLE_SLOW_ADV_TIMEOUT;
 512              		.loc 1 791 0
ARM GAS  C:\Users\sunyi\AppData\Local\Temp\ccXDbPBi.s 			page 24


 513 005c 1B4B     		ldr	r3, .L25+8
 514 005e 9622     		mov	r2, #150
 515 0060 1A82     		strh	r2, [r3, #16]
 792:.\Generated_Source\PSoC4/CYBLE.c ****                 cyBle_discoveryModeInfo.advParam->advIntvMin = CYBLE_SLOW_ADV_INT_MIN;
 516              		.loc 1 792 0
 517 0062 1A4B     		ldr	r3, .L25+8
 518 0064 5B68     		ldr	r3, [r3, #4]
 519 0066 C822     		mov	r2, #200
 520 0068 D200     		lsl	r2, r2, #3
 521 006a 1A80     		strh	r2, [r3]
 793:.\Generated_Source\PSoC4/CYBLE.c ****                 cyBle_discoveryModeInfo.advParam->advIntvMax = CYBLE_SLOW_ADV_INT_MAX;
 522              		.loc 1 793 0
 523 006c 174B     		ldr	r3, .L25+8
 524 006e 5B68     		ldr	r3, [r3, #4]
 525 0070 8022     		mov	r2, #128
 526 0072 D201     		lsl	r2, r2, #7
 527 0074 5A80     		strh	r2, [r3, #2]
 528              	.L22:
 794:.\Generated_Source\PSoC4/CYBLE.c ****             }       
 795:.\Generated_Source\PSoC4/CYBLE.c ****             else /* Do not update advertising intervals */
 796:.\Generated_Source\PSoC4/CYBLE.c ****             {
 797:.\Generated_Source\PSoC4/CYBLE.c ****             }
 798:.\Generated_Source\PSoC4/CYBLE.c ****             cyBle_advertisingIntervalType = advertisingIntervalType;
 529              		.loc 1 798 0
 530 0076 164B     		ldr	r3, .L25+12
 531 0078 FA1D     		add	r2, r7, #7
 532 007a 1278     		ldrb	r2, [r2]
 533 007c 1A70     		strb	r2, [r3]
 799:.\Generated_Source\PSoC4/CYBLE.c ****             apiResult = CyBle_GappEnterDiscoveryMode(&cyBle_discoveryModeInfo);
 534              		.loc 1 799 0
 535 007e 0E23     		mov	r3, #14
 536 0080 FC18     		add	r4, r7, r3
 537 0082 124B     		ldr	r3, .L25+8
 538 0084 181C     		mov	r0, r3
 539 0086 FFF7FEFF 		bl	CyBle_GappEnterDiscoveryMode
 540 008a 031C     		mov	r3, r0
 541 008c 2380     		strh	r3, [r4]
 800:.\Generated_Source\PSoC4/CYBLE.c ****         
 801:.\Generated_Source\PSoC4/CYBLE.c ****             if(CYBLE_ERROR_OK == apiResult)
 542              		.loc 1 801 0
 543 008e 0E23     		mov	r3, #14
 544 0090 FB18     		add	r3, r7, r3
 545 0092 1B88     		ldrh	r3, [r3]
 546 0094 002B     		cmp	r3, #0
 547 0096 08D1     		bne	.L23
 802:.\Generated_Source\PSoC4/CYBLE.c ****             {
 803:.\Generated_Source\PSoC4/CYBLE.c ****                 cyBle_eventHandlerFlag |= CYBLE_START_FLAG;
 548              		.loc 1 803 0
 549 0098 0B4B     		ldr	r3, .L25+4
 550 009a 1B78     		ldrb	r3, [r3]
 551 009c DBB2     		uxtb	r3, r3
 552 009e 0422     		mov	r2, #4
 553 00a0 1343     		orr	r3, r2
 554 00a2 DAB2     		uxtb	r2, r3
 555 00a4 084B     		ldr	r3, .L25+4
 556 00a6 1A70     		strb	r2, [r3]
 801:.\Generated_Source\PSoC4/CYBLE.c ****             {
ARM GAS  C:\Users\sunyi\AppData\Local\Temp\ccXDbPBi.s 			page 25


 557              		.loc 1 801 0
 558 00a8 05E0     		b	.L19
 559              	.L23:
 560 00aa 04E0     		b	.L19
 561              	.L20:
 804:.\Generated_Source\PSoC4/CYBLE.c ****             }
 805:.\Generated_Source\PSoC4/CYBLE.c ****         }
 806:.\Generated_Source\PSoC4/CYBLE.c ****         else
 807:.\Generated_Source\PSoC4/CYBLE.c ****         {
 808:.\Generated_Source\PSoC4/CYBLE.c ****             apiResult = CYBLE_ERROR_INVALID_STATE;
 562              		.loc 1 808 0
 563 00ac 0E23     		mov	r3, #14
 564 00ae FB18     		add	r3, r7, r3
 565 00b0 0422     		mov	r2, #4
 566 00b2 FF32     		add	r2, r2, #255
 567 00b4 1A80     		strh	r2, [r3]
 568              	.L19:
 809:.\Generated_Source\PSoC4/CYBLE.c ****         }
 810:.\Generated_Source\PSoC4/CYBLE.c **** 
 811:.\Generated_Source\PSoC4/CYBLE.c ****         return (apiResult);
 569              		.loc 1 811 0
 570 00b6 0E23     		mov	r3, #14
 571 00b8 FB18     		add	r3, r7, r3
 572 00ba 1B88     		ldrh	r3, [r3]
 812:.\Generated_Source\PSoC4/CYBLE.c ****     }
 573              		.loc 1 812 0
 574 00bc 181C     		mov	r0, r3
 575 00be BD46     		mov	sp, r7
 576 00c0 05B0     		add	sp, sp, #20
 577              		@ sp needed
 578 00c2 90BD     		pop	{r4, r7, pc}
 579              	.L26:
 580              		.align	2
 581              	.L25:
 582 00c4 00000000 		.word	cyBle_state
 583 00c8 00000000 		.word	cyBle_eventHandlerFlag
 584 00cc 00000000 		.word	cyBle_discoveryModeInfo
 585 00d0 00000000 		.word	cyBle_advertisingIntervalType
 586              		.cfi_endproc
 587              	.LFE6:
 588              		.size	CyBle_GappStartAdvertisement, .-CyBle_GappStartAdvertisement
 589              		.section	.text.CyBle_GappStopAdvertisement,"ax",%progbits
 590              		.align	2
 591              		.global	CyBle_GappStopAdvertisement
 592              		.code	16
 593              		.thumb_func
 594              		.type	CyBle_GappStopAdvertisement, %function
 595              	CyBle_GappStopAdvertisement:
 596              	.LFB7:
 813:.\Generated_Source\PSoC4/CYBLE.c **** 
 814:.\Generated_Source\PSoC4/CYBLE.c ****     
 815:.\Generated_Source\PSoC4/CYBLE.c ****     /******************************************************************************
 816:.\Generated_Source\PSoC4/CYBLE.c ****     * Function Name: CyBle_GappStopAdvertisement
 817:.\Generated_Source\PSoC4/CYBLE.c ****     ***************************************************************************//**
 818:.\Generated_Source\PSoC4/CYBLE.c ****     * 
 819:.\Generated_Source\PSoC4/CYBLE.c ****     *   This function can be used to exit from discovery mode. After the execution 
 820:.\Generated_Source\PSoC4/CYBLE.c ****     *   of this function, there will no longer be any advertisements. On stopping 
ARM GAS  C:\Users\sunyi\AppData\Local\Temp\ccXDbPBi.s 			page 26


 821:.\Generated_Source\PSoC4/CYBLE.c ****     *   advertising, GAP Peripheral receives CYBLE_EVT_GAPP_ADVERTISEMENT_START_STOP
 822:.\Generated_Source\PSoC4/CYBLE.c ****     *   event. It is expected that the application layer tracks the function call 
 823:.\Generated_Source\PSoC4/CYBLE.c ****     *   performed before occurrence of this event as this event can occur on making 
 824:.\Generated_Source\PSoC4/CYBLE.c ****     *   a call to Cy_BleGappStartAdvertisement(), CyBle_GappEnterDiscoveryMode(), 
 825:.\Generated_Source\PSoC4/CYBLE.c ****     *   or CyBle_GappStartAdvertisement() functions as well.
 826:.\Generated_Source\PSoC4/CYBLE.c ****     *   
 827:.\Generated_Source\PSoC4/CYBLE.c ****     *   The following event occurs on invoking this function:
 828:.\Generated_Source\PSoC4/CYBLE.c ****     *   * CYBLE_EVT_GAPP_ADVERTISEMENT_START_STOP
 829:.\Generated_Source\PSoC4/CYBLE.c ****     * 
 830:.\Generated_Source\PSoC4/CYBLE.c ****     *  \return
 831:.\Generated_Source\PSoC4/CYBLE.c ****     *   None
 832:.\Generated_Source\PSoC4/CYBLE.c ****     * 
 833:.\Generated_Source\PSoC4/CYBLE.c ****     *******************************************************************************/
 834:.\Generated_Source\PSoC4/CYBLE.c ****     void CyBle_GappStopAdvertisement(void)
 835:.\Generated_Source\PSoC4/CYBLE.c ****     {
 597              		.loc 1 835 0
 598              		.cfi_startproc
 599 0000 80B5     		push	{r7, lr}
 600              		.cfi_def_cfa_offset 8
 601              		.cfi_offset 7, -8
 602              		.cfi_offset 14, -4
 603 0002 00AF     		add	r7, sp, #0
 604              		.cfi_def_cfa_register 7
 836:.\Generated_Source\PSoC4/CYBLE.c ****         CyBle_GappExitDiscoveryMode();
 605              		.loc 1 836 0
 606 0004 FFF7FEFF 		bl	CyBle_GappExitDiscoveryMode
 837:.\Generated_Source\PSoC4/CYBLE.c ****         cyBle_eventHandlerFlag |= CYBLE_STOP_FLAG;
 607              		.loc 1 837 0
 608 0008 044B     		ldr	r3, .L28
 609 000a 1B78     		ldrb	r3, [r3]
 610 000c DBB2     		uxtb	r3, r3
 611 000e 0822     		mov	r2, #8
 612 0010 1343     		orr	r3, r2
 613 0012 DAB2     		uxtb	r2, r3
 614 0014 014B     		ldr	r3, .L28
 615 0016 1A70     		strb	r2, [r3]
 838:.\Generated_Source\PSoC4/CYBLE.c ****     }
 616              		.loc 1 838 0
 617 0018 BD46     		mov	sp, r7
 618              		@ sp needed
 619 001a 80BD     		pop	{r7, pc}
 620              	.L29:
 621              		.align	2
 622              	.L28:
 623 001c 00000000 		.word	cyBle_eventHandlerFlag
 624              		.cfi_endproc
 625              	.LFE7:
 626              		.size	CyBle_GappStopAdvertisement, .-CyBle_GappStopAdvertisement
 627              		.section	.text.CyBle_ChangeAdDeviceAddress,"ax",%progbits
 628              		.align	2
 629              		.global	CyBle_ChangeAdDeviceAddress
 630              		.code	16
 631              		.thumb_func
 632              		.type	CyBle_ChangeAdDeviceAddress, %function
 633              	CyBle_ChangeAdDeviceAddress:
 634              	.LFB8:
 839:.\Generated_Source\PSoC4/CYBLE.c ****     
ARM GAS  C:\Users\sunyi\AppData\Local\Temp\ccXDbPBi.s 			page 27


 840:.\Generated_Source\PSoC4/CYBLE.c ****     
 841:.\Generated_Source\PSoC4/CYBLE.c ****     /******************************************************************************
 842:.\Generated_Source\PSoC4/CYBLE.c ****     * Function Name: CyBle_ChangeAdDeviceAddress
 843:.\Generated_Source\PSoC4/CYBLE.c ****     ***************************************************************************//**
 844:.\Generated_Source\PSoC4/CYBLE.c ****     * 
 845:.\Generated_Source\PSoC4/CYBLE.c ****     *  This API is used to set the Bluetooth device address into the advertisement 
 846:.\Generated_Source\PSoC4/CYBLE.c ****     *  or scan response data structure.
 847:.\Generated_Source\PSoC4/CYBLE.c ****     * 
 848:.\Generated_Source\PSoC4/CYBLE.c ****     *  \param bdAddr: Bluetooth Device address. The variable is of type CYBLE_GAP_BD_ADDR_T
 849:.\Generated_Source\PSoC4/CYBLE.c ****     *  \param dest: 0 - selects advertisement structure, not zero value selects scan 
 850:.\Generated_Source\PSoC4/CYBLE.c ****     *               response structure.
 851:.\Generated_Source\PSoC4/CYBLE.c ****     * 
 852:.\Generated_Source\PSoC4/CYBLE.c ****     * \return
 853:.\Generated_Source\PSoC4/CYBLE.c ****     *  None
 854:.\Generated_Source\PSoC4/CYBLE.c ****     *  
 855:.\Generated_Source\PSoC4/CYBLE.c ****     *******************************************************************************/
 856:.\Generated_Source\PSoC4/CYBLE.c ****     void CyBle_ChangeAdDeviceAddress(const CYBLE_GAP_BD_ADDR_T* bdAddr, uint8 dest)
 857:.\Generated_Source\PSoC4/CYBLE.c ****     {
 635              		.loc 1 857 0
 636              		.cfi_startproc
 637 0000 80B5     		push	{r7, lr}
 638              		.cfi_def_cfa_offset 8
 639              		.cfi_offset 7, -8
 640              		.cfi_offset 14, -4
 641 0002 84B0     		sub	sp, sp, #16
 642              		.cfi_def_cfa_offset 24
 643 0004 00AF     		add	r7, sp, #0
 644              		.cfi_def_cfa_register 7
 645 0006 7860     		str	r0, [r7, #4]
 646 0008 0A1C     		mov	r2, r1
 647 000a FB1C     		add	r3, r7, #3
 648 000c 1A70     		strb	r2, [r3]
 858:.\Generated_Source\PSoC4/CYBLE.c ****         uint8 i;
 859:.\Generated_Source\PSoC4/CYBLE.c ****         uint8 *destBuffer = NULL;
 649              		.loc 1 859 0
 650 000e 0023     		mov	r3, #0
 651 0010 BB60     		str	r3, [r7, #8]
 860:.\Generated_Source\PSoC4/CYBLE.c ****         
 861:.\Generated_Source\PSoC4/CYBLE.c ****         if(dest == 0u)      /* Destination - advertising structure */
 862:.\Generated_Source\PSoC4/CYBLE.c ****         {
 863:.\Generated_Source\PSoC4/CYBLE.c ****             #ifdef CYBLE_ADV_PKT_INDEX_BLUETOOTH_DEVICE_ADDRESS
 864:.\Generated_Source\PSoC4/CYBLE.c ****                 destBuffer = &cyBle_discoveryData.advData[CYBLE_ADV_PKT_INDEX_BLUETOOTH_DEVICE_ADDR
 865:.\Generated_Source\PSoC4/CYBLE.c ****             #endif /* CYBLE_ADV_PKT_INDEX_BLUETOOTH_DEVICE_ADDRESS */
 866:.\Generated_Source\PSoC4/CYBLE.c ****         }
 867:.\Generated_Source\PSoC4/CYBLE.c ****         else                /* Destination - scan response structure */
 868:.\Generated_Source\PSoC4/CYBLE.c ****         {
 869:.\Generated_Source\PSoC4/CYBLE.c ****             #ifdef CYBLE_SCN_PKT_INDEX_BLUETOOTH_DEVICE_ADDRESS
 870:.\Generated_Source\PSoC4/CYBLE.c ****                 destBuffer = &cyBle_scanRspData.scanRspData[CYBLE_SCN_PKT_INDEX_BLUETOOTH_DEVICE_AD
 871:.\Generated_Source\PSoC4/CYBLE.c ****             #endif /* CYBLE_SCN_PKT_INDEX_BLUETOOTH_DEVICE_ADDRESS */    
 872:.\Generated_Source\PSoC4/CYBLE.c ****         }
 873:.\Generated_Source\PSoC4/CYBLE.c ****         
 874:.\Generated_Source\PSoC4/CYBLE.c ****         if(destBuffer != NULL)
 652              		.loc 1 874 0
 653 0012 BB68     		ldr	r3, [r7, #8]
 654 0014 002B     		cmp	r3, #0
 655 0016 20D0     		beq	.L30
 875:.\Generated_Source\PSoC4/CYBLE.c ****         {
ARM GAS  C:\Users\sunyi\AppData\Local\Temp\ccXDbPBi.s 			page 28


 876:.\Generated_Source\PSoC4/CYBLE.c ****             /* Update Device Address type */
 877:.\Generated_Source\PSoC4/CYBLE.c ****             destBuffer[0u] = bdAddr->type;
 656              		.loc 1 877 0
 657 0018 7B68     		ldr	r3, [r7, #4]
 658 001a 9A79     		ldrb	r2, [r3, #6]
 659 001c BB68     		ldr	r3, [r7, #8]
 660 001e 1A70     		strb	r2, [r3]
 878:.\Generated_Source\PSoC4/CYBLE.c ****             
 879:.\Generated_Source\PSoC4/CYBLE.c ****             for(i = 0u; i < CYBLE_GAP_BD_ADDR_SIZE; i++)
 661              		.loc 1 879 0
 662 0020 0F23     		mov	r3, #15
 663 0022 FB18     		add	r3, r7, r3
 664 0024 0022     		mov	r2, #0
 665 0026 1A70     		strb	r2, [r3]
 666 0028 12E0     		b	.L32
 667              	.L33:
 880:.\Generated_Source\PSoC4/CYBLE.c ****             {
 881:.\Generated_Source\PSoC4/CYBLE.c ****                 destBuffer[i + 1u] = bdAddr->bdAddr[i];
 668              		.loc 1 881 0 discriminator 3
 669 002a 0F23     		mov	r3, #15
 670 002c FB18     		add	r3, r7, r3
 671 002e 1B78     		ldrb	r3, [r3]
 672 0030 0133     		add	r3, r3, #1
 673 0032 BA68     		ldr	r2, [r7, #8]
 674 0034 D318     		add	r3, r2, r3
 675 0036 0F22     		mov	r2, #15
 676 0038 BA18     		add	r2, r7, r2
 677 003a 1278     		ldrb	r2, [r2]
 678 003c 7968     		ldr	r1, [r7, #4]
 679 003e 8A5C     		ldrb	r2, [r1, r2]
 680 0040 1A70     		strb	r2, [r3]
 879:.\Generated_Source\PSoC4/CYBLE.c ****             {
 681              		.loc 1 879 0 discriminator 3
 682 0042 0F23     		mov	r3, #15
 683 0044 FB18     		add	r3, r7, r3
 684 0046 1A78     		ldrb	r2, [r3]
 685 0048 0F23     		mov	r3, #15
 686 004a FB18     		add	r3, r7, r3
 687 004c 0132     		add	r2, r2, #1
 688 004e 1A70     		strb	r2, [r3]
 689              	.L32:
 879:.\Generated_Source\PSoC4/CYBLE.c ****             {
 690              		.loc 1 879 0 is_stmt 0 discriminator 1
 691 0050 0F23     		mov	r3, #15
 692 0052 FB18     		add	r3, r7, r3
 693 0054 1B78     		ldrb	r3, [r3]
 694 0056 052B     		cmp	r3, #5
 695 0058 E7D9     		bls	.L33
 696              	.L30:
 882:.\Generated_Source\PSoC4/CYBLE.c ****             }
 883:.\Generated_Source\PSoC4/CYBLE.c ****         }
 884:.\Generated_Source\PSoC4/CYBLE.c ****     }
 697              		.loc 1 884 0 is_stmt 1
 698 005a BD46     		mov	sp, r7
 699 005c 04B0     		add	sp, sp, #16
 700              		@ sp needed
 701 005e 80BD     		pop	{r7, pc}
ARM GAS  C:\Users\sunyi\AppData\Local\Temp\ccXDbPBi.s 			page 29


 702              		.cfi_endproc
 703              	.LFE8:
 704              		.size	CyBle_ChangeAdDeviceAddress, .-CyBle_ChangeAdDeviceAddress
 705              		.section	.text.CyBle_ChangeAdLocalName,"ax",%progbits
 706              		.align	2
 707              		.code	16
 708              		.thumb_func
 709              		.type	CyBle_ChangeAdLocalName, %function
 710              	CyBle_ChangeAdLocalName:
 711              	.LFB9:
 885:.\Generated_Source\PSoC4/CYBLE.c ****   
 886:.\Generated_Source\PSoC4/CYBLE.c **** #endif /* CYBLE_GAP_ROLE_PERIPHERAL || CYBLE_GAP_ROLE_BROADCASTER */
 887:.\Generated_Source\PSoC4/CYBLE.c **** 
 888:.\Generated_Source\PSoC4/CYBLE.c **** 
 889:.\Generated_Source\PSoC4/CYBLE.c **** #if(CYBLE_GAP_ROLE_CENTRAL || CYBLE_GAP_ROLE_OBSERVER)
 890:.\Generated_Source\PSoC4/CYBLE.c **** 
 891:.\Generated_Source\PSoC4/CYBLE.c ****     /******************************************************************************
 892:.\Generated_Source\PSoC4/CYBLE.c ****     * Function Name: CyBle_GapcStartScan
 893:.\Generated_Source\PSoC4/CYBLE.c ****     ***************************************************************************//**
 894:.\Generated_Source\PSoC4/CYBLE.c ****     * 
 895:.\Generated_Source\PSoC4/CYBLE.c ****     *   This function is used for discovering GAP peripheral devices that are 
 896:.\Generated_Source\PSoC4/CYBLE.c ****     *   available for connection. It performs the scanning routine using the 
 897:.\Generated_Source\PSoC4/CYBLE.c ****     *   parameters entered in the component's customizer.
 898:.\Generated_Source\PSoC4/CYBLE.c ****     *   
 899:.\Generated_Source\PSoC4/CYBLE.c ****     *   As soon as the discovery operation starts, CYBLE_EVT_GAPC_SCAN_START_STOP 
 900:.\Generated_Source\PSoC4/CYBLE.c ****     *   event is generated. The CYBLE_EVT_GAPC_SCAN_PROGRESS_RESULT event is 
 901:.\Generated_Source\PSoC4/CYBLE.c ****     *   generated when a GAP peripheral device is located. There are three discovery
 902:.\Generated_Source\PSoC4/CYBLE.c ****     *   procedures can be selected in the customizer's GUI:
 903:.\Generated_Source\PSoC4/CYBLE.c ****     *   
 904:.\Generated_Source\PSoC4/CYBLE.c ****     *   * Observation procedure: A device performing the observer role receives only
 905:.\Generated_Source\PSoC4/CYBLE.c ****     *                            advertisement data from devices irrespective of 
 906:.\Generated_Source\PSoC4/CYBLE.c ****     *                            their discoverable mode settings. Advertisement 
 907:.\Generated_Source\PSoC4/CYBLE.c ****     *                            data received is provided by the event,      
 908:.\Generated_Source\PSoC4/CYBLE.c ****     *                            CYBLE_EVT_GAPC_SCAN_PROGRESS_RESULT. This procedure
 909:.\Generated_Source\PSoC4/CYBLE.c ****     *                            requires the scanType sub parameter to be passive
 910:.\Generated_Source\PSoC4/CYBLE.c ****     *                            scanning. 
 911:.\Generated_Source\PSoC4/CYBLE.c ****     *   
 912:.\Generated_Source\PSoC4/CYBLE.c ****     *   * Limited Discovery procedure: A device performing the limited discovery
 913:.\Generated_Source\PSoC4/CYBLE.c ****     *                                  procedure receives advertisement data and 
 914:.\Generated_Source\PSoC4/CYBLE.c ****     *                                  scan# response data from devices in the 
 915:.\Generated_Source\PSoC4/CYBLE.c ****     *                                  limited discoverable mode only. Received data
 916:.\Generated_Source\PSoC4/CYBLE.c ****     *                                  is provided by the event, 
 917:.\Generated_Source\PSoC4/CYBLE.c ****     *                                  CYBLE_EVT_GAPC_SCAN_PROGRESS_RESULT. This 
 918:.\Generated_Source\PSoC4/CYBLE.c ****     *                                  procedure requires the scanType sub-parameter 
 919:.\Generated_Source\PSoC4/CYBLE.c ****     *                                  to be active scanning.
 920:.\Generated_Source\PSoC4/CYBLE.c ****     *   
 921:.\Generated_Source\PSoC4/CYBLE.c ****     *   * General Discovery procedure: A device performing the general discovery 
 922:.\Generated_Source\PSoC4/CYBLE.c ****     *                                  procedure receives the advertisement data and
 923:.\Generated_Source\PSoC4/CYBLE.c ****     *                                  scan response data from devices in both 
 924:.\Generated_Source\PSoC4/CYBLE.c ****     *                                  limited discoverable mode and the general 
 925:.\Generated_Source\PSoC4/CYBLE.c ****     *                                  discoverable mode. Received data is provided
 926:.\Generated_Source\PSoC4/CYBLE.c ****     *                                  by the event,
 927:.\Generated_Source\PSoC4/CYBLE.c ****     *                                  CYBLE_EVT_GAPC_SCAN_PROGRESS_RESULT. This 
 928:.\Generated_Source\PSoC4/CYBLE.c ****     *                                  procedure requires the scanType sub-parameter
 929:.\Generated_Source\PSoC4/CYBLE.c ****     *                                  to be active scanning.
 930:.\Generated_Source\PSoC4/CYBLE.c ****     *   
 931:.\Generated_Source\PSoC4/CYBLE.c ****     *   Every Advertisement / Scan response packet received results in a new event, 
ARM GAS  C:\Users\sunyi\AppData\Local\Temp\ccXDbPBi.s 			page 30


 932:.\Generated_Source\PSoC4/CYBLE.c ****     *   CYBLE_EVT_GAPC_SCAN_PROGRESS_RESULT.
 933:.\Generated_Source\PSoC4/CYBLE.c ****     *   If 'scanTo' sub-parameter is a non-zero value, then upon commencement of 
 934:.\Generated_Source\PSoC4/CYBLE.c ****     *   discovery procedure and elapsed time = 'scanTo', CYBLE_EVT_TIMEOUT event
 935:.\Generated_Source\PSoC4/CYBLE.c ****     *   is generated with the event parameter indicating CYBLE_GAP_SCAN_TO.
 936:.\Generated_Source\PSoC4/CYBLE.c ****     *   Possible generated events are:
 937:.\Generated_Source\PSoC4/CYBLE.c ****     *   * CYBLE_EVT_GAPC_SCAN_START_STOP: If a device started or stopped scanning. 
 938:.\Generated_Source\PSoC4/CYBLE.c ****     *                                     Use CyBle_GetState() to determine the 
 939:.\Generated_Source\PSoC4/CYBLE.c ****     *                                     state. Sequential scanning could be 
 940:.\Generated_Source\PSoC4/CYBLE.c ****     *                                     started when CYBLE_STATE_DISCONNECTED 
 941:.\Generated_Source\PSoC4/CYBLE.c ****     *                                     state is returned. 
 942:.\Generated_Source\PSoC4/CYBLE.c ****     *   * CYBLE_EVT_GAPC_SCAN_PROGRESS_RESULT 
 943:.\Generated_Source\PSoC4/CYBLE.c ****     *   * CYBLE_EVT_TIMEOUT (CYBLE_GAP_SCAN_TO)
 944:.\Generated_Source\PSoC4/CYBLE.c ****     * 
 945:.\Generated_Source\PSoC4/CYBLE.c ****     *   \param scanningIntervalType:  Fast or slow scanning interval with
 946:.\Generated_Source\PSoC4/CYBLE.c ****     *       timings entered in Scan settings section of the customizer.
 947:.\Generated_Source\PSoC4/CYBLE.c ****     * 	  * CYBLE_SCANNING_FAST   0x00u
 948:.\Generated_Source\PSoC4/CYBLE.c ****     * 	  * CYBLE_SCANNING_SLOW   0x01u
 949:.\Generated_Source\PSoC4/CYBLE.c ****     * 	  * CYBLE_SCANNING_CUSTOM 0x02u
 950:.\Generated_Source\PSoC4/CYBLE.c ****     * 
 951:.\Generated_Source\PSoC4/CYBLE.c ****     * \return
 952:.\Generated_Source\PSoC4/CYBLE.c ****     *  CYBLE_API_RESULT_T : Return value indicates if the function succeeded or
 953:.\Generated_Source\PSoC4/CYBLE.c ****     *  failed. Following are the possible error codes.
 954:.\Generated_Source\PSoC4/CYBLE.c ****     *
 955:.\Generated_Source\PSoC4/CYBLE.c ****     *   Errors codes                       | Description
 956:.\Generated_Source\PSoC4/CYBLE.c ****     *   ---------------------------------- | -----------------------------------
 957:.\Generated_Source\PSoC4/CYBLE.c ****     *   CYBLE_ERROR_OK                     | On successful operation.
 958:.\Generated_Source\PSoC4/CYBLE.c ****     *   CYBLE_ERROR_STACK_INTERNAL         | An error occurred in the BLE stack.
 959:.\Generated_Source\PSoC4/CYBLE.c ****     *   CYBLE_ERROR_INVALID_PARAMETER      | On passing an invalid parameter.
 960:.\Generated_Source\PSoC4/CYBLE.c ****     *  
 961:.\Generated_Source\PSoC4/CYBLE.c ****     *******************************************************************************/
 962:.\Generated_Source\PSoC4/CYBLE.c ****     CYBLE_API_RESULT_T CyBle_GapcStartScan(uint8 scanningIntervalType)
 963:.\Generated_Source\PSoC4/CYBLE.c ****     {
 964:.\Generated_Source\PSoC4/CYBLE.c ****         CYBLE_API_RESULT_T apiResult;
 965:.\Generated_Source\PSoC4/CYBLE.c **** 
 966:.\Generated_Source\PSoC4/CYBLE.c ****         if(scanningIntervalType > CYBLE_SCANNING_CUSTOM)
 967:.\Generated_Source\PSoC4/CYBLE.c ****         {
 968:.\Generated_Source\PSoC4/CYBLE.c ****             apiResult = CYBLE_ERROR_INVALID_PARAMETER;
 969:.\Generated_Source\PSoC4/CYBLE.c ****         }
 970:.\Generated_Source\PSoC4/CYBLE.c ****         else
 971:.\Generated_Source\PSoC4/CYBLE.c ****         {
 972:.\Generated_Source\PSoC4/CYBLE.c ****             if(scanningIntervalType == CYBLE_SCANNING_FAST)
 973:.\Generated_Source\PSoC4/CYBLE.c ****             {
 974:.\Generated_Source\PSoC4/CYBLE.c ****                 cyBle_discoveryInfo.scanTo = CYBLE_FAST_SCAN_TIMEOUT;
 975:.\Generated_Source\PSoC4/CYBLE.c ****                 cyBle_discoveryInfo.scanIntv = CYBLE_FAST_SCAN_INTERVAL;
 976:.\Generated_Source\PSoC4/CYBLE.c ****                 cyBle_discoveryInfo.scanWindow = CYBLE_FAST_SCAN_WINDOW;
 977:.\Generated_Source\PSoC4/CYBLE.c ****             }
 978:.\Generated_Source\PSoC4/CYBLE.c ****             else if(scanningIntervalType == CYBLE_SCANNING_SLOW)
 979:.\Generated_Source\PSoC4/CYBLE.c ****             {
 980:.\Generated_Source\PSoC4/CYBLE.c ****                 cyBle_discoveryInfo.scanTo = CYBLE_SLOW_SCAN_TIMEOUT;
 981:.\Generated_Source\PSoC4/CYBLE.c ****                 cyBle_discoveryInfo.scanIntv = CYBLE_SLOW_SCAN_INTERVAL;
 982:.\Generated_Source\PSoC4/CYBLE.c ****                 cyBle_discoveryInfo.scanWindow = CYBLE_SLOW_SCAN_WINDOW;
 983:.\Generated_Source\PSoC4/CYBLE.c ****             }       
 984:.\Generated_Source\PSoC4/CYBLE.c ****             else /* Do not update scanning intervals */
 985:.\Generated_Source\PSoC4/CYBLE.c ****             {
 986:.\Generated_Source\PSoC4/CYBLE.c ****             }
 987:.\Generated_Source\PSoC4/CYBLE.c ****             
 988:.\Generated_Source\PSoC4/CYBLE.c ****             cyBle_scanningIntervalType = scanningIntervalType;
ARM GAS  C:\Users\sunyi\AppData\Local\Temp\ccXDbPBi.s 			page 31


 989:.\Generated_Source\PSoC4/CYBLE.c ****             apiResult = CyBle_GapcStartDiscovery(&cyBle_discoveryInfo);
 990:.\Generated_Source\PSoC4/CYBLE.c ****         
 991:.\Generated_Source\PSoC4/CYBLE.c ****             if(CYBLE_ERROR_OK == apiResult)
 992:.\Generated_Source\PSoC4/CYBLE.c ****             {
 993:.\Generated_Source\PSoC4/CYBLE.c ****                 cyBle_eventHandlerFlag |= CYBLE_START_FLAG;
 994:.\Generated_Source\PSoC4/CYBLE.c ****             }
 995:.\Generated_Source\PSoC4/CYBLE.c ****         }
 996:.\Generated_Source\PSoC4/CYBLE.c ****        
 997:.\Generated_Source\PSoC4/CYBLE.c ****         return (apiResult);
 998:.\Generated_Source\PSoC4/CYBLE.c ****     }
 999:.\Generated_Source\PSoC4/CYBLE.c ****     
1000:.\Generated_Source\PSoC4/CYBLE.c ****     
1001:.\Generated_Source\PSoC4/CYBLE.c ****     /******************************************************************************
1002:.\Generated_Source\PSoC4/CYBLE.c ****     * Function Name: CyBle_GapcStopScan
1003:.\Generated_Source\PSoC4/CYBLE.c ****     ***************************************************************************//**
1004:.\Generated_Source\PSoC4/CYBLE.c ****     * 
1005:.\Generated_Source\PSoC4/CYBLE.c ****     *   This function used to stop the discovery of devices. On stopping discovery
1006:.\Generated_Source\PSoC4/CYBLE.c ****     *   operation, CYBLE_EVT_GAPC_SCAN_START_STOP event is generated. Application
1007:.\Generated_Source\PSoC4/CYBLE.c ****     *   layer needs to keep track of the function call made before receiving this
1008:.\Generated_Source\PSoC4/CYBLE.c ****     *   event to associate this event with either the start or stop discovery
1009:.\Generated_Source\PSoC4/CYBLE.c ****     *   function.
1010:.\Generated_Source\PSoC4/CYBLE.c ****     * 
1011:.\Generated_Source\PSoC4/CYBLE.c ****     *   Possible events generated are:
1012:.\Generated_Source\PSoC4/CYBLE.c ****     *    * CYBLE_EVT_GAPC_SCAN_START_STOP
1013:.\Generated_Source\PSoC4/CYBLE.c ****     * 
1014:.\Generated_Source\PSoC4/CYBLE.c ****     *  \return
1015:.\Generated_Source\PSoC4/CYBLE.c ****     *   None
1016:.\Generated_Source\PSoC4/CYBLE.c ****     * 
1017:.\Generated_Source\PSoC4/CYBLE.c ****     *******************************************************************************/
1018:.\Generated_Source\PSoC4/CYBLE.c ****     void CyBle_GapcStopScan(void)
1019:.\Generated_Source\PSoC4/CYBLE.c ****     {
1020:.\Generated_Source\PSoC4/CYBLE.c ****         CyBle_GapcStopDiscovery();
1021:.\Generated_Source\PSoC4/CYBLE.c ****         
1022:.\Generated_Source\PSoC4/CYBLE.c ****         cyBle_eventHandlerFlag |= CYBLE_STOP_FLAG;
1023:.\Generated_Source\PSoC4/CYBLE.c ****     }
1024:.\Generated_Source\PSoC4/CYBLE.c **** 
1025:.\Generated_Source\PSoC4/CYBLE.c ****     
1026:.\Generated_Source\PSoC4/CYBLE.c **** #endif /* CYBLE_GAP_ROLE_CENTRAL || CYBLE_GAP_ROLE_OBSERVER */
1027:.\Generated_Source\PSoC4/CYBLE.c **** 
1028:.\Generated_Source\PSoC4/CYBLE.c **** 
1029:.\Generated_Source\PSoC4/CYBLE.c **** #if(CYBLE_GAP_ROLE_CENTRAL)
1030:.\Generated_Source\PSoC4/CYBLE.c **** 
1031:.\Generated_Source\PSoC4/CYBLE.c ****     /******************************************************************************
1032:.\Generated_Source\PSoC4/CYBLE.c ****     * Function Name: CyBle_GapcConnectDevice
1033:.\Generated_Source\PSoC4/CYBLE.c ****     ***************************************************************************//**
1034:.\Generated_Source\PSoC4/CYBLE.c ****     * 
1035:.\Generated_Source\PSoC4/CYBLE.c ****     *  This function is used to send a connection request to the remote device with
1036:.\Generated_Source\PSoC4/CYBLE.c ****     *  the connection parameters set in the component customizer. This function needs
1037:.\Generated_Source\PSoC4/CYBLE.c ****     *  to be called only once after the target device is discovered by 
1038:.\Generated_Source\PSoC4/CYBLE.c ****     *  CyBle_GapcStartScan() and further scanning has stopped. Scanning is 
1039:.\Generated_Source\PSoC4/CYBLE.c ****     *  successfully stopped on invoking CyBle_GapcStopScan() and then receiving the
1040:.\Generated_Source\PSoC4/CYBLE.c ****     *  event CYBLE_EVT_GAPC_SCAN_START_STOP with sub-parameter 'success' = 0x01u.
1041:.\Generated_Source\PSoC4/CYBLE.c ****     *  
1042:.\Generated_Source\PSoC4/CYBLE.c ****     *  On successful connection, the following events are generated at the GAP 
1043:.\Generated_Source\PSoC4/CYBLE.c ****     *  Central device (as well as the GAP Peripheral device), in the following order.
1044:.\Generated_Source\PSoC4/CYBLE.c ****     *  * CYBLE_EVT_GATT_CONNECT_IND
1045:.\Generated_Source\PSoC4/CYBLE.c ****     *  * CYBLE_EVT_GAP_DEVICE_CONNECTED - If the device connects to a GAP Central and 
ARM GAS  C:\Users\sunyi\AppData\Local\Temp\ccXDbPBi.s 			page 32


1046:.\Generated_Source\PSoC4/CYBLE.c ****     *    Link Layer Privacy is disabled in component customizer.
1047:.\Generated_Source\PSoC4/CYBLE.c ****     *  * CYBLE_EVT_GAP_ENHANCE_CONN_COMPLETE - If the device connects to a GAP Central and 
1048:.\Generated_Source\PSoC4/CYBLE.c ****     *    Link Layer Privacy is enabled in component customizer.
1049:.\Generated_Source\PSoC4/CYBLE.c ****     *  * CYBLE_EVT_GAP_DEVICE_CONNECTED
1050:.\Generated_Source\PSoC4/CYBLE.c ****     *  
1051:.\Generated_Source\PSoC4/CYBLE.c ****     *  A procedure is considered to have timed out if a connection response packet is 
1052:.\Generated_Source\PSoC4/CYBLE.c ****     *  not received within time set by cyBle_connectingTimeout global variable
1053:.\Generated_Source\PSoC4/CYBLE.c ****     *  (30 seconds by default). CYBLE_EVT_TIMEOUT event with CYBLE_GENERIC_TO parameter
1054:.\Generated_Source\PSoC4/CYBLE.c ****     *  will indicate about connection procedure timeout. Connection will automatically
1055:.\Generated_Source\PSoC4/CYBLE.c ****     *  be canceled and state will be changed to CYBLE_STATE_DISCONNECTED.
1056:.\Generated_Source\PSoC4/CYBLE.c ****     * 
1057:.\Generated_Source\PSoC4/CYBLE.c ****     *  \param address: The device address of the remote device to connect to. 
1058:.\Generated_Source\PSoC4/CYBLE.c ****     *  
1059:.\Generated_Source\PSoC4/CYBLE.c ****     * \return
1060:.\Generated_Source\PSoC4/CYBLE.c ****     *  CYBLE_API_RESULT_T : Return value indicates if the function succeeded or 
1061:.\Generated_Source\PSoC4/CYBLE.c ****     *  failed. Following are the possible error codes.
1062:.\Generated_Source\PSoC4/CYBLE.c ****     *
1063:.\Generated_Source\PSoC4/CYBLE.c ****     *   Errors codes                       | Description
1064:.\Generated_Source\PSoC4/CYBLE.c ****     *   ------------                       | -----------
1065:.\Generated_Source\PSoC4/CYBLE.c ****     *   CYBLE_ERROR_OK                     | On successful operation.
1066:.\Generated_Source\PSoC4/CYBLE.c ****     *   CYBLE_ERROR_STACK_INTERNAL         | On error occurred in the BLE stack.
1067:.\Generated_Source\PSoC4/CYBLE.c ****     *   CYBLE_ERROR_INVALID_PARAMETER      | On passing an invalid parameter.
1068:.\Generated_Source\PSoC4/CYBLE.c ****     *   CYBLE_ERROR_INVALID_STATE          | On calling this API not in Disconnected state.
1069:.\Generated_Source\PSoC4/CYBLE.c ****     *  
1070:.\Generated_Source\PSoC4/CYBLE.c ****     ******************************************************************************/
1071:.\Generated_Source\PSoC4/CYBLE.c ****     CYBLE_API_RESULT_T CyBle_GapcConnectDevice(const CYBLE_GAP_BD_ADDR_T * address)
1072:.\Generated_Source\PSoC4/CYBLE.c ****     {
1073:.\Generated_Source\PSoC4/CYBLE.c ****         CYBLE_API_RESULT_T apiResult;
1074:.\Generated_Source\PSoC4/CYBLE.c ****         uint8 i;
1075:.\Generated_Source\PSoC4/CYBLE.c **** 
1076:.\Generated_Source\PSoC4/CYBLE.c ****         if(CyBle_GetState() != CYBLE_STATE_DISCONNECTED)
1077:.\Generated_Source\PSoC4/CYBLE.c ****         {
1078:.\Generated_Source\PSoC4/CYBLE.c ****             apiResult = CYBLE_ERROR_INVALID_STATE;
1079:.\Generated_Source\PSoC4/CYBLE.c ****         }
1080:.\Generated_Source\PSoC4/CYBLE.c ****         else if(address == NULL)
1081:.\Generated_Source\PSoC4/CYBLE.c ****         {
1082:.\Generated_Source\PSoC4/CYBLE.c ****             apiResult = CYBLE_ERROR_INVALID_PARAMETER;
1083:.\Generated_Source\PSoC4/CYBLE.c ****         }
1084:.\Generated_Source\PSoC4/CYBLE.c ****         else
1085:.\Generated_Source\PSoC4/CYBLE.c ****         {
1086:.\Generated_Source\PSoC4/CYBLE.c ****             for(i = 0u; i < CYBLE_GAP_BD_ADDR_SIZE; i++)
1087:.\Generated_Source\PSoC4/CYBLE.c ****             {
1088:.\Generated_Source\PSoC4/CYBLE.c ****                 cyBle_connectionParameters.peerBdAddr[i] = address->bdAddr[i];
1089:.\Generated_Source\PSoC4/CYBLE.c ****             }
1090:.\Generated_Source\PSoC4/CYBLE.c ****             cyBle_connectionParameters.peerAddrType = address -> type;
1091:.\Generated_Source\PSoC4/CYBLE.c ****             apiResult = CyBle_GapcInitConnection(&cyBle_connectionParameters);
1092:.\Generated_Source\PSoC4/CYBLE.c ****             
1093:.\Generated_Source\PSoC4/CYBLE.c ****             if(apiResult == CYBLE_ERROR_OK)
1094:.\Generated_Source\PSoC4/CYBLE.c ****             {
1095:.\Generated_Source\PSoC4/CYBLE.c ****                 CyBle_SetState(CYBLE_STATE_CONNECTING);
1096:.\Generated_Source\PSoC4/CYBLE.c ****                 if(cyBle_connectingTimeout != 0u)
1097:.\Generated_Source\PSoC4/CYBLE.c ****                 {
1098:.\Generated_Source\PSoC4/CYBLE.c ****                     (void)CyBle_StartTimer(cyBle_connectingTimeout);
1099:.\Generated_Source\PSoC4/CYBLE.c ****                 }
1100:.\Generated_Source\PSoC4/CYBLE.c ****             }
1101:.\Generated_Source\PSoC4/CYBLE.c ****         }
1102:.\Generated_Source\PSoC4/CYBLE.c ****         return (apiResult);
ARM GAS  C:\Users\sunyi\AppData\Local\Temp\ccXDbPBi.s 			page 33


1103:.\Generated_Source\PSoC4/CYBLE.c ****     }
1104:.\Generated_Source\PSoC4/CYBLE.c ****     
1105:.\Generated_Source\PSoC4/CYBLE.c **** 
1106:.\Generated_Source\PSoC4/CYBLE.c ****     /******************************************************************************
1107:.\Generated_Source\PSoC4/CYBLE.c ****     * Function Name: CyBle_GapcCancelDeviceConnection
1108:.\Generated_Source\PSoC4/CYBLE.c ****     ***************************************************************************//**
1109:.\Generated_Source\PSoC4/CYBLE.c ****     * 
1110:.\Generated_Source\PSoC4/CYBLE.c ****     *  This function cancels a previously initiated connection with the remote 
1111:.\Generated_Source\PSoC4/CYBLE.c ****     *  device. It is a blocking function. No event is generated on calling this 
1112:.\Generated_Source\PSoC4/CYBLE.c ****     *  function. If the devices are already connected then this function should not
1113:.\Generated_Source\PSoC4/CYBLE.c ****     *  be used. If you intend to disconnect from an existing connection, the function
1114:.\Generated_Source\PSoC4/CYBLE.c ****     *  CyBle_GapDisconnect() should be used.
1115:.\Generated_Source\PSoC4/CYBLE.c ****     * 
1116:.\Generated_Source\PSoC4/CYBLE.c ****     * \return
1117:.\Generated_Source\PSoC4/CYBLE.c ****     *  CYBLE_API_RESULT_T : Return value indicates if the function succeeded or 
1118:.\Generated_Source\PSoC4/CYBLE.c ****     *  failed. Following are the possible error codes.
1119:.\Generated_Source\PSoC4/CYBLE.c ****     *
1120:.\Generated_Source\PSoC4/CYBLE.c ****     *   Errors codes                       | Description
1121:.\Generated_Source\PSoC4/CYBLE.c ****     *   ---------------------------------- | --------------------------------------
1122:.\Generated_Source\PSoC4/CYBLE.c ****     *   CYBLE_ERROR_OK                     | On successful operation.
1123:.\Generated_Source\PSoC4/CYBLE.c ****     *   CYBLE_ERROR_STACK_INTERNAL         | An error occurred in the BLE stack.
1124:.\Generated_Source\PSoC4/CYBLE.c ****     *   CYBLE_ERROR_INVALID_STATE          | On calling this API not in Connecting state.
1125:.\Generated_Source\PSoC4/CYBLE.c ****     *  
1126:.\Generated_Source\PSoC4/CYBLE.c ****     *******************************************************************************/
1127:.\Generated_Source\PSoC4/CYBLE.c ****     CYBLE_API_RESULT_T CyBle_GapcCancelDeviceConnection(void)
1128:.\Generated_Source\PSoC4/CYBLE.c ****     {
1129:.\Generated_Source\PSoC4/CYBLE.c ****         CYBLE_API_RESULT_T apiResult;
1130:.\Generated_Source\PSoC4/CYBLE.c ****         
1131:.\Generated_Source\PSoC4/CYBLE.c ****         if(CyBle_GetState() != CYBLE_STATE_CONNECTING)
1132:.\Generated_Source\PSoC4/CYBLE.c ****         {
1133:.\Generated_Source\PSoC4/CYBLE.c ****             apiResult = CYBLE_ERROR_INVALID_STATE;
1134:.\Generated_Source\PSoC4/CYBLE.c ****         }
1135:.\Generated_Source\PSoC4/CYBLE.c ****         else 
1136:.\Generated_Source\PSoC4/CYBLE.c ****         {
1137:.\Generated_Source\PSoC4/CYBLE.c ****             apiResult = CyBle_GapcCancelConnection();
1138:.\Generated_Source\PSoC4/CYBLE.c ****             
1139:.\Generated_Source\PSoC4/CYBLE.c ****             if(cyBle_connectingTimeout != 0u)
1140:.\Generated_Source\PSoC4/CYBLE.c ****             {
1141:.\Generated_Source\PSoC4/CYBLE.c ****                 (void)CyBle_StopTimer();
1142:.\Generated_Source\PSoC4/CYBLE.c ****             }
1143:.\Generated_Source\PSoC4/CYBLE.c **** 
1144:.\Generated_Source\PSoC4/CYBLE.c ****             if(apiResult == CYBLE_ERROR_OK)
1145:.\Generated_Source\PSoC4/CYBLE.c ****             {
1146:.\Generated_Source\PSoC4/CYBLE.c ****                 CyBle_SetState(CYBLE_STATE_DISCONNECTED);
1147:.\Generated_Source\PSoC4/CYBLE.c ****             }
1148:.\Generated_Source\PSoC4/CYBLE.c ****         }
1149:.\Generated_Source\PSoC4/CYBLE.c ****         return (apiResult);
1150:.\Generated_Source\PSoC4/CYBLE.c ****     }    
1151:.\Generated_Source\PSoC4/CYBLE.c **** 
1152:.\Generated_Source\PSoC4/CYBLE.c ****     
1153:.\Generated_Source\PSoC4/CYBLE.c **** #endif /* CYBLE_GAP_ROLE_CENTRAL */
1154:.\Generated_Source\PSoC4/CYBLE.c **** 
1155:.\Generated_Source\PSoC4/CYBLE.c **** 
1156:.\Generated_Source\PSoC4/CYBLE.c **** #if(CYBLE_GATT_ROLE_SERVER)
1157:.\Generated_Source\PSoC4/CYBLE.c **** 
1158:.\Generated_Source\PSoC4/CYBLE.c **** #if(CYBLE_GAP_ROLE_PERIPHERAL)
1159:.\Generated_Source\PSoC4/CYBLE.c **** 
ARM GAS  C:\Users\sunyi\AppData\Local\Temp\ccXDbPBi.s 			page 34


1160:.\Generated_Source\PSoC4/CYBLE.c ****         /******************************************************************************
1161:.\Generated_Source\PSoC4/CYBLE.c ****         * Function Name: CyBle_ChangeAdLocalName
1162:.\Generated_Source\PSoC4/CYBLE.c ****         ***************************************************************************//**
1163:.\Generated_Source\PSoC4/CYBLE.c ****         *  This API is used to set the local device name in the advertisement or scan 
1164:.\Generated_Source\PSoC4/CYBLE.c ****         *  response data structure.
1165:.\Generated_Source\PSoC4/CYBLE.c ****         * 
1166:.\Generated_Source\PSoC4/CYBLE.c ****         *  \param name: The local device name string to be set in advertisement data 
1167:.\Generated_Source\PSoC4/CYBLE.c ****         *            structure.
1168:.\Generated_Source\PSoC4/CYBLE.c ****         *  \param dest: 0 - advertisement structure, not zero value selects scan response
1169:.\Generated_Source\PSoC4/CYBLE.c ****         *              structure.
1170:.\Generated_Source\PSoC4/CYBLE.c ****         * 
1171:.\Generated_Source\PSoC4/CYBLE.c ****         * \return
1172:.\Generated_Source\PSoC4/CYBLE.c ****         *  None
1173:.\Generated_Source\PSoC4/CYBLE.c ****         *  
1174:.\Generated_Source\PSoC4/CYBLE.c ****         *******************************************************************************/
1175:.\Generated_Source\PSoC4/CYBLE.c ****         static void CyBle_ChangeAdLocalName(const char8 name[], uint8 dest)
1176:.\Generated_Source\PSoC4/CYBLE.c ****         {
 712              		.loc 1 1176 0
 713              		.cfi_startproc
 714 0000 80B5     		push	{r7, lr}
 715              		.cfi_def_cfa_offset 8
 716              		.cfi_offset 7, -8
 717              		.cfi_offset 14, -4
 718 0002 86B0     		sub	sp, sp, #24
 719              		.cfi_def_cfa_offset 32
 720 0004 00AF     		add	r7, sp, #0
 721              		.cfi_def_cfa_register 7
 722 0006 7860     		str	r0, [r7, #4]
 723 0008 0A1C     		mov	r2, r1
 724 000a FB1C     		add	r3, r7, #3
 725 000c 1A70     		strb	r2, [r3]
1177:.\Generated_Source\PSoC4/CYBLE.c ****             uint8 i;
1178:.\Generated_Source\PSoC4/CYBLE.c ****             uint8 flag = 0u;
 726              		.loc 1 1178 0
 727 000e 1623     		mov	r3, #22
 728 0010 FB18     		add	r3, r7, r3
 729 0012 0022     		mov	r2, #0
 730 0014 1A70     		strb	r2, [r3]
1179:.\Generated_Source\PSoC4/CYBLE.c ****             uint8 adLength = 0u;
 731              		.loc 1 1179 0
 732 0016 1523     		mov	r3, #21
 733 0018 FB18     		add	r3, r7, r3
 734 001a 0022     		mov	r2, #0
 735 001c 1A70     		strb	r2, [r3]
1180:.\Generated_Source\PSoC4/CYBLE.c ****             uint8 byteCounter = 0u;
 736              		.loc 1 1180 0
 737 001e 1423     		mov	r3, #20
 738 0020 FB18     		add	r3, r7, r3
 739 0022 0022     		mov	r2, #0
 740 0024 1A70     		strb	r2, [r3]
1181:.\Generated_Source\PSoC4/CYBLE.c ****             uint8 *destBuffer;
1182:.\Generated_Source\PSoC4/CYBLE.c ****             uint8 maxLength;
1183:.\Generated_Source\PSoC4/CYBLE.c ****             
1184:.\Generated_Source\PSoC4/CYBLE.c ****             if(dest == 0u)      /* Destination - advertising structure */
 741              		.loc 1 1184 0
 742 0026 FB1C     		add	r3, r7, #3
 743 0028 1B78     		ldrb	r3, [r3]
ARM GAS  C:\Users\sunyi\AppData\Local\Temp\ccXDbPBi.s 			page 35


 744 002a 002B     		cmp	r3, #0
 745 002c 07D1     		bne	.L35
1185:.\Generated_Source\PSoC4/CYBLE.c ****             {
1186:.\Generated_Source\PSoC4/CYBLE.c ****                 destBuffer = cyBle_discoveryData.advData;
 746              		.loc 1 1186 0
 747 002e 5B4B     		ldr	r3, .L50
 748 0030 3B61     		str	r3, [r7, #16]
1187:.\Generated_Source\PSoC4/CYBLE.c ****                 maxLength = cyBle_discoveryData.advDataLen;
 749              		.loc 1 1187 0
 750 0032 0F23     		mov	r3, #15
 751 0034 FB18     		add	r3, r7, r3
 752 0036 594A     		ldr	r2, .L50
 753 0038 D27F     		ldrb	r2, [r2, #31]
 754 003a 1A70     		strb	r2, [r3]
 755 003c 06E0     		b	.L36
 756              	.L35:
1188:.\Generated_Source\PSoC4/CYBLE.c ****             }
1189:.\Generated_Source\PSoC4/CYBLE.c ****             else                /* Destination - scan response structure */
1190:.\Generated_Source\PSoC4/CYBLE.c ****             {
1191:.\Generated_Source\PSoC4/CYBLE.c ****                 destBuffer = cyBle_scanRspData.scanRspData;
 757              		.loc 1 1191 0
 758 003e 584B     		ldr	r3, .L50+4
 759 0040 3B61     		str	r3, [r7, #16]
1192:.\Generated_Source\PSoC4/CYBLE.c ****                 maxLength = cyBle_scanRspData.scanRspDataLen;
 760              		.loc 1 1192 0
 761 0042 0F23     		mov	r3, #15
 762 0044 FB18     		add	r3, r7, r3
 763 0046 564A     		ldr	r2, .L50+4
 764 0048 D27F     		ldrb	r2, [r2, #31]
 765 004a 1A70     		strb	r2, [r3]
 766              	.L36:
1193:.\Generated_Source\PSoC4/CYBLE.c ****             }
1194:.\Generated_Source\PSoC4/CYBLE.c ****             
1195:.\Generated_Source\PSoC4/CYBLE.c ****             while((byteCounter < maxLength) && (0u == flag))
 767              		.loc 1 1195 0
 768 004c 35E0     		b	.L37
 769              	.L43:
1196:.\Generated_Source\PSoC4/CYBLE.c ****             {
1197:.\Generated_Source\PSoC4/CYBLE.c ****                 adLength = destBuffer[byteCounter];
 770              		.loc 1 1197 0
 771 004e 1423     		mov	r3, #20
 772 0050 FB18     		add	r3, r7, r3
 773 0052 1B78     		ldrb	r3, [r3]
 774 0054 3A69     		ldr	r2, [r7, #16]
 775 0056 D218     		add	r2, r2, r3
 776 0058 1523     		mov	r3, #21
 777 005a FB18     		add	r3, r7, r3
 778 005c 1278     		ldrb	r2, [r2]
 779 005e 1A70     		strb	r2, [r3]
1198:.\Generated_Source\PSoC4/CYBLE.c ****                 
1199:.\Generated_Source\PSoC4/CYBLE.c ****                 if(0u != adLength)
 780              		.loc 1 1199 0
 781 0060 1523     		mov	r3, #21
 782 0062 FB18     		add	r3, r7, r3
 783 0064 1B78     		ldrb	r3, [r3]
 784 0066 002B     		cmp	r3, #0
 785 0068 26D0     		beq	.L38
ARM GAS  C:\Users\sunyi\AppData\Local\Temp\ccXDbPBi.s 			page 36


1200:.\Generated_Source\PSoC4/CYBLE.c ****                 {
1201:.\Generated_Source\PSoC4/CYBLE.c ****                     /* Increment byte counter so it can point to AD type */
1202:.\Generated_Source\PSoC4/CYBLE.c ****                     byteCounter++;
 786              		.loc 1 1202 0
 787 006a 1423     		mov	r3, #20
 788 006c FB18     		add	r3, r7, r3
 789 006e 1A78     		ldrb	r2, [r3]
 790 0070 1423     		mov	r3, #20
 791 0072 FB18     		add	r3, r7, r3
 792 0074 0132     		add	r2, r2, #1
 793 0076 1A70     		strb	r2, [r3]
1203:.\Generated_Source\PSoC4/CYBLE.c ****                     
1204:.\Generated_Source\PSoC4/CYBLE.c ****                     if((CYBLE_SHORT_LOCAL_NAME == destBuffer[byteCounter]) || 
 794              		.loc 1 1204 0
 795 0078 1423     		mov	r3, #20
 796 007a FB18     		add	r3, r7, r3
 797 007c 1B78     		ldrb	r3, [r3]
 798 007e 3A69     		ldr	r2, [r7, #16]
 799 0080 D318     		add	r3, r2, r3
 800 0082 1B78     		ldrb	r3, [r3]
 801 0084 082B     		cmp	r3, #8
 802 0086 07D0     		beq	.L39
1205:.\Generated_Source\PSoC4/CYBLE.c ****                        (CYBLE_COMPLETE_LOCAL_NAME == destBuffer[byteCounter]))
 803              		.loc 1 1205 0 discriminator 1
 804 0088 1423     		mov	r3, #20
 805 008a FB18     		add	r3, r7, r3
 806 008c 1B78     		ldrb	r3, [r3]
 807 008e 3A69     		ldr	r2, [r7, #16]
 808 0090 D318     		add	r3, r2, r3
 809 0092 1B78     		ldrb	r3, [r3]
1204:.\Generated_Source\PSoC4/CYBLE.c ****                        (CYBLE_COMPLETE_LOCAL_NAME == destBuffer[byteCounter]))
 810              		.loc 1 1204 0 discriminator 1
 811 0094 092B     		cmp	r3, #9
 812 0096 04D1     		bne	.L40
 813              	.L39:
1206:.\Generated_Source\PSoC4/CYBLE.c ****                     {
1207:.\Generated_Source\PSoC4/CYBLE.c ****                         /* Start of the Local Name AD type was fount. Set flag and exit the loop. *
1208:.\Generated_Source\PSoC4/CYBLE.c ****                         flag = 1u;
 814              		.loc 1 1208 0
 815 0098 1623     		mov	r3, #22
 816 009a FB18     		add	r3, r7, r3
 817 009c 0122     		mov	r2, #1
 818 009e 1A70     		strb	r2, [r3]
 819 00a0 09E0     		b	.L41
 820              	.L40:
1209:.\Generated_Source\PSoC4/CYBLE.c ****                     }
1210:.\Generated_Source\PSoC4/CYBLE.c ****                     else
1211:.\Generated_Source\PSoC4/CYBLE.c ****                     {
1212:.\Generated_Source\PSoC4/CYBLE.c ****                         byteCounter += adLength;
 821              		.loc 1 1212 0
 822 00a2 1423     		mov	r3, #20
 823 00a4 FB18     		add	r3, r7, r3
 824 00a6 1422     		mov	r2, #20
 825 00a8 B918     		add	r1, r7, r2
 826 00aa 1522     		mov	r2, #21
 827 00ac BA18     		add	r2, r7, r2
 828 00ae 0978     		ldrb	r1, [r1]
ARM GAS  C:\Users\sunyi\AppData\Local\Temp\ccXDbPBi.s 			page 37


 829 00b0 1278     		ldrb	r2, [r2]
 830 00b2 8A18     		add	r2, r1, r2
 831 00b4 1A70     		strb	r2, [r3]
 832              	.L41:
 833 00b6 00E0     		b	.L37
 834              	.L38:
1213:.\Generated_Source\PSoC4/CYBLE.c ****                     }
1214:.\Generated_Source\PSoC4/CYBLE.c ****                 }
1215:.\Generated_Source\PSoC4/CYBLE.c ****                 else
1216:.\Generated_Source\PSoC4/CYBLE.c ****                 {
1217:.\Generated_Source\PSoC4/CYBLE.c ****                     /* The end of advertisement data structure was encountered though exit the loop
1218:.\Generated_Source\PSoC4/CYBLE.c ****                     break;
 835              		.loc 1 1218 0
 836 00b8 0CE0     		b	.L42
 837              	.L37:
1195:.\Generated_Source\PSoC4/CYBLE.c ****             {
 838              		.loc 1 1195 0
 839 00ba 1423     		mov	r3, #20
 840 00bc FA18     		add	r2, r7, r3
 841 00be 0F23     		mov	r3, #15
 842 00c0 FB18     		add	r3, r7, r3
 843 00c2 1278     		ldrb	r2, [r2]
 844 00c4 1B78     		ldrb	r3, [r3]
 845 00c6 9A42     		cmp	r2, r3
 846 00c8 04D2     		bcs	.L42
1195:.\Generated_Source\PSoC4/CYBLE.c ****             {
 847              		.loc 1 1195 0 is_stmt 0 discriminator 1
 848 00ca 1623     		mov	r3, #22
 849 00cc FB18     		add	r3, r7, r3
 850 00ce 1B78     		ldrb	r3, [r3]
 851 00d0 002B     		cmp	r3, #0
 852 00d2 BCD0     		beq	.L43
 853              	.L42:
1219:.\Generated_Source\PSoC4/CYBLE.c ****                 }
1220:.\Generated_Source\PSoC4/CYBLE.c ****             }
1221:.\Generated_Source\PSoC4/CYBLE.c ****             
1222:.\Generated_Source\PSoC4/CYBLE.c ****             if(0u != flag)
 854              		.loc 1 1222 0 is_stmt 1
 855 00d4 1623     		mov	r3, #22
 856 00d6 FB18     		add	r3, r7, r3
 857 00d8 1B78     		ldrb	r3, [r3]
 858 00da 002B     		cmp	r3, #0
 859 00dc 5BD0     		beq	.L34
1223:.\Generated_Source\PSoC4/CYBLE.c ****             {
1224:.\Generated_Source\PSoC4/CYBLE.c ****                 /* Reuse "adLength" to hold location of the last character of local name in 
1225:.\Generated_Source\PSoC4/CYBLE.c ****                    AD structure. */
1226:.\Generated_Source\PSoC4/CYBLE.c ****                 adLength += byteCounter;
 860              		.loc 1 1226 0
 861 00de 1523     		mov	r3, #21
 862 00e0 FB18     		add	r3, r7, r3
 863 00e2 1522     		mov	r2, #21
 864 00e4 B918     		add	r1, r7, r2
 865 00e6 1422     		mov	r2, #20
 866 00e8 BA18     		add	r2, r7, r2
 867 00ea 0978     		ldrb	r1, [r1]
 868 00ec 1278     		ldrb	r2, [r2]
 869 00ee 8A18     		add	r2, r1, r2
ARM GAS  C:\Users\sunyi\AppData\Local\Temp\ccXDbPBi.s 			page 38


 870 00f0 1A70     		strb	r2, [r3]
1227:.\Generated_Source\PSoC4/CYBLE.c ****                 
1228:.\Generated_Source\PSoC4/CYBLE.c ****                 /* Increment byte counter to point to start of the local Name string */
1229:.\Generated_Source\PSoC4/CYBLE.c ****                 byteCounter++;
 871              		.loc 1 1229 0
 872 00f2 1423     		mov	r3, #20
 873 00f4 FB18     		add	r3, r7, r3
 874 00f6 1A78     		ldrb	r2, [r3]
 875 00f8 1423     		mov	r3, #20
 876 00fa FB18     		add	r3, r7, r3
 877 00fc 0132     		add	r2, r2, #1
 878 00fe 1A70     		strb	r2, [r3]
1230:.\Generated_Source\PSoC4/CYBLE.c ****                 
1231:.\Generated_Source\PSoC4/CYBLE.c ****                 for(i = byteCounter; ((i < (adLength)) && (CYBLE_NULL_CHARCTER != name[i - byteCoun
 879              		.loc 1 1231 0
 880 0100 1723     		mov	r3, #23
 881 0102 FB18     		add	r3, r7, r3
 882 0104 1422     		mov	r2, #20
 883 0106 BA18     		add	r2, r7, r2
 884 0108 1278     		ldrb	r2, [r2]
 885 010a 1A70     		strb	r2, [r3]
 886 010c 17E0     		b	.L45
 887              	.L47:
1232:.\Generated_Source\PSoC4/CYBLE.c ****                 {
1233:.\Generated_Source\PSoC4/CYBLE.c ****                     destBuffer[i] = (uint8)name[i - byteCounter];
 888              		.loc 1 1233 0 discriminator 4
 889 010e 1723     		mov	r3, #23
 890 0110 FB18     		add	r3, r7, r3
 891 0112 1B78     		ldrb	r3, [r3]
 892 0114 3A69     		ldr	r2, [r7, #16]
 893 0116 D318     		add	r3, r2, r3
 894 0118 1722     		mov	r2, #23
 895 011a BA18     		add	r2, r7, r2
 896 011c 1178     		ldrb	r1, [r2]
 897 011e 1422     		mov	r2, #20
 898 0120 BA18     		add	r2, r7, r2
 899 0122 1278     		ldrb	r2, [r2]
 900 0124 8A1A     		sub	r2, r1, r2
 901 0126 111C     		mov	r1, r2
 902 0128 7A68     		ldr	r2, [r7, #4]
 903 012a 5218     		add	r2, r2, r1
 904 012c 1278     		ldrb	r2, [r2]
 905 012e 1A70     		strb	r2, [r3]
1231:.\Generated_Source\PSoC4/CYBLE.c ****                 {
 906              		.loc 1 1231 0 discriminator 4
 907 0130 1723     		mov	r3, #23
 908 0132 FB18     		add	r3, r7, r3
 909 0134 1A78     		ldrb	r2, [r3]
 910 0136 1723     		mov	r3, #23
 911 0138 FB18     		add	r3, r7, r3
 912 013a 0132     		add	r2, r2, #1
 913 013c 1A70     		strb	r2, [r3]
 914              	.L45:
1231:.\Generated_Source\PSoC4/CYBLE.c ****                 {
 915              		.loc 1 1231 0 is_stmt 0 discriminator 1
 916 013e 1723     		mov	r3, #23
 917 0140 FA18     		add	r2, r7, r3
ARM GAS  C:\Users\sunyi\AppData\Local\Temp\ccXDbPBi.s 			page 39


 918 0142 1523     		mov	r3, #21
 919 0144 FB18     		add	r3, r7, r3
 920 0146 1278     		ldrb	r2, [r2]
 921 0148 1B78     		ldrb	r3, [r3]
 922 014a 9A42     		cmp	r2, r3
 923 014c 0CD2     		bcs	.L46
1231:.\Generated_Source\PSoC4/CYBLE.c ****                 {
 924              		.loc 1 1231 0 discriminator 3
 925 014e 1723     		mov	r3, #23
 926 0150 FB18     		add	r3, r7, r3
 927 0152 1A78     		ldrb	r2, [r3]
 928 0154 1423     		mov	r3, #20
 929 0156 FB18     		add	r3, r7, r3
 930 0158 1B78     		ldrb	r3, [r3]
 931 015a D31A     		sub	r3, r2, r3
 932 015c 1A1C     		mov	r2, r3
 933 015e 7B68     		ldr	r3, [r7, #4]
 934 0160 9B18     		add	r3, r3, r2
 935 0162 1B78     		ldrb	r3, [r3]
 936 0164 002B     		cmp	r3, #0
 937 0166 D2D1     		bne	.L47
 938              	.L46:
1234:.\Generated_Source\PSoC4/CYBLE.c ****                 }
1235:.\Generated_Source\PSoC4/CYBLE.c ****                 
1236:.\Generated_Source\PSoC4/CYBLE.c ****                 /* This loop handles the case when new local name is shorted than old one.
1237:.\Generated_Source\PSoC4/CYBLE.c ****                    In this case all remaining characters should be null characters. */
1238:.\Generated_Source\PSoC4/CYBLE.c ****                 while(adLength > i)
 939              		.loc 1 1238 0 is_stmt 1
 940 0168 0DE0     		b	.L48
 941              	.L49:
1239:.\Generated_Source\PSoC4/CYBLE.c ****                 {
1240:.\Generated_Source\PSoC4/CYBLE.c ****                     /* Terminate string */
1241:.\Generated_Source\PSoC4/CYBLE.c ****                     destBuffer[i] = (uint8)CYBLE_NULL_CHARCTER;
 942              		.loc 1 1241 0
 943 016a 1723     		mov	r3, #23
 944 016c FB18     		add	r3, r7, r3
 945 016e 1B78     		ldrb	r3, [r3]
 946 0170 3A69     		ldr	r2, [r7, #16]
 947 0172 D318     		add	r3, r2, r3
 948 0174 0022     		mov	r2, #0
 949 0176 1A70     		strb	r2, [r3]
1242:.\Generated_Source\PSoC4/CYBLE.c ****                     i++;
 950              		.loc 1 1242 0
 951 0178 1723     		mov	r3, #23
 952 017a FB18     		add	r3, r7, r3
 953 017c 1A78     		ldrb	r2, [r3]
 954 017e 1723     		mov	r3, #23
 955 0180 FB18     		add	r3, r7, r3
 956 0182 0132     		add	r2, r2, #1
 957 0184 1A70     		strb	r2, [r3]
 958              	.L48:
1238:.\Generated_Source\PSoC4/CYBLE.c ****                 {
 959              		.loc 1 1238 0
 960 0186 1523     		mov	r3, #21
 961 0188 FA18     		add	r2, r7, r3
 962 018a 1723     		mov	r3, #23
 963 018c FB18     		add	r3, r7, r3
ARM GAS  C:\Users\sunyi\AppData\Local\Temp\ccXDbPBi.s 			page 40


 964 018e 1278     		ldrb	r2, [r2]
 965 0190 1B78     		ldrb	r3, [r3]
 966 0192 9A42     		cmp	r2, r3
 967 0194 E9D8     		bhi	.L49
 968              	.L34:
1243:.\Generated_Source\PSoC4/CYBLE.c ****                 }
1244:.\Generated_Source\PSoC4/CYBLE.c ****             }
1245:.\Generated_Source\PSoC4/CYBLE.c ****         }
 969              		.loc 1 1245 0
 970 0196 BD46     		mov	sp, r7
 971 0198 06B0     		add	sp, sp, #24
 972              		@ sp needed
 973 019a 80BD     		pop	{r7, pc}
 974              	.L51:
 975              		.align	2
 976              	.L50:
 977 019c 00000000 		.word	cyBle_discoveryData
 978 01a0 00000000 		.word	cyBle_scanRspData
 979              		.cfi_endproc
 980              	.LFE9:
 981              		.size	CyBle_ChangeAdLocalName, .-CyBle_ChangeAdLocalName
 982              		.section	.text.CyBle_GapSetLocalName,"ax",%progbits
 983              		.align	2
 984              		.global	CyBle_GapSetLocalName
 985              		.code	16
 986              		.thumb_func
 987              		.type	CyBle_GapSetLocalName, %function
 988              	CyBle_GapSetLocalName:
 989              	.LFB10:
1246:.\Generated_Source\PSoC4/CYBLE.c ****         
1247:.\Generated_Source\PSoC4/CYBLE.c **** #endif /* (CYBLE_GAP_ROLE_PERIPHERAL) */  
1248:.\Generated_Source\PSoC4/CYBLE.c ****     
1249:.\Generated_Source\PSoC4/CYBLE.c ****     
1250:.\Generated_Source\PSoC4/CYBLE.c ****     /******************************************************************************
1251:.\Generated_Source\PSoC4/CYBLE.c ****     * Function Name: CyBle_GapSetLocalName
1252:.\Generated_Source\PSoC4/CYBLE.c ****     ***************************************************************************//**
1253:.\Generated_Source\PSoC4/CYBLE.c ****     *  This API is used to set the local device name - a Characteristic of the 
1254:.\Generated_Source\PSoC4/CYBLE.c ****     *  GAP Service. If the characteristic length entered in the component customizer
1255:.\Generated_Source\PSoC4/CYBLE.c ****     *  is shorter than the string specified by the "name" parameter, the local device
1256:.\Generated_Source\PSoC4/CYBLE.c ****     *  name will be cut to the length specified in the customizer.
1257:.\Generated_Source\PSoC4/CYBLE.c ****     * 
1258:.\Generated_Source\PSoC4/CYBLE.c ****     *  \param name: The local device name string. The name string to be written as
1259:.\Generated_Source\PSoC4/CYBLE.c ****     *              the local device name. It represents a UTF-8 encoded User
1260:.\Generated_Source\PSoC4/CYBLE.c ****     *              Friendly Descriptive Name for the device. The length of the local
1261:.\Generated_Source\PSoC4/CYBLE.c ****     *              device string is entered into the component customizer and it can
1262:.\Generated_Source\PSoC4/CYBLE.c ****     *              be set to a value from 0 to 248 bytes. If the name contained in
1263:.\Generated_Source\PSoC4/CYBLE.c ****     *              the parameter is shorter than the length from the customizer, the
1264:.\Generated_Source\PSoC4/CYBLE.c ****     *              end of the name is indicated by a NULL octet (0x00).
1265:.\Generated_Source\PSoC4/CYBLE.c ****     * 
1266:.\Generated_Source\PSoC4/CYBLE.c ****     * \return
1267:.\Generated_Source\PSoC4/CYBLE.c ****     *  CYBLE_API_RESULT_T : Return value indicates if the function succeeded or 
1268:.\Generated_Source\PSoC4/CYBLE.c ****     *  failed. Following are the possible error codes.
1269:.\Generated_Source\PSoC4/CYBLE.c ****     *
1270:.\Generated_Source\PSoC4/CYBLE.c ****     *   Errors codes                       | Description
1271:.\Generated_Source\PSoC4/CYBLE.c ****     *   ------------                       | -----------
1272:.\Generated_Source\PSoC4/CYBLE.c ****     *   CYBLE_ERROR_OK                     | Function completed successfully.
1273:.\Generated_Source\PSoC4/CYBLE.c ****     *   CYBLE_ERROR_INVALID_PARAMETER      | On specifying NULL as input parameter
ARM GAS  C:\Users\sunyi\AppData\Local\Temp\ccXDbPBi.s 			page 41


1274:.\Generated_Source\PSoC4/CYBLE.c ****     *  
1275:.\Generated_Source\PSoC4/CYBLE.c ****     *******************************************************************************/
1276:.\Generated_Source\PSoC4/CYBLE.c ****     CYBLE_API_RESULT_T CyBle_GapSetLocalName(const char8 name[])
1277:.\Generated_Source\PSoC4/CYBLE.c ****     {
 990              		.loc 1 1277 0
 991              		.cfi_startproc
 992 0000 80B5     		push	{r7, lr}
 993              		.cfi_def_cfa_offset 8
 994              		.cfi_offset 7, -8
 995              		.cfi_offset 14, -4
 996 0002 86B0     		sub	sp, sp, #24
 997              		.cfi_def_cfa_offset 32
 998 0004 00AF     		add	r7, sp, #0
 999              		.cfi_def_cfa_register 7
 1000 0006 7860     		str	r0, [r7, #4]
1278:.\Generated_Source\PSoC4/CYBLE.c ****         CYBLE_API_RESULT_T apiResult = CYBLE_ERROR_OK;
 1001              		.loc 1 1278 0
 1002 0008 1623     		mov	r3, #22
 1003 000a FB18     		add	r3, r7, r3
 1004 000c 0022     		mov	r2, #0
 1005 000e 1A80     		strh	r2, [r3]
1279:.\Generated_Source\PSoC4/CYBLE.c ****         uint8 i;
1280:.\Generated_Source\PSoC4/CYBLE.c ****         char8 *ptr;
1281:.\Generated_Source\PSoC4/CYBLE.c ****         uint8 charLen;
1282:.\Generated_Source\PSoC4/CYBLE.c **** 
1283:.\Generated_Source\PSoC4/CYBLE.c ****         if(NULL != name)
 1006              		.loc 1 1283 0
 1007 0010 7B68     		ldr	r3, [r7, #4]
 1008 0012 002B     		cmp	r3, #0
 1009 0014 4AD0     		beq	.L53
1284:.\Generated_Source\PSoC4/CYBLE.c ****         {
1285:.\Generated_Source\PSoC4/CYBLE.c ****             /* Get the pointer to the Device Name characteristic  */
1286:.\Generated_Source\PSoC4/CYBLE.c ****             ptr = (char8 *) CYBLE_GATT_DB_ATTR_GET_ATTR_GEN_PTR(CYBLE_GAP_DEVICE_NAME_INDEX + 1u);
 1010              		.loc 1 1286 0
 1011 0016 2B4B     		ldr	r3, .L60
 1012 0018 9B6B     		ldr	r3, [r3, #56]
 1013 001a 5B68     		ldr	r3, [r3, #4]
 1014 001c 3B61     		str	r3, [r7, #16]
1287:.\Generated_Source\PSoC4/CYBLE.c **** 
1288:.\Generated_Source\PSoC4/CYBLE.c ****             /* First need to get the maximum length of the characteristic data in the GATT
1289:.\Generated_Source\PSoC4/CYBLE.c ****                 database to make sure there is enough place for the data. The length
1290:.\Generated_Source\PSoC4/CYBLE.c ****                 can't be longer than 248, so only the LSB of 16 bit of length is to
1291:.\Generated_Source\PSoC4/CYBLE.c ****                 be used. */
1292:.\Generated_Source\PSoC4/CYBLE.c ****             charLen = (uint8)CYBLE_GATT_DB_ATTR_GET_ATTR_GEN_MAX_LEN(CYBLE_GAP_DEVICE_NAME_INDEX + 
 1015              		.loc 1 1292 0
 1016 001e 294B     		ldr	r3, .L60
 1017 0020 9A8E     		ldrh	r2, [r3, #52]
 1018 0022 0F23     		mov	r3, #15
 1019 0024 FB18     		add	r3, r7, r3
 1020 0026 1A70     		strb	r2, [r3]
1293:.\Generated_Source\PSoC4/CYBLE.c **** 
1294:.\Generated_Source\PSoC4/CYBLE.c ****             /* Copy name into characteristic */
1295:.\Generated_Source\PSoC4/CYBLE.c ****             for(i = 0u; ((i < charLen) && (CYBLE_NULL_CHARCTER != name[i])); i++)
 1021              		.loc 1 1295 0
 1022 0028 1523     		mov	r3, #21
 1023 002a FB18     		add	r3, r7, r3
 1024 002c 0022     		mov	r2, #0
ARM GAS  C:\Users\sunyi\AppData\Local\Temp\ccXDbPBi.s 			page 42


 1025 002e 1A70     		strb	r2, [r3]
 1026 0030 12E0     		b	.L54
 1027              	.L56:
1296:.\Generated_Source\PSoC4/CYBLE.c ****             {
1297:.\Generated_Source\PSoC4/CYBLE.c ****                 ptr[i] = name[i];
 1028              		.loc 1 1297 0 discriminator 4
 1029 0032 1523     		mov	r3, #21
 1030 0034 FB18     		add	r3, r7, r3
 1031 0036 1B78     		ldrb	r3, [r3]
 1032 0038 3A69     		ldr	r2, [r7, #16]
 1033 003a D318     		add	r3, r2, r3
 1034 003c 1522     		mov	r2, #21
 1035 003e BA18     		add	r2, r7, r2
 1036 0040 1278     		ldrb	r2, [r2]
 1037 0042 7968     		ldr	r1, [r7, #4]
 1038 0044 8A18     		add	r2, r1, r2
 1039 0046 1278     		ldrb	r2, [r2]
 1040 0048 1A70     		strb	r2, [r3]
1295:.\Generated_Source\PSoC4/CYBLE.c ****             {
 1041              		.loc 1 1295 0 discriminator 4
 1042 004a 1523     		mov	r3, #21
 1043 004c FB18     		add	r3, r7, r3
 1044 004e 1A78     		ldrb	r2, [r3]
 1045 0050 1523     		mov	r3, #21
 1046 0052 FB18     		add	r3, r7, r3
 1047 0054 0132     		add	r2, r2, #1
 1048 0056 1A70     		strb	r2, [r3]
 1049              	.L54:
1295:.\Generated_Source\PSoC4/CYBLE.c ****             {
 1050              		.loc 1 1295 0 is_stmt 0 discriminator 1
 1051 0058 1523     		mov	r3, #21
 1052 005a FA18     		add	r2, r7, r3
 1053 005c 0F23     		mov	r3, #15
 1054 005e FB18     		add	r3, r7, r3
 1055 0060 1278     		ldrb	r2, [r2]
 1056 0062 1B78     		ldrb	r3, [r3]
 1057 0064 9A42     		cmp	r2, r3
 1058 0066 07D2     		bcs	.L55
1295:.\Generated_Source\PSoC4/CYBLE.c ****             {
 1059              		.loc 1 1295 0 discriminator 3
 1060 0068 1523     		mov	r3, #21
 1061 006a FB18     		add	r3, r7, r3
 1062 006c 1B78     		ldrb	r3, [r3]
 1063 006e 7A68     		ldr	r2, [r7, #4]
 1064 0070 D318     		add	r3, r2, r3
 1065 0072 1B78     		ldrb	r3, [r3]
 1066 0074 002B     		cmp	r3, #0
 1067 0076 DCD1     		bne	.L56
 1068              	.L55:
1298:.\Generated_Source\PSoC4/CYBLE.c ****             }
1299:.\Generated_Source\PSoC4/CYBLE.c **** 
1300:.\Generated_Source\PSoC4/CYBLE.c ****             if(i < charLen)
 1069              		.loc 1 1300 0 is_stmt 1
 1070 0078 1523     		mov	r3, #21
 1071 007a FA18     		add	r2, r7, r3
 1072 007c 0F23     		mov	r3, #15
 1073 007e FB18     		add	r3, r7, r3
ARM GAS  C:\Users\sunyi\AppData\Local\Temp\ccXDbPBi.s 			page 43


 1074 0080 1278     		ldrb	r2, [r2]
 1075 0082 1B78     		ldrb	r3, [r3]
 1076 0084 9A42     		cmp	r2, r3
 1077 0086 06D2     		bcs	.L57
1301:.\Generated_Source\PSoC4/CYBLE.c ****             {
1302:.\Generated_Source\PSoC4/CYBLE.c ****                 /* Terminate string */
1303:.\Generated_Source\PSoC4/CYBLE.c ****                 ptr[i] = CYBLE_NULL_CHARCTER;
 1078              		.loc 1 1303 0
 1079 0088 1523     		mov	r3, #21
 1080 008a FB18     		add	r3, r7, r3
 1081 008c 1B78     		ldrb	r3, [r3]
 1082 008e 3A69     		ldr	r2, [r7, #16]
 1083 0090 D318     		add	r3, r2, r3
 1084 0092 0022     		mov	r2, #0
 1085 0094 1A70     		strb	r2, [r3]
 1086              	.L57:
1304:.\Generated_Source\PSoC4/CYBLE.c ****             }
1305:.\Generated_Source\PSoC4/CYBLE.c ****             
1306:.\Generated_Source\PSoC4/CYBLE.c ****             /* Set new actual length */
1307:.\Generated_Source\PSoC4/CYBLE.c ****             
1308:.\Generated_Source\PSoC4/CYBLE.c ****             /* Update device name in advertising and scan response structure */
1309:.\Generated_Source\PSoC4/CYBLE.c ****             #if(CYBLE_GAP_ROLE_PERIPHERAL)
1310:.\Generated_Source\PSoC4/CYBLE.c ****                 CyBle_ChangeAdLocalName(name, 0u);
 1087              		.loc 1 1310 0
 1088 0096 7B68     		ldr	r3, [r7, #4]
 1089 0098 181C     		mov	r0, r3
 1090 009a 0021     		mov	r1, #0
 1091 009c FFF7FEFF 		bl	CyBle_ChangeAdLocalName
1311:.\Generated_Source\PSoC4/CYBLE.c ****                 CyBle_ChangeAdLocalName(name, 1u);
 1092              		.loc 1 1311 0
 1093 00a0 7B68     		ldr	r3, [r7, #4]
 1094 00a2 181C     		mov	r0, r3
 1095 00a4 0121     		mov	r1, #1
 1096 00a6 FFF7FEFF 		bl	CyBle_ChangeAdLocalName
 1097 00aa 03E0     		b	.L58
 1098              	.L53:
1312:.\Generated_Source\PSoC4/CYBLE.c ****             #endif /* (CYBLE_GAP_ROLE_PERIPHERAL) */
1313:.\Generated_Source\PSoC4/CYBLE.c ****         }
1314:.\Generated_Source\PSoC4/CYBLE.c ****         else
1315:.\Generated_Source\PSoC4/CYBLE.c ****         {
1316:.\Generated_Source\PSoC4/CYBLE.c ****             apiResult = CYBLE_ERROR_INVALID_PARAMETER;
 1099              		.loc 1 1316 0
 1100 00ac 1623     		mov	r3, #22
 1101 00ae FB18     		add	r3, r7, r3
 1102 00b0 0122     		mov	r2, #1
 1103 00b2 1A80     		strh	r2, [r3]
 1104              	.L58:
1317:.\Generated_Source\PSoC4/CYBLE.c ****         }
1318:.\Generated_Source\PSoC4/CYBLE.c ****         
1319:.\Generated_Source\PSoC4/CYBLE.c ****         return(apiResult);
 1105              		.loc 1 1319 0
 1106 00b4 1623     		mov	r3, #22
 1107 00b6 FB18     		add	r3, r7, r3
 1108 00b8 1B88     		ldrh	r3, [r3]
1320:.\Generated_Source\PSoC4/CYBLE.c ****     }
 1109              		.loc 1 1320 0
 1110 00ba 181C     		mov	r0, r3
ARM GAS  C:\Users\sunyi\AppData\Local\Temp\ccXDbPBi.s 			page 44


 1111 00bc BD46     		mov	sp, r7
 1112 00be 06B0     		add	sp, sp, #24
 1113              		@ sp needed
 1114 00c0 80BD     		pop	{r7, pc}
 1115              	.L61:
 1116 00c2 C046     		.align	2
 1117              	.L60:
 1118 00c4 00000000 		.word	cyBle_gattDB
 1119              		.cfi_endproc
 1120              	.LFE10:
 1121              		.size	CyBle_GapSetLocalName, .-CyBle_GapSetLocalName
 1122              		.section	.text.CyBle_GapGetLocalName,"ax",%progbits
 1123              		.align	2
 1124              		.global	CyBle_GapGetLocalName
 1125              		.code	16
 1126              		.thumb_func
 1127              		.type	CyBle_GapGetLocalName, %function
 1128              	CyBle_GapGetLocalName:
 1129              	.LFB11:
1321:.\Generated_Source\PSoC4/CYBLE.c **** 
1322:.\Generated_Source\PSoC4/CYBLE.c **** 
1323:.\Generated_Source\PSoC4/CYBLE.c ****     /******************************************************************************
1324:.\Generated_Source\PSoC4/CYBLE.c ****     * Function Name: CyBle_GapGetLocalName
1325:.\Generated_Source\PSoC4/CYBLE.c ****     ***************************************************************************//**
1326:.\Generated_Source\PSoC4/CYBLE.c ****     *  
1327:.\Generated_Source\PSoC4/CYBLE.c ****     *  This API is used to read the local device name - a Characteristic of the 
1328:.\Generated_Source\PSoC4/CYBLE.c ****     *  GAP Service.
1329:.\Generated_Source\PSoC4/CYBLE.c ****     * 
1330:.\Generated_Source\PSoC4/CYBLE.c ****     * \param name: The local device name string. Used to read the local name to the
1331:.\Generated_Source\PSoC4/CYBLE.c ****     *             given string array. It represents a UTF-8 encoded User Friendly 
1332:.\Generated_Source\PSoC4/CYBLE.c ****     *             Descriptive Name for the device. The length of the local device
1333:.\Generated_Source\PSoC4/CYBLE.c ****     *             string is entered into the component customizer and it can be set
1334:.\Generated_Source\PSoC4/CYBLE.c ****     *             to a value from 0 to 248 bytes. If the name contained in the
1335:.\Generated_Source\PSoC4/CYBLE.c ****     *             parameter is shorter than the length from the customizer, the end
1336:.\Generated_Source\PSoC4/CYBLE.c ****     *             of the name is indicated by a NULL octet (0x00).
1337:.\Generated_Source\PSoC4/CYBLE.c ****     * 
1338:.\Generated_Source\PSoC4/CYBLE.c ****     * \return
1339:.\Generated_Source\PSoC4/CYBLE.c ****     *  CYBLE_API_RESULT_T : Return value indicates if the function succeeded or 
1340:.\Generated_Source\PSoC4/CYBLE.c ****     *  failed. Following are the possible error codes.
1341:.\Generated_Source\PSoC4/CYBLE.c ****     *
1342:.\Generated_Source\PSoC4/CYBLE.c ****     *   Errors codes                       | Description
1343:.\Generated_Source\PSoC4/CYBLE.c ****     *   ------------                       | -----------
1344:.\Generated_Source\PSoC4/CYBLE.c ****     *   CYBLE_ERROR_OK                     | Function completed successfully.
1345:.\Generated_Source\PSoC4/CYBLE.c ****     *   CYBLE_ERROR_INVALID_PARAMETER      | On specifying NULL as input parameter
1346:.\Generated_Source\PSoC4/CYBLE.c ****     *
1347:.\Generated_Source\PSoC4/CYBLE.c ****     *******************************************************************************/
1348:.\Generated_Source\PSoC4/CYBLE.c ****     CYBLE_API_RESULT_T CyBle_GapGetLocalName(char8 name[])
1349:.\Generated_Source\PSoC4/CYBLE.c ****     {
 1130              		.loc 1 1349 0
 1131              		.cfi_startproc
 1132 0000 80B5     		push	{r7, lr}
 1133              		.cfi_def_cfa_offset 8
 1134              		.cfi_offset 7, -8
 1135              		.cfi_offset 14, -4
 1136 0002 86B0     		sub	sp, sp, #24
 1137              		.cfi_def_cfa_offset 32
 1138 0004 00AF     		add	r7, sp, #0
ARM GAS  C:\Users\sunyi\AppData\Local\Temp\ccXDbPBi.s 			page 45


 1139              		.cfi_def_cfa_register 7
 1140 0006 7860     		str	r0, [r7, #4]
1350:.\Generated_Source\PSoC4/CYBLE.c ****         CYBLE_API_RESULT_T apiResult = CYBLE_ERROR_OK;
 1141              		.loc 1 1350 0
 1142 0008 1623     		mov	r3, #22
 1143 000a FB18     		add	r3, r7, r3
 1144 000c 0022     		mov	r2, #0
 1145 000e 1A80     		strh	r2, [r3]
1351:.\Generated_Source\PSoC4/CYBLE.c ****         uint8 charLen;
1352:.\Generated_Source\PSoC4/CYBLE.c ****         uint8 i;
1353:.\Generated_Source\PSoC4/CYBLE.c ****         char8 *ptr;
1354:.\Generated_Source\PSoC4/CYBLE.c **** 
1355:.\Generated_Source\PSoC4/CYBLE.c ****         if(NULL != name)
 1146              		.loc 1 1355 0
 1147 0010 7B68     		ldr	r3, [r7, #4]
 1148 0012 002B     		cmp	r3, #0
 1149 0014 39D0     		beq	.L63
1356:.\Generated_Source\PSoC4/CYBLE.c ****         {
1357:.\Generated_Source\PSoC4/CYBLE.c ****             /* Get the pointer to the Device Name characteristic  */
1358:.\Generated_Source\PSoC4/CYBLE.c ****             ptr = (char8 *) CYBLE_GATT_DB_ATTR_GET_ATTR_GEN_PTR(CYBLE_GAP_DEVICE_NAME_INDEX + 1u);
 1150              		.loc 1 1358 0
 1151 0016 224B     		ldr	r3, .L69
 1152 0018 9B6B     		ldr	r3, [r3, #56]
 1153 001a 5B68     		ldr	r3, [r3, #4]
 1154 001c 3B61     		str	r3, [r7, #16]
1359:.\Generated_Source\PSoC4/CYBLE.c **** 
1360:.\Generated_Source\PSoC4/CYBLE.c ****             /* First need to get the length of the characteristic data in the GATT
1361:.\Generated_Source\PSoC4/CYBLE.c ****                 database to make sure there is enough place for the data. The length
1362:.\Generated_Source\PSoC4/CYBLE.c ****                 can't be longer than 248, so only the LSB of 16 bit of length is to
1363:.\Generated_Source\PSoC4/CYBLE.c ****                 be used. */
1364:.\Generated_Source\PSoC4/CYBLE.c ****             charLen = (uint8)CYBLE_GATT_DB_ATTR_GET_ATTR_GEN_LEN(CYBLE_GAP_DEVICE_NAME_INDEX + 1u);
 1155              		.loc 1 1364 0
 1156 001e 204B     		ldr	r3, .L69
 1157 0020 9B6B     		ldr	r3, [r3, #56]
 1158 0022 1A88     		ldrh	r2, [r3]
 1159 0024 0F23     		mov	r3, #15
 1160 0026 FB18     		add	r3, r7, r3
 1161 0028 1A70     		strb	r2, [r3]
1365:.\Generated_Source\PSoC4/CYBLE.c **** 
1366:.\Generated_Source\PSoC4/CYBLE.c ****             /* Copy name from characteristic */
1367:.\Generated_Source\PSoC4/CYBLE.c ****             for(i = 0u; ((i < charLen) && (CYBLE_NULL_CHARCTER != ptr[i])); i++)
 1162              		.loc 1 1367 0
 1163 002a 1523     		mov	r3, #21
 1164 002c FB18     		add	r3, r7, r3
 1165 002e 0022     		mov	r2, #0
 1166 0030 1A70     		strb	r2, [r3]
 1167 0032 12E0     		b	.L64
 1168              	.L66:
1368:.\Generated_Source\PSoC4/CYBLE.c ****             {
1369:.\Generated_Source\PSoC4/CYBLE.c ****                 name[i] = ptr[i];
 1169              		.loc 1 1369 0 discriminator 4
 1170 0034 1523     		mov	r3, #21
 1171 0036 FB18     		add	r3, r7, r3
 1172 0038 1B78     		ldrb	r3, [r3]
 1173 003a 7A68     		ldr	r2, [r7, #4]
 1174 003c D318     		add	r3, r2, r3
 1175 003e 1522     		mov	r2, #21
ARM GAS  C:\Users\sunyi\AppData\Local\Temp\ccXDbPBi.s 			page 46


 1176 0040 BA18     		add	r2, r7, r2
 1177 0042 1278     		ldrb	r2, [r2]
 1178 0044 3969     		ldr	r1, [r7, #16]
 1179 0046 8A18     		add	r2, r1, r2
 1180 0048 1278     		ldrb	r2, [r2]
 1181 004a 1A70     		strb	r2, [r3]
1367:.\Generated_Source\PSoC4/CYBLE.c ****             {
 1182              		.loc 1 1367 0 discriminator 4
 1183 004c 1523     		mov	r3, #21
 1184 004e FB18     		add	r3, r7, r3
 1185 0050 1A78     		ldrb	r2, [r3]
 1186 0052 1523     		mov	r3, #21
 1187 0054 FB18     		add	r3, r7, r3
 1188 0056 0132     		add	r2, r2, #1
 1189 0058 1A70     		strb	r2, [r3]
 1190              	.L64:
1367:.\Generated_Source\PSoC4/CYBLE.c ****             {
 1191              		.loc 1 1367 0 is_stmt 0 discriminator 1
 1192 005a 1523     		mov	r3, #21
 1193 005c FA18     		add	r2, r7, r3
 1194 005e 0F23     		mov	r3, #15
 1195 0060 FB18     		add	r3, r7, r3
 1196 0062 1278     		ldrb	r2, [r2]
 1197 0064 1B78     		ldrb	r3, [r3]
 1198 0066 9A42     		cmp	r2, r3
 1199 0068 07D2     		bcs	.L65
1367:.\Generated_Source\PSoC4/CYBLE.c ****             {
 1200              		.loc 1 1367 0 discriminator 3
 1201 006a 1523     		mov	r3, #21
 1202 006c FB18     		add	r3, r7, r3
 1203 006e 1B78     		ldrb	r3, [r3]
 1204 0070 3A69     		ldr	r2, [r7, #16]
 1205 0072 D318     		add	r3, r2, r3
 1206 0074 1B78     		ldrb	r3, [r3]
 1207 0076 002B     		cmp	r3, #0
 1208 0078 DCD1     		bne	.L66
 1209              	.L65:
1370:.\Generated_Source\PSoC4/CYBLE.c ****             }
1371:.\Generated_Source\PSoC4/CYBLE.c **** 
1372:.\Generated_Source\PSoC4/CYBLE.c ****             /* Terminate string */
1373:.\Generated_Source\PSoC4/CYBLE.c ****             name[i] = CYBLE_NULL_CHARCTER;
 1210              		.loc 1 1373 0 is_stmt 1
 1211 007a 1523     		mov	r3, #21
 1212 007c FB18     		add	r3, r7, r3
 1213 007e 1B78     		ldrb	r3, [r3]
 1214 0080 7A68     		ldr	r2, [r7, #4]
 1215 0082 D318     		add	r3, r2, r3
 1216 0084 0022     		mov	r2, #0
 1217 0086 1A70     		strb	r2, [r3]
 1218 0088 03E0     		b	.L67
 1219              	.L63:
1374:.\Generated_Source\PSoC4/CYBLE.c ****         }
1375:.\Generated_Source\PSoC4/CYBLE.c ****         else
1376:.\Generated_Source\PSoC4/CYBLE.c ****         {
1377:.\Generated_Source\PSoC4/CYBLE.c ****             apiResult = CYBLE_ERROR_INVALID_PARAMETER;
 1220              		.loc 1 1377 0
 1221 008a 1623     		mov	r3, #22
ARM GAS  C:\Users\sunyi\AppData\Local\Temp\ccXDbPBi.s 			page 47


 1222 008c FB18     		add	r3, r7, r3
 1223 008e 0122     		mov	r2, #1
 1224 0090 1A80     		strh	r2, [r3]
 1225              	.L67:
1378:.\Generated_Source\PSoC4/CYBLE.c ****         }
1379:.\Generated_Source\PSoC4/CYBLE.c ****         
1380:.\Generated_Source\PSoC4/CYBLE.c ****         return(apiResult);
 1226              		.loc 1 1380 0
 1227 0092 1623     		mov	r3, #22
 1228 0094 FB18     		add	r3, r7, r3
 1229 0096 1B88     		ldrh	r3, [r3]
1381:.\Generated_Source\PSoC4/CYBLE.c ****     }
 1230              		.loc 1 1381 0
 1231 0098 181C     		mov	r0, r3
 1232 009a BD46     		mov	sp, r7
 1233 009c 06B0     		add	sp, sp, #24
 1234              		@ sp needed
 1235 009e 80BD     		pop	{r7, pc}
 1236              	.L70:
 1237              		.align	2
 1238              	.L69:
 1239 00a0 00000000 		.word	cyBle_gattDB
 1240              		.cfi_endproc
 1241              	.LFE11:
 1242              		.size	CyBle_GapGetLocalName, .-CyBle_GapGetLocalName
 1243              		.section	.text.CyBle_Get16ByPtr,"ax",%progbits
 1244              		.align	2
 1245              		.global	CyBle_Get16ByPtr
 1246              		.code	16
 1247              		.thumb_func
 1248              		.type	CyBle_Get16ByPtr, %function
 1249              	CyBle_Get16ByPtr:
 1250              	.LFB12:
1382:.\Generated_Source\PSoC4/CYBLE.c **** 
1383:.\Generated_Source\PSoC4/CYBLE.c **** #endif /* (CYBLE_GATT_ROLE_SERVER) */
1384:.\Generated_Source\PSoC4/CYBLE.c **** 
1385:.\Generated_Source\PSoC4/CYBLE.c **** 
1386:.\Generated_Source\PSoC4/CYBLE.c **** /******************************************************************************
1387:.\Generated_Source\PSoC4/CYBLE.c **** * Function Name: CyBle_Get16ByPtr
1388:.\Generated_Source\PSoC4/CYBLE.c **** ***************************************************************************//**
1389:.\Generated_Source\PSoC4/CYBLE.c **** * 
1390:.\Generated_Source\PSoC4/CYBLE.c **** *  Returns the two-bytes value by using a pointer to the LSB.
1391:.\Generated_Source\PSoC4/CYBLE.c **** * 
1392:.\Generated_Source\PSoC4/CYBLE.c **** *  \param ptr: Pointer to the LSB of two-bytes data (little endian).
1393:.\Generated_Source\PSoC4/CYBLE.c **** * 
1394:.\Generated_Source\PSoC4/CYBLE.c **** *  \return
1395:.\Generated_Source\PSoC4/CYBLE.c **** *  uint16: Two-bytes data.
1396:.\Generated_Source\PSoC4/CYBLE.c **** * 
1397:.\Generated_Source\PSoC4/CYBLE.c **** ******************************************************************************/
1398:.\Generated_Source\PSoC4/CYBLE.c **** uint16 CyBle_Get16ByPtr(const uint8 ptr[])
1399:.\Generated_Source\PSoC4/CYBLE.c **** {
 1251              		.loc 1 1399 0
 1252              		.cfi_startproc
 1253 0000 80B5     		push	{r7, lr}
 1254              		.cfi_def_cfa_offset 8
 1255              		.cfi_offset 7, -8
 1256              		.cfi_offset 14, -4
ARM GAS  C:\Users\sunyi\AppData\Local\Temp\ccXDbPBi.s 			page 48


 1257 0002 82B0     		sub	sp, sp, #8
 1258              		.cfi_def_cfa_offset 16
 1259 0004 00AF     		add	r7, sp, #0
 1260              		.cfi_def_cfa_register 7
 1261 0006 7860     		str	r0, [r7, #4]
1400:.\Generated_Source\PSoC4/CYBLE.c ****     return ((uint16) ptr[0u] | ((uint16) (((uint16) ptr[1u]) << 8u)));
 1262              		.loc 1 1400 0
 1263 0008 7B68     		ldr	r3, [r7, #4]
 1264 000a 1B78     		ldrb	r3, [r3]
 1265 000c 9AB2     		uxth	r2, r3
 1266 000e 7B68     		ldr	r3, [r7, #4]
 1267 0010 0133     		add	r3, r3, #1
 1268 0012 1B78     		ldrb	r3, [r3]
 1269 0014 9BB2     		uxth	r3, r3
 1270 0016 1B02     		lsl	r3, r3, #8
 1271 0018 9BB2     		uxth	r3, r3
 1272 001a 1343     		orr	r3, r2
 1273 001c 9BB2     		uxth	r3, r3
1401:.\Generated_Source\PSoC4/CYBLE.c **** }
 1274              		.loc 1 1401 0
 1275 001e 181C     		mov	r0, r3
 1276 0020 BD46     		mov	sp, r7
 1277 0022 02B0     		add	sp, sp, #8
 1278              		@ sp needed
 1279 0024 80BD     		pop	{r7, pc}
 1280              		.cfi_endproc
 1281              	.LFE12:
 1282              		.size	CyBle_Get16ByPtr, .-CyBle_Get16ByPtr
 1283 0026 C046     		.section	.text.CyBle_Set16ByPtr,"ax",%progbits
 1284              		.align	2
 1285              		.global	CyBle_Set16ByPtr
 1286              		.code	16
 1287              		.thumb_func
 1288              		.type	CyBle_Set16ByPtr, %function
 1289              	CyBle_Set16ByPtr:
 1290              	.LFB13:
1402:.\Generated_Source\PSoC4/CYBLE.c **** 
1403:.\Generated_Source\PSoC4/CYBLE.c **** 
1404:.\Generated_Source\PSoC4/CYBLE.c **** /******************************************************************************
1405:.\Generated_Source\PSoC4/CYBLE.c **** * Function Name: CyBle_Set16ByPtr
1406:.\Generated_Source\PSoC4/CYBLE.c **** ***************************************************************************//**
1407:.\Generated_Source\PSoC4/CYBLE.c **** * 
1408:.\Generated_Source\PSoC4/CYBLE.c **** *  Sets the two-bytes value by using a pointer to the LSB.
1409:.\Generated_Source\PSoC4/CYBLE.c **** * 
1410:.\Generated_Source\PSoC4/CYBLE.c **** *  \param ptr:    Pointer to the LSB of two-bytes data (little endian).
1411:.\Generated_Source\PSoC4/CYBLE.c **** *  \param value:  Two-bytes data to be written.
1412:.\Generated_Source\PSoC4/CYBLE.c **** * 
1413:.\Generated_Source\PSoC4/CYBLE.c **** *  \return
1414:.\Generated_Source\PSoC4/CYBLE.c **** *  None
1415:.\Generated_Source\PSoC4/CYBLE.c **** * 
1416:.\Generated_Source\PSoC4/CYBLE.c **** ******************************************************************************/
1417:.\Generated_Source\PSoC4/CYBLE.c **** void CyBle_Set16ByPtr(uint8 ptr[], uint16 value)
1418:.\Generated_Source\PSoC4/CYBLE.c **** {
 1291              		.loc 1 1418 0
 1292              		.cfi_startproc
 1293 0000 80B5     		push	{r7, lr}
 1294              		.cfi_def_cfa_offset 8
ARM GAS  C:\Users\sunyi\AppData\Local\Temp\ccXDbPBi.s 			page 49


 1295              		.cfi_offset 7, -8
 1296              		.cfi_offset 14, -4
 1297 0002 82B0     		sub	sp, sp, #8
 1298              		.cfi_def_cfa_offset 16
 1299 0004 00AF     		add	r7, sp, #0
 1300              		.cfi_def_cfa_register 7
 1301 0006 7860     		str	r0, [r7, #4]
 1302 0008 0A1C     		mov	r2, r1
 1303 000a BB1C     		add	r3, r7, #2
 1304 000c 1A80     		strh	r2, [r3]
1419:.\Generated_Source\PSoC4/CYBLE.c ****     ptr[0u] = (uint8) value;
 1305              		.loc 1 1419 0
 1306 000e BB1C     		add	r3, r7, #2
 1307 0010 1B88     		ldrh	r3, [r3]
 1308 0012 DAB2     		uxtb	r2, r3
 1309 0014 7B68     		ldr	r3, [r7, #4]
 1310 0016 1A70     		strb	r2, [r3]
1420:.\Generated_Source\PSoC4/CYBLE.c ****     ptr[1u] = (uint8) (value >> 8u);
 1311              		.loc 1 1420 0
 1312 0018 7B68     		ldr	r3, [r7, #4]
 1313 001a 0133     		add	r3, r3, #1
 1314 001c BA1C     		add	r2, r7, #2
 1315 001e 1288     		ldrh	r2, [r2]
 1316 0020 120A     		lsr	r2, r2, #8
 1317 0022 92B2     		uxth	r2, r2
 1318 0024 D2B2     		uxtb	r2, r2
 1319 0026 1A70     		strb	r2, [r3]
1421:.\Generated_Source\PSoC4/CYBLE.c **** }
 1320              		.loc 1 1421 0
 1321 0028 BD46     		mov	sp, r7
 1322 002a 02B0     		add	sp, sp, #8
 1323              		@ sp needed
 1324 002c 80BD     		pop	{r7, pc}
 1325              		.cfi_endproc
 1326              	.LFE13:
 1327              		.size	CyBle_Set16ByPtr, .-CyBle_Set16ByPtr
 1328 002e C046     		.text
 1329              	.Letext0:
 1330              		.file 2 ".\\Generated_Source\\PSoC4\\cytypes.h"
 1331              		.file 3 ".\\Generated_Source\\PSoC4\\CYBLE_Stack.h"
 1332              		.file 4 ".\\Generated_Source\\PSoC4\\CYBLE_StackGap.h"
 1333              		.file 5 ".\\Generated_Source\\PSoC4\\CYBLE_StackGattDb.h"
 1334              		.file 6 ".\\Generated_Source\\PSoC4\\CYBLE.h"
 1335              		.file 7 ".\\Generated_Source\\PSoC4\\CYBLE_eventHandler.h"
 1336              		.file 8 ".\\Generated_Source\\PSoC4\\CYBLE_gatt.h"
 1337              		.section	.debug_info,"",%progbits
 1338              	.Ldebug_info0:
 1339 0000 780B0000 		.4byte	0xb78
 1340 0004 0400     		.2byte	0x4
 1341 0006 00000000 		.4byte	.Ldebug_abbrev0
 1342 000a 04       		.byte	0x4
 1343 000b 01       		.uleb128 0x1
 1344 000c 06130000 		.4byte	.LASF221
 1345 0010 01       		.byte	0x1
 1346 0011 760D0000 		.4byte	.LASF222
 1347 0015 B8110000 		.4byte	.LASF223
 1348 0019 00000000 		.4byte	.Ldebug_ranges0+0
ARM GAS  C:\Users\sunyi\AppData\Local\Temp\ccXDbPBi.s 			page 50


 1349 001d 00000000 		.4byte	0
 1350 0021 00000000 		.4byte	.Ldebug_line0
 1351 0025 02       		.uleb128 0x2
 1352 0026 01       		.byte	0x1
 1353 0027 06       		.byte	0x6
 1354 0028 80040000 		.4byte	.LASF0
 1355 002c 02       		.uleb128 0x2
 1356 002d 01       		.byte	0x1
 1357 002e 08       		.byte	0x8
 1358 002f 970D0000 		.4byte	.LASF1
 1359 0033 02       		.uleb128 0x2
 1360 0034 02       		.byte	0x2
 1361 0035 05       		.byte	0x5
 1362 0036 F30D0000 		.4byte	.LASF2
 1363 003a 02       		.uleb128 0x2
 1364 003b 02       		.byte	0x2
 1365 003c 07       		.byte	0x7
 1366 003d DC100000 		.4byte	.LASF3
 1367 0041 02       		.uleb128 0x2
 1368 0042 04       		.byte	0x4
 1369 0043 05       		.byte	0x5
 1370 0044 70020000 		.4byte	.LASF4
 1371 0048 02       		.uleb128 0x2
 1372 0049 04       		.byte	0x4
 1373 004a 07       		.byte	0x7
 1374 004b 20080000 		.4byte	.LASF5
 1375 004f 02       		.uleb128 0x2
 1376 0050 08       		.byte	0x8
 1377 0051 05       		.byte	0x5
 1378 0052 72040000 		.4byte	.LASF6
 1379 0056 02       		.uleb128 0x2
 1380 0057 08       		.byte	0x8
 1381 0058 07       		.byte	0x7
 1382 0059 46070000 		.4byte	.LASF7
 1383 005d 03       		.uleb128 0x3
 1384 005e 04       		.byte	0x4
 1385 005f 05       		.byte	0x5
 1386 0060 696E7400 		.ascii	"int\000"
 1387 0064 02       		.uleb128 0x2
 1388 0065 04       		.byte	0x4
 1389 0066 07       		.byte	0x7
 1390 0067 E90F0000 		.4byte	.LASF8
 1391 006b 04       		.uleb128 0x4
 1392 006c F9050000 		.4byte	.LASF9
 1393 0070 02       		.byte	0x2
 1394 0071 9801     		.2byte	0x198
 1395 0073 2C000000 		.4byte	0x2c
 1396 0077 04       		.uleb128 0x4
 1397 0078 A50D0000 		.4byte	.LASF10
 1398 007c 02       		.byte	0x2
 1399 007d 9901     		.2byte	0x199
 1400 007f 3A000000 		.4byte	0x3a
 1401 0083 04       		.uleb128 0x4
 1402 0084 A0060000 		.4byte	.LASF11
 1403 0088 02       		.byte	0x2
 1404 0089 9A01     		.2byte	0x19a
 1405 008b 48000000 		.4byte	0x48
ARM GAS  C:\Users\sunyi\AppData\Local\Temp\ccXDbPBi.s 			page 51


 1406 008f 02       		.uleb128 0x2
 1407 0090 04       		.byte	0x4
 1408 0091 04       		.byte	0x4
 1409 0092 C50C0000 		.4byte	.LASF12
 1410 0096 02       		.uleb128 0x2
 1411 0097 08       		.byte	0x8
 1412 0098 04       		.byte	0x4
 1413 0099 50060000 		.4byte	.LASF13
 1414 009d 04       		.uleb128 0x4
 1415 009e 4F100000 		.4byte	.LASF14
 1416 00a2 02       		.byte	0x2
 1417 00a3 A901     		.2byte	0x1a9
 1418 00a5 A9000000 		.4byte	0xa9
 1419 00a9 02       		.uleb128 0x2
 1420 00aa 01       		.byte	0x1
 1421 00ab 08       		.byte	0x8
 1422 00ac 810F0000 		.4byte	.LASF15
 1423 00b0 05       		.uleb128 0x5
 1424 00b1 6B000000 		.4byte	0x6b
 1425 00b5 02       		.uleb128 0x2
 1426 00b6 04       		.byte	0x4
 1427 00b7 07       		.byte	0x7
 1428 00b8 280B0000 		.4byte	.LASF16
 1429 00bc 06       		.uleb128 0x6
 1430 00bd 04       		.byte	0x4
 1431 00be 07       		.uleb128 0x7
 1432 00bf 01       		.byte	0x1
 1433 00c0 03       		.byte	0x3
 1434 00c1 4201     		.2byte	0x142
 1435 00c3 7B020000 		.4byte	0x27b
 1436 00c7 08       		.uleb128 0x8
 1437 00c8 F6080000 		.4byte	.LASF17
 1438 00cc 00       		.sleb128 0
 1439 00cd 08       		.uleb128 0x8
 1440 00ce 8C040000 		.4byte	.LASF18
 1441 00d2 01       		.sleb128 1
 1442 00d3 08       		.uleb128 0x8
 1443 00d4 5E020000 		.4byte	.LASF19
 1444 00d8 02       		.sleb128 2
 1445 00d9 08       		.uleb128 0x8
 1446 00da C3100000 		.4byte	.LASF20
 1447 00de 03       		.sleb128 3
 1448 00df 08       		.uleb128 0x8
 1449 00e0 2F030000 		.4byte	.LASF21
 1450 00e4 04       		.sleb128 4
 1451 00e5 08       		.uleb128 0x8
 1452 00e6 23000000 		.4byte	.LASF22
 1453 00ea 05       		.sleb128 5
 1454 00eb 08       		.uleb128 0x8
 1455 00ec 2B090000 		.4byte	.LASF23
 1456 00f0 06       		.sleb128 6
 1457 00f1 08       		.uleb128 0x8
 1458 00f2 8C0A0000 		.4byte	.LASF24
 1459 00f6 20       		.sleb128 32
 1460 00f7 08       		.uleb128 0x8
 1461 00f8 E9040000 		.4byte	.LASF25
 1462 00fc 21       		.sleb128 33
ARM GAS  C:\Users\sunyi\AppData\Local\Temp\ccXDbPBi.s 			page 52


 1463 00fd 08       		.uleb128 0x8
 1464 00fe 52090000 		.4byte	.LASF26
 1465 0102 22       		.sleb128 34
 1466 0103 08       		.uleb128 0x8
 1467 0104 0D0A0000 		.4byte	.LASF27
 1468 0108 23       		.sleb128 35
 1469 0109 08       		.uleb128 0x8
 1470 010a E20B0000 		.4byte	.LASF28
 1471 010e 24       		.sleb128 36
 1472 010f 08       		.uleb128 0x8
 1473 0110 560B0000 		.4byte	.LASF29
 1474 0114 25       		.sleb128 37
 1475 0115 08       		.uleb128 0x8
 1476 0116 90050000 		.4byte	.LASF30
 1477 011a 26       		.sleb128 38
 1478 011b 08       		.uleb128 0x8
 1479 011c 76090000 		.4byte	.LASF31
 1480 0120 27       		.sleb128 39
 1481 0121 08       		.uleb128 0x8
 1482 0122 AF0F0000 		.4byte	.LASF32
 1483 0126 28       		.sleb128 40
 1484 0127 08       		.uleb128 0x8
 1485 0128 F1030000 		.4byte	.LASF33
 1486 012c 29       		.sleb128 41
 1487 012d 08       		.uleb128 0x8
 1488 012e EF000000 		.4byte	.LASF34
 1489 0132 2A       		.sleb128 42
 1490 0133 08       		.uleb128 0x8
 1491 0134 4C030000 		.4byte	.LASF35
 1492 0138 2B       		.sleb128 43
 1493 0139 08       		.uleb128 0x8
 1494 013a DA130000 		.4byte	.LASF36
 1495 013e 2C       		.sleb128 44
 1496 013f 08       		.uleb128 0x8
 1497 0140 0E040000 		.4byte	.LASF37
 1498 0144 2D       		.sleb128 45
 1499 0145 08       		.uleb128 0x8
 1500 0146 AC0D0000 		.4byte	.LASF38
 1501 014a 2E       		.sleb128 46
 1502 014b 08       		.uleb128 0x8
 1503 014c A6010000 		.4byte	.LASF39
 1504 0150 2F       		.sleb128 47
 1505 0151 08       		.uleb128 0x8
 1506 0152 C10B0000 		.4byte	.LASF40
 1507 0156 30       		.sleb128 48
 1508 0157 08       		.uleb128 0x8
 1509 0158 7F140000 		.4byte	.LASF41
 1510 015c 31       		.sleb128 49
 1511 015d 08       		.uleb128 0x8
 1512 015e A00B0000 		.4byte	.LASF42
 1513 0162 32       		.sleb128 50
 1514 0163 08       		.uleb128 0x8
 1515 0164 2F0F0000 		.4byte	.LASF43
 1516 0168 33       		.sleb128 51
 1517 0169 08       		.uleb128 0x8
 1518 016a CF060000 		.4byte	.LASF44
 1519 016e C000     		.sleb128 64
ARM GAS  C:\Users\sunyi\AppData\Local\Temp\ccXDbPBi.s 			page 53


 1520 0170 08       		.uleb128 0x8
 1521 0171 330A0000 		.4byte	.LASF45
 1522 0175 C100     		.sleb128 65
 1523 0177 08       		.uleb128 0x8
 1524 0178 A9140000 		.4byte	.LASF46
 1525 017c C200     		.sleb128 66
 1526 017e 08       		.uleb128 0x8
 1527 017f DB050000 		.4byte	.LASF47
 1528 0183 C300     		.sleb128 67
 1529 0185 08       		.uleb128 0x8
 1530 0186 4C080000 		.4byte	.LASF48
 1531 018a C400     		.sleb128 68
 1532 018c 08       		.uleb128 0x8
 1533 018d 9E0C0000 		.4byte	.LASF49
 1534 0191 C500     		.sleb128 69
 1535 0193 08       		.uleb128 0x8
 1536 0194 EF0A0000 		.4byte	.LASF50
 1537 0198 C600     		.sleb128 70
 1538 019a 08       		.uleb128 0x8
 1539 019b 0D090000 		.4byte	.LASF51
 1540 019f C700     		.sleb128 71
 1541 01a1 08       		.uleb128 0x8
 1542 01a2 94130000 		.4byte	.LASF52
 1543 01a6 C800     		.sleb128 72
 1544 01a8 08       		.uleb128 0x8
 1545 01a9 0B050000 		.4byte	.LASF53
 1546 01ad C900     		.sleb128 73
 1547 01af 08       		.uleb128 0x8
 1548 01b0 1B120000 		.4byte	.LASF54
 1549 01b4 CA00     		.sleb128 74
 1550 01b6 08       		.uleb128 0x8
 1551 01b7 CF010000 		.4byte	.LASF55
 1552 01bb CB00     		.sleb128 75
 1553 01bd 08       		.uleb128 0x8
 1554 01be 32080000 		.4byte	.LASF56
 1555 01c2 CC00     		.sleb128 76
 1556 01c4 08       		.uleb128 0x8
 1557 01c5 860B0000 		.4byte	.LASF57
 1558 01c9 CD00     		.sleb128 77
 1559 01cb 08       		.uleb128 0x8
 1560 01cc 4E050000 		.4byte	.LASF58
 1561 01d0 CE00     		.sleb128 78
 1562 01d2 08       		.uleb128 0x8
 1563 01d3 680E0000 		.4byte	.LASF59
 1564 01d7 CF00     		.sleb128 79
 1565 01d9 08       		.uleb128 0x8
 1566 01da EE010000 		.4byte	.LASF60
 1567 01de D000     		.sleb128 80
 1568 01e0 08       		.uleb128 0x8
 1569 01e1 12060000 		.4byte	.LASF61
 1570 01e5 D100     		.sleb128 81
 1571 01e7 08       		.uleb128 0x8
 1572 01e8 260C0000 		.4byte	.LASF62
 1573 01ec D200     		.sleb128 82
 1574 01ee 08       		.uleb128 0x8
 1575 01ef FD0D0000 		.4byte	.LASF63
 1576 01f3 D300     		.sleb128 83
ARM GAS  C:\Users\sunyi\AppData\Local\Temp\ccXDbPBi.s 			page 54


 1577 01f5 08       		.uleb128 0x8
 1578 01f6 F00E0000 		.4byte	.LASF64
 1579 01fa D400     		.sleb128 84
 1580 01fc 08       		.uleb128 0x8
 1581 01fd 6A080000 		.4byte	.LASF65
 1582 0201 D500     		.sleb128 85
 1583 0203 08       		.uleb128 0x8
 1584 0204 86070000 		.4byte	.LASF66
 1585 0208 D600     		.sleb128 86
 1586 020a 08       		.uleb128 0x8
 1587 020b 03100000 		.4byte	.LASF67
 1588 020f D700     		.sleb128 87
 1589 0211 08       		.uleb128 0x8
 1590 0212 63070000 		.4byte	.LASF68
 1591 0216 D800     		.sleb128 88
 1592 0218 08       		.uleb128 0x8
 1593 0219 E9060000 		.4byte	.LASF69
 1594 021d F000     		.sleb128 112
 1595 021f 08       		.uleb128 0x8
 1596 0220 59140000 		.4byte	.LASF70
 1597 0224 F100     		.sleb128 113
 1598 0226 08       		.uleb128 0x8
 1599 0227 700A0000 		.4byte	.LASF71
 1600 022b F200     		.sleb128 114
 1601 022d 08       		.uleb128 0x8
 1602 022e 150D0000 		.4byte	.LASF72
 1603 0232 F300     		.sleb128 115
 1604 0234 08       		.uleb128 0x8
 1605 0235 800C0000 		.4byte	.LASF73
 1606 0239 F400     		.sleb128 116
 1607 023b 08       		.uleb128 0x8
 1608 023c 0F140000 		.4byte	.LASF74
 1609 0240 F500     		.sleb128 117
 1610 0242 08       		.uleb128 0x8
 1611 0243 26010000 		.4byte	.LASF75
 1612 0247 F600     		.sleb128 118
 1613 0249 08       		.uleb128 0x8
 1614 024a 53000000 		.4byte	.LASF76
 1615 024e F700     		.sleb128 119
 1616 0250 08       		.uleb128 0x8
 1617 0251 00000000 		.4byte	.LASF77
 1618 0255 F800     		.sleb128 120
 1619 0257 08       		.uleb128 0x8
 1620 0258 37040000 		.4byte	.LASF78
 1621 025c F900     		.sleb128 121
 1622 025e 08       		.uleb128 0x8
 1623 025f 0F070000 		.4byte	.LASF79
 1624 0263 FA00     		.sleb128 122
 1625 0265 08       		.uleb128 0x8
 1626 0266 30140000 		.4byte	.LASF80
 1627 026a FA01     		.sleb128 250
 1628 026c 08       		.uleb128 0x8
 1629 026d C6070000 		.4byte	.LASF81
 1630 0271 FB01     		.sleb128 251
 1631 0273 08       		.uleb128 0x8
 1632 0274 B2060000 		.4byte	.LASF82
 1633 0278 FF01     		.sleb128 255
ARM GAS  C:\Users\sunyi\AppData\Local\Temp\ccXDbPBi.s 			page 55


 1634 027a 00       		.byte	0
 1635 027b 07       		.uleb128 0x7
 1636 027c 02       		.byte	0x2
 1637 027d 03       		.byte	0x3
 1638 027e FF02     		.2byte	0x2ff
 1639 0280 4B030000 		.4byte	0x34b
 1640 0284 08       		.uleb128 0x8
 1641 0285 C0060000 		.4byte	.LASF83
 1642 0289 00       		.sleb128 0
 1643 028a 08       		.uleb128 0x8
 1644 028b 60060000 		.4byte	.LASF84
 1645 028f 01       		.sleb128 1
 1646 0290 08       		.uleb128 0x8
 1647 0291 00110000 		.4byte	.LASF85
 1648 0295 02       		.sleb128 2
 1649 0296 08       		.uleb128 0x8
 1650 0297 97000000 		.4byte	.LASF86
 1651 029b 03       		.sleb128 3
 1652 029c 08       		.uleb128 0x8
 1653 029d 0C030000 		.4byte	.LASF87
 1654 02a1 04       		.sleb128 4
 1655 02a2 08       		.uleb128 0x8
 1656 02a3 A8070000 		.4byte	.LASF88
 1657 02a7 05       		.sleb128 5
 1658 02a8 08       		.uleb128 0x8
 1659 02a9 3F0E0000 		.4byte	.LASF89
 1660 02ad 06       		.sleb128 6
 1661 02ae 08       		.uleb128 0x8
 1662 02af C1040000 		.4byte	.LASF90
 1663 02b3 07       		.sleb128 7
 1664 02b4 08       		.uleb128 0x8
 1665 02b5 110F0000 		.4byte	.LASF91
 1666 02b9 08       		.sleb128 8
 1667 02ba 08       		.uleb128 0x8
 1668 02bb BB130000 		.4byte	.LASF92
 1669 02bf 09       		.sleb128 9
 1670 02c0 08       		.uleb128 0x8
 1671 02c1 460D0000 		.4byte	.LASF93
 1672 02c5 0A       		.sleb128 10
 1673 02c6 08       		.uleb128 0x8
 1674 02c7 860F0000 		.4byte	.LASF94
 1675 02cb 0B       		.sleb128 11
 1676 02cc 08       		.uleb128 0x8
 1677 02cd B6030000 		.4byte	.LASF95
 1678 02d1 0C       		.sleb128 12
 1679 02d2 08       		.uleb128 0x8
 1680 02d3 E7020000 		.4byte	.LASF96
 1681 02d7 0D       		.sleb128 13
 1682 02d8 08       		.uleb128 0x8
 1683 02d9 F7070000 		.4byte	.LASF97
 1684 02dd 0E       		.sleb128 14
 1685 02de 08       		.uleb128 0x8
 1686 02df B1120000 		.4byte	.LASF98
 1687 02e3 0F       		.sleb128 15
 1688 02e4 08       		.uleb128 0x8
 1689 02e5 7A100000 		.4byte	.LASF99
 1690 02e9 10       		.sleb128 16
ARM GAS  C:\Users\sunyi\AppData\Local\Temp\ccXDbPBi.s 			page 56


 1691 02ea 08       		.uleb128 0x8
 1692 02eb CD030000 		.4byte	.LASF100
 1693 02ef 11       		.sleb128 17
 1694 02f0 08       		.uleb128 0x8
 1695 02f1 B8050000 		.4byte	.LASF101
 1696 02f5 12       		.sleb128 18
 1697 02f6 08       		.uleb128 0x8
 1698 02f7 C7140000 		.4byte	.LASF102
 1699 02fb 13       		.sleb128 19
 1700 02fc 08       		.uleb128 0x8
 1701 02fd 9F040000 		.4byte	.LASF103
 1702 0301 27       		.sleb128 39
 1703 0302 08       		.uleb128 0x8
 1704 0303 55100000 		.4byte	.LASF104
 1705 0307 28       		.sleb128 40
 1706 0308 08       		.uleb128 0x8
 1707 0309 7C120000 		.4byte	.LASF105
 1708 030d 29       		.sleb128 41
 1709 030e 08       		.uleb128 0x8
 1710 030f 79020000 		.4byte	.LASF106
 1711 0313 2A       		.sleb128 42
 1712 0314 08       		.uleb128 0x8
 1713 0315 47010000 		.4byte	.LASF107
 1714 0319 2B       		.sleb128 43
 1715 031a 08       		.uleb128 0x8
 1716 031b D70A0000 		.4byte	.LASF108
 1717 031f 2C       		.sleb128 44
 1718 0320 08       		.uleb128 0x8
 1719 0321 D3000000 		.4byte	.LASF109
 1720 0325 FE01     		.sleb128 254
 1721 0327 08       		.uleb128 0x8
 1722 0328 C70A0000 		.4byte	.LASF110
 1723 032c FF01     		.sleb128 255
 1724 032e 08       		.uleb128 0x8
 1725 032f DD080000 		.4byte	.LASF111
 1726 0333 8002     		.sleb128 256
 1727 0335 08       		.uleb128 0x8
 1728 0336 470C0000 		.4byte	.LASF112
 1729 033a 8102     		.sleb128 257
 1730 033c 08       		.uleb128 0x8
 1731 033d D00D0000 		.4byte	.LASF113
 1732 0341 8202     		.sleb128 258
 1733 0343 08       		.uleb128 0x8
 1734 0344 24050000 		.4byte	.LASF114
 1735 0348 8302     		.sleb128 259
 1736 034a 00       		.byte	0
 1737 034b 04       		.uleb128 0x4
 1738 034c 080C0000 		.4byte	.LASF115
 1739 0350 03       		.byte	0x3
 1740 0351 6B03     		.2byte	0x36b
 1741 0353 7B020000 		.4byte	0x27b
 1742 0357 09       		.uleb128 0x9
 1743 0358 07       		.byte	0x7
 1744 0359 03       		.byte	0x3
 1745 035a 2804     		.2byte	0x428
 1746 035c 7B030000 		.4byte	0x37b
 1747 0360 0A       		.uleb128 0xa
ARM GAS  C:\Users\sunyi\AppData\Local\Temp\ccXDbPBi.s 			page 57


 1748 0361 0B060000 		.4byte	.LASF116
 1749 0365 03       		.byte	0x3
 1750 0366 2B04     		.2byte	0x42b
 1751 0368 7B030000 		.4byte	0x37b
 1752 036c 00       		.byte	0
 1753 036d 0A       		.uleb128 0xa
 1754 036e 59020000 		.4byte	.LASF117
 1755 0372 03       		.byte	0x3
 1756 0373 2D04     		.2byte	0x42d
 1757 0375 6B000000 		.4byte	0x6b
 1758 0379 06       		.byte	0x6
 1759 037a 00       		.byte	0
 1760 037b 0B       		.uleb128 0xb
 1761 037c 6B000000 		.4byte	0x6b
 1762 0380 8B030000 		.4byte	0x38b
 1763 0384 0C       		.uleb128 0xc
 1764 0385 B5000000 		.4byte	0xb5
 1765 0389 05       		.byte	0x5
 1766 038a 00       		.byte	0
 1767 038b 04       		.uleb128 0x4
 1768 038c A2030000 		.4byte	.LASF118
 1769 0390 03       		.byte	0x3
 1770 0391 2E04     		.2byte	0x42e
 1771 0393 57030000 		.4byte	0x357
 1772 0397 09       		.uleb128 0x9
 1773 0398 04       		.byte	0x4
 1774 0399 03       		.byte	0x3
 1775 039a 3804     		.2byte	0x438
 1776 039c BB030000 		.4byte	0x3bb
 1777 03a0 0A       		.uleb128 0xa
 1778 03a1 2C100000 		.4byte	.LASF119
 1779 03a5 03       		.byte	0x3
 1780 03a6 3B04     		.2byte	0x43b
 1781 03a8 77000000 		.4byte	0x77
 1782 03ac 00       		.byte	0
 1783 03ad 0A       		.uleb128 0xa
 1784 03ae D1080000 		.4byte	.LASF120
 1785 03b2 03       		.byte	0x3
 1786 03b3 3D04     		.2byte	0x43d
 1787 03b5 6B000000 		.4byte	0x6b
 1788 03b9 02       		.byte	0x2
 1789 03ba 00       		.byte	0
 1790 03bb 04       		.uleb128 0x4
 1791 03bc 4E0A0000 		.4byte	.LASF121
 1792 03c0 03       		.byte	0x3
 1793 03c1 3E04     		.2byte	0x43e
 1794 03c3 97030000 		.4byte	0x397
 1795 03c7 09       		.uleb128 0x9
 1796 03c8 06       		.byte	0x6
 1797 03c9 03       		.byte	0x3
 1798 03ca 4204     		.2byte	0x442
 1799 03cc F8030000 		.4byte	0x3f8
 1800 03d0 0A       		.uleb128 0xa
 1801 03d1 46020000 		.4byte	.LASF122
 1802 03d5 03       		.byte	0x3
 1803 03d6 4504     		.2byte	0x445
 1804 03d8 77000000 		.4byte	0x77
ARM GAS  C:\Users\sunyi\AppData\Local\Temp\ccXDbPBi.s 			page 58


 1805 03dc 00       		.byte	0
 1806 03dd 0A       		.uleb128 0xa
 1807 03de 330D0000 		.4byte	.LASF123
 1808 03e2 03       		.byte	0x3
 1809 03e3 4804     		.2byte	0x448
 1810 03e5 77000000 		.4byte	0x77
 1811 03e9 02       		.byte	0x2
 1812 03ea 0A       		.uleb128 0xa
 1813 03eb B4090000 		.4byte	.LASF124
 1814 03ef 03       		.byte	0x3
 1815 03f0 4B04     		.2byte	0x44b
 1816 03f2 6B000000 		.4byte	0x6b
 1817 03f6 04       		.byte	0x4
 1818 03f7 00       		.byte	0
 1819 03f8 04       		.uleb128 0x4
 1820 03f9 98120000 		.4byte	.LASF125
 1821 03fd 03       		.byte	0x3
 1822 03fe 4C04     		.2byte	0x44c
 1823 0400 C7030000 		.4byte	0x3c7
 1824 0404 09       		.uleb128 0x9
 1825 0405 01       		.byte	0x1
 1826 0406 03       		.byte	0x3
 1827 0407 4F04     		.2byte	0x44f
 1828 0409 1B040000 		.4byte	0x41b
 1829 040d 0A       		.uleb128 0xa
 1830 040e EF140000 		.4byte	.LASF126
 1831 0412 03       		.byte	0x3
 1832 0413 5204     		.2byte	0x452
 1833 0415 6B000000 		.4byte	0x6b
 1834 0419 00       		.byte	0
 1835 041a 00       		.byte	0
 1836 041b 04       		.uleb128 0x4
 1837 041c 96020000 		.4byte	.LASF127
 1838 0420 03       		.byte	0x3
 1839 0421 5304     		.2byte	0x453
 1840 0423 04040000 		.4byte	0x404
 1841 0427 09       		.uleb128 0x9
 1842 0428 0C       		.byte	0xc
 1843 0429 03       		.byte	0x3
 1844 042a 5904     		.2byte	0x459
 1845 042c 58040000 		.4byte	0x458
 1846 0430 0A       		.uleb128 0xa
 1847 0431 D0130000 		.4byte	.LASF128
 1848 0435 03       		.byte	0x3
 1849 0436 5C04     		.2byte	0x45c
 1850 0438 58040000 		.4byte	0x458
 1851 043c 00       		.byte	0
 1852 043d 0A       		.uleb128 0xa
 1853 043e 1E110000 		.4byte	.LASF129
 1854 0442 03       		.byte	0x3
 1855 0443 5F04     		.2byte	0x45f
 1856 0445 5E040000 		.4byte	0x45e
 1857 0449 04       		.byte	0x4
 1858 044a 0A       		.uleb128 0xa
 1859 044b 9D110000 		.4byte	.LASF130
 1860 044f 03       		.byte	0x3
 1861 0450 6504     		.2byte	0x465
ARM GAS  C:\Users\sunyi\AppData\Local\Temp\ccXDbPBi.s 			page 59


 1862 0452 77000000 		.4byte	0x77
 1863 0456 08       		.byte	0x8
 1864 0457 00       		.byte	0
 1865 0458 0D       		.uleb128 0xd
 1866 0459 04       		.byte	0x4
 1867 045a F8030000 		.4byte	0x3f8
 1868 045e 0D       		.uleb128 0xd
 1869 045f 04       		.byte	0x4
 1870 0460 1B040000 		.4byte	0x41b
 1871 0464 04       		.uleb128 0x4
 1872 0465 A8100000 		.4byte	.LASF131
 1873 0469 03       		.byte	0x3
 1874 046a 6604     		.2byte	0x466
 1875 046c 27040000 		.4byte	0x427
 1876 0470 0E       		.uleb128 0xe
 1877 0471 01       		.byte	0x1
 1878 0472 04       		.byte	0x4
 1879 0473 D0       		.byte	0xd0
 1880 0474 97040000 		.4byte	0x497
 1881 0478 08       		.uleb128 0x8
 1882 0479 7C030000 		.4byte	.LASF132
 1883 047d 00       		.sleb128 0
 1884 047e 08       		.uleb128 0x8
 1885 047f 7A010000 		.4byte	.LASF133
 1886 0483 01       		.sleb128 1
 1887 0484 08       		.uleb128 0x8
 1888 0485 22020000 		.4byte	.LASF134
 1889 0489 02       		.sleb128 2
 1890 048a 08       		.uleb128 0x8
 1891 048b F1110000 		.4byte	.LASF135
 1892 048f 03       		.sleb128 3
 1893 0490 08       		.uleb128 0x8
 1894 0491 920E0000 		.4byte	.LASF136
 1895 0495 04       		.sleb128 4
 1896 0496 00       		.byte	0
 1897 0497 0F       		.uleb128 0xf
 1898 0498 8C110000 		.4byte	.LASF137
 1899 049c 04       		.byte	0x4
 1900 049d E0       		.byte	0xe0
 1901 049e 70040000 		.4byte	0x470
 1902 04a2 09       		.uleb128 0x9
 1903 04a3 10       		.byte	0x10
 1904 04a4 04       		.byte	0x4
 1905 04a5 0902     		.2byte	0x209
 1906 04a7 14050000 		.4byte	0x514
 1907 04ab 0A       		.uleb128 0xa
 1908 04ac 870E0000 		.4byte	.LASF138
 1909 04b0 04       		.byte	0x4
 1910 04b1 0F02     		.2byte	0x20f
 1911 04b3 77000000 		.4byte	0x77
 1912 04b7 00       		.byte	0
 1913 04b8 0A       		.uleb128 0xa
 1914 04b9 6C050000 		.4byte	.LASF139
 1915 04bd 04       		.byte	0x4
 1916 04be 1502     		.2byte	0x215
 1917 04c0 77000000 		.4byte	0x77
 1918 04c4 02       		.byte	0x2
ARM GAS  C:\Users\sunyi\AppData\Local\Temp\ccXDbPBi.s 			page 60


 1919 04c5 0A       		.uleb128 0xa
 1920 04c6 44030000 		.4byte	.LASF140
 1921 04ca 04       		.byte	0x4
 1922 04cb 1E02     		.2byte	0x21e
 1923 04cd 97040000 		.4byte	0x497
 1924 04d1 04       		.byte	0x4
 1925 04d2 0A       		.uleb128 0xa
 1926 04d3 4A0B0000 		.4byte	.LASF141
 1927 04d7 04       		.byte	0x4
 1928 04d8 2602     		.2byte	0x226
 1929 04da 6B000000 		.4byte	0x6b
 1930 04de 05       		.byte	0x5
 1931 04df 0A       		.uleb128 0xa
 1932 04e0 060D0000 		.4byte	.LASF142
 1933 04e4 04       		.byte	0x4
 1934 04e5 2D02     		.2byte	0x22d
 1935 04e7 6B000000 		.4byte	0x6b
 1936 04eb 06       		.byte	0x6
 1937 04ec 0A       		.uleb128 0xa
 1938 04ed DE040000 		.4byte	.LASF143
 1939 04f1 04       		.byte	0x4
 1940 04f2 3302     		.2byte	0x233
 1941 04f4 7B030000 		.4byte	0x37b
 1942 04f8 07       		.byte	0x7
 1943 04f9 0A       		.uleb128 0xa
 1944 04fa 18010000 		.4byte	.LASF144
 1945 04fe 04       		.byte	0x4
 1946 04ff 3B02     		.2byte	0x23b
 1947 0501 6B000000 		.4byte	0x6b
 1948 0505 0D       		.byte	0xd
 1949 0506 0A       		.uleb128 0xa
 1950 0507 3E050000 		.4byte	.LASF145
 1951 050b 04       		.byte	0x4
 1952 050c 4702     		.2byte	0x247
 1953 050e 6B000000 		.4byte	0x6b
 1954 0512 0E       		.byte	0xe
 1955 0513 00       		.byte	0
 1956 0514 04       		.uleb128 0x4
 1957 0515 37100000 		.4byte	.LASF146
 1958 0519 04       		.byte	0x4
 1959 051a 4902     		.2byte	0x249
 1960 051c A2040000 		.4byte	0x4a2
 1961 0520 09       		.uleb128 0x9
 1962 0521 20       		.byte	0x20
 1963 0522 04       		.byte	0x4
 1964 0523 4C02     		.2byte	0x24c
 1965 0525 44050000 		.4byte	0x544
 1966 0529 0A       		.uleb128 0xa
 1967 052a BD0E0000 		.4byte	.LASF147
 1968 052e 04       		.byte	0x4
 1969 052f 4F02     		.2byte	0x24f
 1970 0531 44050000 		.4byte	0x544
 1971 0535 00       		.byte	0
 1972 0536 0A       		.uleb128 0xa
 1973 0537 3B070000 		.4byte	.LASF148
 1974 053b 04       		.byte	0x4
 1975 053c 5202     		.2byte	0x252
ARM GAS  C:\Users\sunyi\AppData\Local\Temp\ccXDbPBi.s 			page 61


 1976 053e 6B000000 		.4byte	0x6b
 1977 0542 1F       		.byte	0x1f
 1978 0543 00       		.byte	0
 1979 0544 0B       		.uleb128 0xb
 1980 0545 6B000000 		.4byte	0x6b
 1981 0549 54050000 		.4byte	0x554
 1982 054d 0C       		.uleb128 0xc
 1983 054e B5000000 		.4byte	0xb5
 1984 0552 1E       		.byte	0x1e
 1985 0553 00       		.byte	0
 1986 0554 04       		.uleb128 0x4
 1987 0555 BC000000 		.4byte	.LASF149
 1988 0559 04       		.byte	0x4
 1989 055a 5402     		.2byte	0x254
 1990 055c 20050000 		.4byte	0x520
 1991 0560 09       		.uleb128 0x9
 1992 0561 20       		.byte	0x20
 1993 0562 04       		.byte	0x4
 1994 0563 5702     		.2byte	0x257
 1995 0565 84050000 		.4byte	0x584
 1996 0569 0A       		.uleb128 0xa
 1997 056a FF050000 		.4byte	.LASF150
 1998 056e 04       		.byte	0x4
 1999 056f 5B02     		.2byte	0x25b
 2000 0571 44050000 		.4byte	0x544
 2001 0575 00       		.byte	0
 2002 0576 0A       		.uleb128 0xa
 2003 0577 C3090000 		.4byte	.LASF151
 2004 057b 04       		.byte	0x4
 2005 057c 5E02     		.2byte	0x25e
 2006 057e 6B000000 		.4byte	0x6b
 2007 0582 1F       		.byte	0x1f
 2008 0583 00       		.byte	0
 2009 0584 04       		.uleb128 0x4
 2010 0585 B6080000 		.4byte	.LASF152
 2011 0589 04       		.byte	0x4
 2012 058a 6002     		.2byte	0x260
 2013 058c 60050000 		.4byte	0x560
 2014 0590 09       		.uleb128 0x9
 2015 0591 14       		.byte	0x14
 2016 0592 04       		.byte	0x4
 2017 0593 6302     		.2byte	0x263
 2018 0595 DB050000 		.4byte	0x5db
 2019 0599 0A       		.uleb128 0xa
 2020 059a 57060000 		.4byte	.LASF153
 2021 059e 04       		.byte	0x4
 2022 059f 6B02     		.2byte	0x26b
 2023 05a1 6B000000 		.4byte	0x6b
 2024 05a5 00       		.byte	0
 2025 05a6 0A       		.uleb128 0xa
 2026 05a7 83110000 		.4byte	.LASF154
 2027 05ab 04       		.byte	0x4
 2028 05ac 6E02     		.2byte	0x26e
 2029 05ae DB050000 		.4byte	0x5db
 2030 05b2 04       		.byte	0x4
 2031 05b3 0A       		.uleb128 0xa
 2032 05b4 BD0E0000 		.4byte	.LASF147
ARM GAS  C:\Users\sunyi\AppData\Local\Temp\ccXDbPBi.s 			page 62


 2033 05b8 04       		.byte	0x4
 2034 05b9 7002     		.2byte	0x270
 2035 05bb E1050000 		.4byte	0x5e1
 2036 05bf 08       		.byte	0x8
 2037 05c0 0A       		.uleb128 0xa
 2038 05c1 FF050000 		.4byte	.LASF150
 2039 05c5 04       		.byte	0x4
 2040 05c6 7202     		.2byte	0x272
 2041 05c8 E7050000 		.4byte	0x5e7
 2042 05cc 0C       		.byte	0xc
 2043 05cd 0A       		.uleb128 0xa
 2044 05ce A3140000 		.4byte	.LASF155
 2045 05d2 04       		.byte	0x4
 2046 05d3 7C02     		.2byte	0x27c
 2047 05d5 77000000 		.4byte	0x77
 2048 05d9 10       		.byte	0x10
 2049 05da 00       		.byte	0
 2050 05db 0D       		.uleb128 0xd
 2051 05dc 04       		.byte	0x4
 2052 05dd 14050000 		.4byte	0x514
 2053 05e1 0D       		.uleb128 0xd
 2054 05e2 04       		.byte	0x4
 2055 05e3 54050000 		.4byte	0x554
 2056 05e7 0D       		.uleb128 0xd
 2057 05e8 04       		.byte	0x4
 2058 05e9 84050000 		.4byte	0x584
 2059 05ed 04       		.uleb128 0x4
 2060 05ee 67110000 		.4byte	.LASF156
 2061 05f2 04       		.byte	0x4
 2062 05f3 7E02     		.2byte	0x27e
 2063 05f5 90050000 		.4byte	0x590
 2064 05f9 0D       		.uleb128 0xd
 2065 05fa 04       		.byte	0x4
 2066 05fb 6B000000 		.4byte	0x6b
 2067 05ff 10       		.uleb128 0x10
 2068 0600 08       		.byte	0x8
 2069 0601 05       		.byte	0x5
 2070 0602 C3       		.byte	0xc3
 2071 0603 20060000 		.4byte	0x620
 2072 0607 11       		.uleb128 0x11
 2073 0608 F4090000 		.4byte	.LASF157
 2074 060c 05       		.byte	0x5
 2075 060d C6       		.byte	0xc6
 2076 060e 77000000 		.4byte	0x77
 2077 0612 00       		.byte	0
 2078 0613 11       		.uleb128 0x11
 2079 0614 720C0000 		.4byte	.LASF158
 2080 0618 05       		.byte	0x5
 2081 0619 CB       		.byte	0xcb
 2082 061a BC000000 		.4byte	0xbc
 2083 061e 04       		.byte	0x4
 2084 061f 00       		.byte	0
 2085 0620 0F       		.uleb128 0xf
 2086 0621 3D110000 		.4byte	.LASF159
 2087 0625 05       		.byte	0x5
 2088 0626 CD       		.byte	0xcd
 2089 0627 FF050000 		.4byte	0x5ff
ARM GAS  C:\Users\sunyi\AppData\Local\Temp\ccXDbPBi.s 			page 63


 2090 062b 10       		.uleb128 0x10
 2091 062c 08       		.byte	0x8
 2092 062d 05       		.byte	0x5
 2093 062e D0       		.byte	0xd0
 2094 062f 4C060000 		.4byte	0x64c
 2095 0633 11       		.uleb128 0x11
 2096 0634 95090000 		.4byte	.LASF160
 2097 0638 05       		.byte	0x5
 2098 0639 D3       		.byte	0xd3
 2099 063a 77000000 		.4byte	0x77
 2100 063e 00       		.byte	0
 2101 063f 11       		.uleb128 0x11
 2102 0640 39120000 		.4byte	.LASF161
 2103 0644 05       		.byte	0x5
 2104 0645 D8       		.byte	0xd8
 2105 0646 4C060000 		.4byte	0x64c
 2106 064a 04       		.byte	0x4
 2107 064b 00       		.byte	0
 2108 064c 0D       		.uleb128 0xd
 2109 064d 04       		.byte	0x4
 2110 064e 20060000 		.4byte	0x620
 2111 0652 0F       		.uleb128 0xf
 2112 0653 31060000 		.4byte	.LASF162
 2113 0657 05       		.byte	0x5
 2114 0658 DA       		.byte	0xda
 2115 0659 2B060000 		.4byte	0x62b
 2116 065d 12       		.uleb128 0x12
 2117 065e 08       		.byte	0x8
 2118 065f 05       		.byte	0x5
 2119 0660 DD       		.byte	0xdd
 2120 0661 7C060000 		.4byte	0x67c
 2121 0665 13       		.uleb128 0x13
 2122 0666 A7080000 		.4byte	.LASF163
 2123 066a 05       		.byte	0x5
 2124 066b E4       		.byte	0xe4
 2125 066c 52060000 		.4byte	0x652
 2126 0670 13       		.uleb128 0x13
 2127 0671 650C0000 		.4byte	.LASF164
 2128 0675 05       		.byte	0x5
 2129 0676 E7       		.byte	0xe7
 2130 0677 77000000 		.4byte	0x77
 2131 067b 00       		.byte	0
 2132 067c 0F       		.uleb128 0xf
 2133 067d 7E060000 		.4byte	.LASF165
 2134 0681 05       		.byte	0x5
 2135 0682 E9       		.byte	0xe9
 2136 0683 5D060000 		.4byte	0x65d
 2137 0687 10       		.uleb128 0x10
 2138 0688 14       		.byte	0x14
 2139 0689 05       		.byte	0x5
 2140 068a EC       		.byte	0xec
 2141 068b CE060000 		.4byte	0x6ce
 2142 068f 11       		.uleb128 0x11
 2143 0690 96060000 		.4byte	.LASF166
 2144 0694 05       		.byte	0x5
 2145 0695 EF       		.byte	0xef
 2146 0696 77000000 		.4byte	0x77
ARM GAS  C:\Users\sunyi\AppData\Local\Temp\ccXDbPBi.s 			page 64


 2147 069a 00       		.byte	0
 2148 069b 11       		.uleb128 0x11
 2149 069c 33070000 		.4byte	.LASF167
 2150 06a0 05       		.byte	0x5
 2151 06a1 F5       		.byte	0xf5
 2152 06a2 77000000 		.4byte	0x77
 2153 06a6 02       		.byte	0x2
 2154 06a7 11       		.uleb128 0x11
 2155 06a8 00050000 		.4byte	.LASF168
 2156 06ac 05       		.byte	0x5
 2157 06ad FF       		.byte	0xff
 2158 06ae 83000000 		.4byte	0x83
 2159 06b2 04       		.byte	0x4
 2160 06b3 0A       		.uleb128 0xa
 2161 06b4 F60F0000 		.4byte	.LASF169
 2162 06b8 05       		.byte	0x5
 2163 06b9 0201     		.2byte	0x102
 2164 06bb 77000000 		.4byte	0x77
 2165 06bf 08       		.byte	0x8
 2166 06c0 0A       		.uleb128 0xa
 2167 06c1 6D0D0000 		.4byte	.LASF170
 2168 06c5 05       		.byte	0x5
 2169 06c6 0B01     		.2byte	0x10b
 2170 06c8 7C060000 		.4byte	0x67c
 2171 06cc 0C       		.byte	0xc
 2172 06cd 00       		.byte	0
 2173 06ce 04       		.uleb128 0x4
 2174 06cf EF100000 		.4byte	.LASF171
 2175 06d3 05       		.byte	0x5
 2176 06d4 0C01     		.2byte	0x10c
 2177 06d6 87060000 		.4byte	0x687
 2178 06da 04       		.uleb128 0x4
 2179 06db 2C110000 		.4byte	.LASF172
 2180 06df 06       		.byte	0x6
 2181 06e0 E601     		.2byte	0x1e6
 2182 06e2 E6060000 		.4byte	0x6e6
 2183 06e6 0D       		.uleb128 0xd
 2184 06e7 04       		.byte	0x4
 2185 06e8 EC060000 		.4byte	0x6ec
 2186 06ec 14       		.uleb128 0x14
 2187 06ed FC060000 		.4byte	0x6fc
 2188 06f1 15       		.uleb128 0x15
 2189 06f2 83000000 		.4byte	0x83
 2190 06f6 15       		.uleb128 0x15
 2191 06f7 BC000000 		.4byte	0xbc
 2192 06fb 00       		.byte	0
 2193 06fc 07       		.uleb128 0x7
 2194 06fd 01       		.byte	0x1
 2195 06fe 07       		.byte	0x7
 2196 06ff BF07     		.2byte	0x7bf
 2197 0701 24070000 		.4byte	0x724
 2198 0705 08       		.uleb128 0x8
 2199 0706 3F000000 		.4byte	.LASF173
 2200 070a 00       		.sleb128 0
 2201 070b 08       		.uleb128 0x8
 2202 070c 310B0000 		.4byte	.LASF174
 2203 0710 01       		.sleb128 1
ARM GAS  C:\Users\sunyi\AppData\Local\Temp\ccXDbPBi.s 			page 65


 2204 0711 08       		.uleb128 0x8
 2205 0712 F0120000 		.4byte	.LASF175
 2206 0716 02       		.sleb128 2
 2207 0717 08       		.uleb128 0x8
 2208 0718 5A040000 		.4byte	.LASF176
 2209 071c 03       		.sleb128 3
 2210 071d 08       		.uleb128 0x8
 2211 071e 77050000 		.4byte	.LASF177
 2212 0722 04       		.sleb128 4
 2213 0723 00       		.byte	0
 2214 0724 04       		.uleb128 0x4
 2215 0725 AA110000 		.4byte	.LASF178
 2216 0729 07       		.byte	0x7
 2217 072a CD07     		.2byte	0x7cd
 2218 072c FC060000 		.4byte	0x6fc
 2219 0730 16       		.uleb128 0x16
 2220 0731 4E140000 		.4byte	.LASF179
 2221 0735 01       		.byte	0x1
 2222 0736 98       		.byte	0x98
 2223 0737 00000000 		.4byte	.LFB2
 2224 073b 2C000000 		.4byte	.LFE2-.LFB2
 2225 073f 01       		.uleb128 0x1
 2226 0740 9C       		.byte	0x9c
 2227 0741 16       		.uleb128 0x16
 2228 0742 E5070000 		.4byte	.LASF180
 2229 0746 01       		.byte	0x1
 2230 0747 C9       		.byte	0xc9
 2231 0748 00000000 		.4byte	.LFB3
 2232 074c 10000000 		.4byte	.LFE3-.LFB3
 2233 0750 01       		.uleb128 0x1
 2234 0751 9C       		.byte	0x9c
 2235 0752 17       		.uleb128 0x17
 2236 0753 D2090000 		.4byte	.LASF188
 2237 0757 01       		.byte	0x1
 2238 0758 8F01     		.2byte	0x18f
 2239 075a 4B030000 		.4byte	0x34b
 2240 075e 00000000 		.4byte	.LFB4
 2241 0762 2C010000 		.4byte	.LFE4-.LFB4
 2242 0766 01       		.uleb128 0x1
 2243 0767 9C       		.byte	0x9c
 2244 0768 E2070000 		.4byte	0x7e2
 2245 076c 18       		.uleb128 0x18
 2246 076d 600D0000 		.4byte	.LASF190
 2247 0771 01       		.byte	0x1
 2248 0772 8F01     		.2byte	0x18f
 2249 0774 DA060000 		.4byte	0x6da
 2250 0778 03       		.uleb128 0x3
 2251 0779 91       		.byte	0x91
 2252 077a B47F     		.sleb128 -76
 2253 077c 19       		.uleb128 0x19
 2254 077d FE0B0000 		.4byte	.LASF181
 2255 0781 01       		.byte	0x1
 2256 0782 9101     		.2byte	0x191
 2257 0784 4B030000 		.4byte	0x34b
 2258 0788 02       		.uleb128 0x2
 2259 0789 91       		.byte	0x91
 2260 078a 6E       		.sleb128 -18
ARM GAS  C:\Users\sunyi\AppData\Local\Temp\ccXDbPBi.s 			page 66


 2261 078b 19       		.uleb128 0x19
 2262 078c 560F0000 		.4byte	.LASF182
 2263 0790 01       		.byte	0x1
 2264 0791 9501     		.2byte	0x195
 2265 0793 E2070000 		.4byte	0x7e2
 2266 0797 02       		.uleb128 0x2
 2267 0798 91       		.byte	0x91
 2268 0799 58       		.sleb128 -40
 2269 079a 1A       		.uleb128 0x1a
 2270 079b 4E000000 		.4byte	.LBB2
 2271 079f 54000000 		.4byte	.LBE2-.LBB2
 2272 07a3 19       		.uleb128 0x19
 2273 07a4 87000000 		.4byte	.LASF183
 2274 07a8 01       		.byte	0x1
 2275 07a9 B701     		.2byte	0x1b7
 2276 07ab F8030000 		.4byte	0x3f8
 2277 07af 02       		.uleb128 0x2
 2278 07b0 91       		.byte	0x91
 2279 07b1 50       		.sleb128 -48
 2280 07b2 19       		.uleb128 0x19
 2281 07b3 93080000 		.4byte	.LASF184
 2282 07b7 01       		.byte	0x1
 2283 07b8 B801     		.2byte	0x1b8
 2284 07ba 1B040000 		.4byte	0x41b
 2285 07be 02       		.uleb128 0x2
 2286 07bf 91       		.byte	0x91
 2287 07c0 4C       		.sleb128 -52
 2288 07c1 19       		.uleb128 0x19
 2289 07c2 4A120000 		.4byte	.LASF185
 2290 07c6 01       		.byte	0x1
 2291 07c7 B901     		.2byte	0x1b9
 2292 07c9 64040000 		.4byte	0x464
 2293 07cd 02       		.uleb128 0x2
 2294 07ce 91       		.byte	0x91
 2295 07cf 40       		.sleb128 -64
 2296 07d0 19       		.uleb128 0x19
 2297 07d1 590E0000 		.4byte	.LASF186
 2298 07d5 01       		.byte	0x1
 2299 07d6 BA01     		.2byte	0x1ba
 2300 07d8 77000000 		.4byte	0x77
 2301 07dc 03       		.uleb128 0x3
 2302 07dd 91       		.byte	0x91
 2303 07de BE7F     		.sleb128 -66
 2304 07e0 00       		.byte	0
 2305 07e1 00       		.byte	0
 2306 07e2 0B       		.uleb128 0xb
 2307 07e3 BB030000 		.4byte	0x3bb
 2308 07e7 F2070000 		.4byte	0x7f2
 2309 07eb 0C       		.uleb128 0xc
 2310 07ec B5000000 		.4byte	0xb5
 2311 07f0 04       		.byte	0x4
 2312 07f1 00       		.byte	0
 2313 07f2 1B       		.uleb128 0x1b
 2314 07f3 1B0C0000 		.4byte	.LASF187
 2315 07f7 01       		.byte	0x1
 2316 07f8 0902     		.2byte	0x209
 2317 07fa 00000000 		.4byte	.LFB5
ARM GAS  C:\Users\sunyi\AppData\Local\Temp\ccXDbPBi.s 			page 67


 2318 07fe 18000000 		.4byte	.LFE5-.LFB5
 2319 0802 01       		.uleb128 0x1
 2320 0803 9C       		.byte	0x9c
 2321 0804 17       		.uleb128 0x17
 2322 0805 E90C0000 		.4byte	.LASF189
 2323 0809 01       		.byte	0x1
 2324 080a 0503     		.2byte	0x305
 2325 080c 4B030000 		.4byte	0x34b
 2326 0810 00000000 		.4byte	.LFB6
 2327 0814 D4000000 		.4byte	.LFE6-.LFB6
 2328 0818 01       		.uleb128 0x1
 2329 0819 9C       		.byte	0x9c
 2330 081a 3D080000 		.4byte	0x83d
 2331 081e 18       		.uleb128 0x18
 2332 081f D10F0000 		.4byte	.LASF191
 2333 0823 01       		.byte	0x1
 2334 0824 0503     		.2byte	0x305
 2335 0826 6B000000 		.4byte	0x6b
 2336 082a 02       		.uleb128 0x2
 2337 082b 91       		.byte	0x91
 2338 082c 67       		.sleb128 -25
 2339 082d 19       		.uleb128 0x19
 2340 082e FE0B0000 		.4byte	.LASF181
 2341 0832 01       		.byte	0x1
 2342 0833 0703     		.2byte	0x307
 2343 0835 4B030000 		.4byte	0x34b
 2344 0839 02       		.uleb128 0x2
 2345 083a 91       		.byte	0x91
 2346 083b 6E       		.sleb128 -18
 2347 083c 00       		.byte	0
 2348 083d 1B       		.uleb128 0x1b
 2349 083e B7020000 		.4byte	.LASF192
 2350 0842 01       		.byte	0x1
 2351 0843 4203     		.2byte	0x342
 2352 0845 00000000 		.4byte	.LFB7
 2353 0849 20000000 		.4byte	.LFE7-.LFB7
 2354 084d 01       		.uleb128 0x1
 2355 084e 9C       		.byte	0x9c
 2356 084f 1C       		.uleb128 0x1c
 2357 0850 1E0E0000 		.4byte	.LASF204
 2358 0854 01       		.byte	0x1
 2359 0855 5803     		.2byte	0x358
 2360 0857 00000000 		.4byte	.LFB8
 2361 085b 60000000 		.4byte	.LFE8-.LFB8
 2362 085f 01       		.uleb128 0x1
 2363 0860 9C       		.byte	0x9c
 2364 0861 A0080000 		.4byte	0x8a0
 2365 0865 18       		.uleb128 0x18
 2366 0866 0B060000 		.4byte	.LASF116
 2367 086a 01       		.byte	0x1
 2368 086b 5803     		.2byte	0x358
 2369 086d A0080000 		.4byte	0x8a0
 2370 0871 02       		.uleb128 0x2
 2371 0872 91       		.byte	0x91
 2372 0873 6C       		.sleb128 -20
 2373 0874 18       		.uleb128 0x18
 2374 0875 600C0000 		.4byte	.LASF193
ARM GAS  C:\Users\sunyi\AppData\Local\Temp\ccXDbPBi.s 			page 68


 2375 0879 01       		.byte	0x1
 2376 087a 5803     		.2byte	0x358
 2377 087c 6B000000 		.4byte	0x6b
 2378 0880 02       		.uleb128 0x2
 2379 0881 91       		.byte	0x91
 2380 0882 6B       		.sleb128 -21
 2381 0883 1D       		.uleb128 0x1d
 2382 0884 6900     		.ascii	"i\000"
 2383 0886 01       		.byte	0x1
 2384 0887 5A03     		.2byte	0x35a
 2385 0889 6B000000 		.4byte	0x6b
 2386 088d 02       		.uleb128 0x2
 2387 088e 91       		.byte	0x91
 2388 088f 77       		.sleb128 -9
 2389 0890 19       		.uleb128 0x19
 2390 0891 A7060000 		.4byte	.LASF194
 2391 0895 01       		.byte	0x1
 2392 0896 5B03     		.2byte	0x35b
 2393 0898 F9050000 		.4byte	0x5f9
 2394 089c 02       		.uleb128 0x2
 2395 089d 91       		.byte	0x91
 2396 089e 70       		.sleb128 -16
 2397 089f 00       		.byte	0
 2398 08a0 0D       		.uleb128 0xd
 2399 08a1 04       		.byte	0x4
 2400 08a2 A6080000 		.4byte	0x8a6
 2401 08a6 1E       		.uleb128 0x1e
 2402 08a7 8B030000 		.4byte	0x38b
 2403 08ab 1F       		.uleb128 0x1f
 2404 08ac D80E0000 		.4byte	.LASF224
 2405 08b0 01       		.byte	0x1
 2406 08b1 9704     		.2byte	0x497
 2407 08b3 00000000 		.4byte	.LFB9
 2408 08b7 A4010000 		.4byte	.LFE9-.LFB9
 2409 08bb 01       		.uleb128 0x1
 2410 08bc 9C       		.byte	0x9c
 2411 08bd 38090000 		.4byte	0x938
 2412 08c1 18       		.uleb128 0x18
 2413 08c2 8E080000 		.4byte	.LASF195
 2414 08c6 01       		.byte	0x1
 2415 08c7 9704     		.2byte	0x497
 2416 08c9 38090000 		.4byte	0x938
 2417 08cd 02       		.uleb128 0x2
 2418 08ce 91       		.byte	0x91
 2419 08cf 64       		.sleb128 -28
 2420 08d0 18       		.uleb128 0x18
 2421 08d1 600C0000 		.4byte	.LASF193
 2422 08d5 01       		.byte	0x1
 2423 08d6 9704     		.2byte	0x497
 2424 08d8 6B000000 		.4byte	0x6b
 2425 08dc 02       		.uleb128 0x2
 2426 08dd 91       		.byte	0x91
 2427 08de 63       		.sleb128 -29
 2428 08df 1D       		.uleb128 0x1d
 2429 08e0 6900     		.ascii	"i\000"
 2430 08e2 01       		.byte	0x1
 2431 08e3 9904     		.2byte	0x499
ARM GAS  C:\Users\sunyi\AppData\Local\Temp\ccXDbPBi.s 			page 69


 2432 08e5 6B000000 		.4byte	0x6b
 2433 08e9 02       		.uleb128 0x2
 2434 08ea 91       		.byte	0x91
 2435 08eb 77       		.sleb128 -9
 2436 08ec 19       		.uleb128 0x19
 2437 08ed 3A0E0000 		.4byte	.LASF196
 2438 08f1 01       		.byte	0x1
 2439 08f2 9A04     		.2byte	0x49a
 2440 08f4 6B000000 		.4byte	0x6b
 2441 08f8 02       		.uleb128 0x2
 2442 08f9 91       		.byte	0x91
 2443 08fa 76       		.sleb128 -10
 2444 08fb 19       		.uleb128 0x19
 2445 08fc A60F0000 		.4byte	.LASF197
 2446 0900 01       		.byte	0x1
 2447 0901 9B04     		.2byte	0x49b
 2448 0903 6B000000 		.4byte	0x6b
 2449 0907 02       		.uleb128 0x2
 2450 0908 91       		.byte	0x91
 2451 0909 75       		.sleb128 -11
 2452 090a 19       		.uleb128 0x19
 2453 090b 5B110000 		.4byte	.LASF198
 2454 090f 01       		.byte	0x1
 2455 0910 9C04     		.2byte	0x49c
 2456 0912 6B000000 		.4byte	0x6b
 2457 0916 02       		.uleb128 0x2
 2458 0917 91       		.byte	0x91
 2459 0918 74       		.sleb128 -12
 2460 0919 19       		.uleb128 0x19
 2461 091a A7060000 		.4byte	.LASF194
 2462 091e 01       		.byte	0x1
 2463 091f 9D04     		.2byte	0x49d
 2464 0921 F9050000 		.4byte	0x5f9
 2465 0925 02       		.uleb128 0x2
 2466 0926 91       		.byte	0x91
 2467 0927 70       		.sleb128 -16
 2468 0928 19       		.uleb128 0x19
 2469 0929 6A0F0000 		.4byte	.LASF199
 2470 092d 01       		.byte	0x1
 2471 092e 9E04     		.2byte	0x49e
 2472 0930 6B000000 		.4byte	0x6b
 2473 0934 02       		.uleb128 0x2
 2474 0935 91       		.byte	0x91
 2475 0936 6F       		.sleb128 -17
 2476 0937 00       		.byte	0
 2477 0938 0D       		.uleb128 0xd
 2478 0939 04       		.byte	0x4
 2479 093a 3E090000 		.4byte	0x93e
 2480 093e 1E       		.uleb128 0x1e
 2481 093f 9D000000 		.4byte	0x9d
 2482 0943 17       		.uleb128 0x17
 2483 0944 700B0000 		.4byte	.LASF200
 2484 0948 01       		.byte	0x1
 2485 0949 FC04     		.2byte	0x4fc
 2486 094b 4B030000 		.4byte	0x34b
 2487 094f 00000000 		.4byte	.LFB10
 2488 0953 C8000000 		.4byte	.LFE10-.LFB10
ARM GAS  C:\Users\sunyi\AppData\Local\Temp\ccXDbPBi.s 			page 70


 2489 0957 01       		.uleb128 0x1
 2490 0958 9C       		.byte	0x9c
 2491 0959 A7090000 		.4byte	0x9a7
 2492 095d 18       		.uleb128 0x18
 2493 095e 8E080000 		.4byte	.LASF195
 2494 0962 01       		.byte	0x1
 2495 0963 FC04     		.2byte	0x4fc
 2496 0965 38090000 		.4byte	0x938
 2497 0969 02       		.uleb128 0x2
 2498 096a 91       		.byte	0x91
 2499 096b 64       		.sleb128 -28
 2500 096c 19       		.uleb128 0x19
 2501 096d FE0B0000 		.4byte	.LASF181
 2502 0971 01       		.byte	0x1
 2503 0972 FE04     		.2byte	0x4fe
 2504 0974 4B030000 		.4byte	0x34b
 2505 0978 02       		.uleb128 0x2
 2506 0979 91       		.byte	0x91
 2507 097a 76       		.sleb128 -10
 2508 097b 1D       		.uleb128 0x1d
 2509 097c 6900     		.ascii	"i\000"
 2510 097e 01       		.byte	0x1
 2511 097f FF04     		.2byte	0x4ff
 2512 0981 6B000000 		.4byte	0x6b
 2513 0985 02       		.uleb128 0x2
 2514 0986 91       		.byte	0x91
 2515 0987 75       		.sleb128 -11
 2516 0988 1D       		.uleb128 0x1d
 2517 0989 70747200 		.ascii	"ptr\000"
 2518 098d 01       		.byte	0x1
 2519 098e 0005     		.2byte	0x500
 2520 0990 A7090000 		.4byte	0x9a7
 2521 0994 02       		.uleb128 0x2
 2522 0995 91       		.byte	0x91
 2523 0996 70       		.sleb128 -16
 2524 0997 19       		.uleb128 0x19
 2525 0998 680A0000 		.4byte	.LASF201
 2526 099c 01       		.byte	0x1
 2527 099d 0105     		.2byte	0x501
 2528 099f 6B000000 		.4byte	0x6b
 2529 09a3 02       		.uleb128 0x2
 2530 09a4 91       		.byte	0x91
 2531 09a5 6F       		.sleb128 -17
 2532 09a6 00       		.byte	0
 2533 09a7 0D       		.uleb128 0xd
 2534 09a8 04       		.byte	0x4
 2535 09a9 9D000000 		.4byte	0x9d
 2536 09ad 20       		.uleb128 0x20
 2537 09ae DE090000 		.4byte	.LASF202
 2538 09b2 01       		.byte	0x1
 2539 09b3 4405     		.2byte	0x544
 2540 09b5 4B030000 		.4byte	0x34b
 2541 09b9 00000000 		.4byte	.LFB11
 2542 09bd A4000000 		.4byte	.LFE11-.LFB11
 2543 09c1 01       		.uleb128 0x1
 2544 09c2 9C       		.byte	0x9c
 2545 09c3 110A0000 		.4byte	0xa11
ARM GAS  C:\Users\sunyi\AppData\Local\Temp\ccXDbPBi.s 			page 71


 2546 09c7 18       		.uleb128 0x18
 2547 09c8 8E080000 		.4byte	.LASF195
 2548 09cc 01       		.byte	0x1
 2549 09cd 4405     		.2byte	0x544
 2550 09cf A7090000 		.4byte	0x9a7
 2551 09d3 02       		.uleb128 0x2
 2552 09d4 91       		.byte	0x91
 2553 09d5 64       		.sleb128 -28
 2554 09d6 19       		.uleb128 0x19
 2555 09d7 FE0B0000 		.4byte	.LASF181
 2556 09db 01       		.byte	0x1
 2557 09dc 4605     		.2byte	0x546
 2558 09de 4B030000 		.4byte	0x34b
 2559 09e2 02       		.uleb128 0x2
 2560 09e3 91       		.byte	0x91
 2561 09e4 76       		.sleb128 -10
 2562 09e5 19       		.uleb128 0x19
 2563 09e6 680A0000 		.4byte	.LASF201
 2564 09ea 01       		.byte	0x1
 2565 09eb 4705     		.2byte	0x547
 2566 09ed 6B000000 		.4byte	0x6b
 2567 09f1 02       		.uleb128 0x2
 2568 09f2 91       		.byte	0x91
 2569 09f3 6F       		.sleb128 -17
 2570 09f4 1D       		.uleb128 0x1d
 2571 09f5 6900     		.ascii	"i\000"
 2572 09f7 01       		.byte	0x1
 2573 09f8 4805     		.2byte	0x548
 2574 09fa 6B000000 		.4byte	0x6b
 2575 09fe 02       		.uleb128 0x2
 2576 09ff 91       		.byte	0x91
 2577 0a00 75       		.sleb128 -11
 2578 0a01 1D       		.uleb128 0x1d
 2579 0a02 70747200 		.ascii	"ptr\000"
 2580 0a06 01       		.byte	0x1
 2581 0a07 4905     		.2byte	0x549
 2582 0a09 A7090000 		.4byte	0x9a7
 2583 0a0d 02       		.uleb128 0x2
 2584 0a0e 91       		.byte	0x91
 2585 0a0f 70       		.sleb128 -16
 2586 0a10 00       		.byte	0
 2587 0a11 20       		.uleb128 0x20
 2588 0a12 FE130000 		.4byte	.LASF203
 2589 0a16 01       		.byte	0x1
 2590 0a17 7605     		.2byte	0x576
 2591 0a19 77000000 		.4byte	0x77
 2592 0a1d 00000000 		.4byte	.LFB12
 2593 0a21 26000000 		.4byte	.LFE12-.LFB12
 2594 0a25 01       		.uleb128 0x1
 2595 0a26 9C       		.byte	0x9c
 2596 0a27 3B0A0000 		.4byte	0xa3b
 2597 0a2b 21       		.uleb128 0x21
 2598 0a2c 70747200 		.ascii	"ptr\000"
 2599 0a30 01       		.byte	0x1
 2600 0a31 7605     		.2byte	0x576
 2601 0a33 3B0A0000 		.4byte	0xa3b
 2602 0a37 02       		.uleb128 0x2
ARM GAS  C:\Users\sunyi\AppData\Local\Temp\ccXDbPBi.s 			page 72


 2603 0a38 91       		.byte	0x91
 2604 0a39 74       		.sleb128 -12
 2605 0a3a 00       		.byte	0
 2606 0a3b 0D       		.uleb128 0xd
 2607 0a3c 04       		.byte	0x4
 2608 0a3d 410A0000 		.4byte	0xa41
 2609 0a41 1E       		.uleb128 0x1e
 2610 0a42 6B000000 		.4byte	0x6b
 2611 0a46 1C       		.uleb128 0x1c
 2612 0a47 A3090000 		.4byte	.LASF205
 2613 0a4b 01       		.byte	0x1
 2614 0a4c 8905     		.2byte	0x589
 2615 0a4e 00000000 		.4byte	.LFB13
 2616 0a52 2E000000 		.4byte	.LFE13-.LFB13
 2617 0a56 01       		.uleb128 0x1
 2618 0a57 9C       		.byte	0x9c
 2619 0a58 7B0A0000 		.4byte	0xa7b
 2620 0a5c 21       		.uleb128 0x21
 2621 0a5d 70747200 		.ascii	"ptr\000"
 2622 0a61 01       		.byte	0x1
 2623 0a62 8905     		.2byte	0x589
 2624 0a64 F9050000 		.4byte	0x5f9
 2625 0a68 02       		.uleb128 0x2
 2626 0a69 91       		.byte	0x91
 2627 0a6a 74       		.sleb128 -12
 2628 0a6b 18       		.uleb128 0x18
 2629 0a6c 5D070000 		.4byte	.LASF206
 2630 0a70 01       		.byte	0x1
 2631 0a71 8905     		.2byte	0x589
 2632 0a73 77000000 		.4byte	0x77
 2633 0a77 02       		.uleb128 0x2
 2634 0a78 91       		.byte	0x91
 2635 0a79 72       		.sleb128 -14
 2636 0a7a 00       		.byte	0
 2637 0a7b 22       		.uleb128 0x22
 2638 0a7c C50E0000 		.4byte	.LASF207
 2639 0a80 01       		.byte	0x1
 2640 0a81 89       		.byte	0x89
 2641 0a82 DA060000 		.4byte	0x6da
 2642 0a86 05       		.uleb128 0x5
 2643 0a87 03       		.byte	0x3
 2644 0a88 00000000 		.4byte	CyBle_ApplCallback
 2645 0a8c 22       		.uleb128 0x22
 2646 0a8d 44090000 		.4byte	.LASF208
 2647 0a91 01       		.byte	0x1
 2648 0a92 2B       		.byte	0x2b
 2649 0a93 6B000000 		.4byte	0x6b
 2650 0a97 05       		.uleb128 0x5
 2651 0a98 03       		.byte	0x3
 2652 0a99 00000000 		.4byte	cyBle_initVar
 2653 0a9d 0B       		.uleb128 0xb
 2654 0a9e 6B000000 		.4byte	0x6b
 2655 0aa2 AE0A0000 		.4byte	0xaae
 2656 0aa6 23       		.uleb128 0x23
 2657 0aa7 B5000000 		.4byte	0xb5
 2658 0aab DF0A     		.2byte	0xadf
 2659 0aad 00       		.byte	0
ARM GAS  C:\Users\sunyi\AppData\Local\Temp\ccXDbPBi.s 			page 73


 2660 0aae 22       		.uleb128 0x22
 2661 0aaf 0D020000 		.4byte	.LASF209
 2662 0ab3 01       		.byte	0x1
 2663 0ab4 36       		.byte	0x36
 2664 0ab5 9D0A0000 		.4byte	0xa9d
 2665 0ab9 05       		.uleb128 0x5
 2666 0aba 03       		.byte	0x3
 2667 0abb 00000000 		.4byte	cyBle_stackMemoryRam
 2668 0abf 24       		.uleb128 0x24
 2669 0ac0 B00A0000 		.4byte	.LASF210
 2670 0ac4 06       		.byte	0x6
 2671 0ac5 8602     		.2byte	0x286
 2672 0ac7 B0000000 		.4byte	0xb0
 2673 0acb 22       		.uleb128 0x22
 2674 0acc 56120000 		.4byte	.LASF211
 2675 0ad0 01       		.byte	0x1
 2676 0ad1 8A       		.byte	0x8a
 2677 0ad2 8B030000 		.4byte	0x38b
 2678 0ad6 05       		.uleb128 0x5
 2679 0ad7 03       		.byte	0x3
 2680 0ad8 00000000 		.4byte	cyBle_deviceAddress
 2681 0adc 22       		.uleb128 0x22
 2682 0add D6120000 		.4byte	.LASF212
 2683 0ae1 01       		.byte	0x1
 2684 0ae2 8B       		.byte	0x8b
 2685 0ae3 ED0A0000 		.4byte	0xaed
 2686 0ae7 05       		.uleb128 0x5
 2687 0ae8 03       		.byte	0x3
 2688 0ae9 00000000 		.4byte	cyBle_sflashDeviceAddress
 2689 0aed 0D       		.uleb128 0xd
 2690 0aee 04       		.byte	0x4
 2691 0aef 8B030000 		.4byte	0x38b
 2692 0af3 22       		.uleb128 0x22
 2693 0af4 72000000 		.4byte	.LASF213
 2694 0af8 01       		.byte	0x1
 2695 0af9 3C       		.byte	0x3c
 2696 0afa 14050000 		.4byte	0x514
 2697 0afe 05       		.uleb128 0x5
 2698 0aff 03       		.byte	0x3
 2699 0b00 00000000 		.4byte	cyBle_discoveryParam
 2700 0b04 22       		.uleb128 0x22
 2701 0b05 D3020000 		.4byte	.LASF214
 2702 0b09 01       		.byte	0x1
 2703 0b0a 48       		.byte	0x48
 2704 0b0b 54050000 		.4byte	0x554
 2705 0b0f 05       		.uleb128 0x5
 2706 0b10 03       		.byte	0x3
 2707 0b11 00000000 		.4byte	cyBle_discoveryData
 2708 0b15 22       		.uleb128 0x22
 2709 0b16 6A120000 		.4byte	.LASF215
 2710 0b1a 01       		.byte	0x1
 2711 0b1b 51       		.byte	0x51
 2712 0b1c 84050000 		.4byte	0x584
 2713 0b20 05       		.uleb128 0x5
 2714 0b21 03       		.byte	0x3
 2715 0b22 00000000 		.4byte	cyBle_scanRspData
 2716 0b26 22       		.uleb128 0x22
ARM GAS  C:\Users\sunyi\AppData\Local\Temp\ccXDbPBi.s 			page 74


 2717 0b27 100B0000 		.4byte	.LASF216
 2718 0b2b 01       		.byte	0x1
 2719 0b2c 61       		.byte	0x61
 2720 0b2d ED050000 		.4byte	0x5ed
 2721 0b31 05       		.uleb128 0x5
 2722 0b32 03       		.byte	0x3
 2723 0b33 00000000 		.4byte	cyBle_discoveryModeInfo
 2724 0b37 0B       		.uleb128 0xb
 2725 0b38 CE060000 		.4byte	0x6ce
 2726 0b3c 470B0000 		.4byte	0xb47
 2727 0b40 0C       		.uleb128 0xc
 2728 0b41 B5000000 		.4byte	0xb5
 2729 0b45 11       		.byte	0x11
 2730 0b46 00       		.byte	0
 2731 0b47 25       		.uleb128 0x25
 2732 0b48 740F0000 		.4byte	.LASF217
 2733 0b4c 08       		.byte	0x8
 2734 0b4d EA       		.byte	0xea
 2735 0b4e 520B0000 		.4byte	0xb52
 2736 0b52 1E       		.uleb128 0x1e
 2737 0b53 370B0000 		.4byte	0xb37
 2738 0b57 24       		.uleb128 0x24
 2739 0b58 010A0000 		.4byte	.LASF218
 2740 0b5c 07       		.byte	0x7
 2741 0b5d DA09     		.2byte	0x9da
 2742 0b5f 24070000 		.4byte	0x724
 2743 0b63 24       		.uleb128 0x24
 2744 0b64 6B030000 		.4byte	.LASF219
 2745 0b68 07       		.byte	0x7
 2746 0b69 DC09     		.2byte	0x9dc
 2747 0b6b B0000000 		.4byte	0xb0
 2748 0b6f 24       		.uleb128 0x24
 2749 0b70 CB0C0000 		.4byte	.LASF220
 2750 0b74 07       		.byte	0x7
 2751 0b75 DF09     		.2byte	0x9df
 2752 0b77 6B000000 		.4byte	0x6b
 2753 0b7b 00       		.byte	0
 2754              		.section	.debug_abbrev,"",%progbits
 2755              	.Ldebug_abbrev0:
 2756 0000 01       		.uleb128 0x1
 2757 0001 11       		.uleb128 0x11
 2758 0002 01       		.byte	0x1
 2759 0003 25       		.uleb128 0x25
 2760 0004 0E       		.uleb128 0xe
 2761 0005 13       		.uleb128 0x13
 2762 0006 0B       		.uleb128 0xb
 2763 0007 03       		.uleb128 0x3
 2764 0008 0E       		.uleb128 0xe
 2765 0009 1B       		.uleb128 0x1b
 2766 000a 0E       		.uleb128 0xe
 2767 000b 55       		.uleb128 0x55
 2768 000c 17       		.uleb128 0x17
 2769 000d 11       		.uleb128 0x11
 2770 000e 01       		.uleb128 0x1
 2771 000f 10       		.uleb128 0x10
 2772 0010 17       		.uleb128 0x17
 2773 0011 00       		.byte	0
ARM GAS  C:\Users\sunyi\AppData\Local\Temp\ccXDbPBi.s 			page 75


 2774 0012 00       		.byte	0
 2775 0013 02       		.uleb128 0x2
 2776 0014 24       		.uleb128 0x24
 2777 0015 00       		.byte	0
 2778 0016 0B       		.uleb128 0xb
 2779 0017 0B       		.uleb128 0xb
 2780 0018 3E       		.uleb128 0x3e
 2781 0019 0B       		.uleb128 0xb
 2782 001a 03       		.uleb128 0x3
 2783 001b 0E       		.uleb128 0xe
 2784 001c 00       		.byte	0
 2785 001d 00       		.byte	0
 2786 001e 03       		.uleb128 0x3
 2787 001f 24       		.uleb128 0x24
 2788 0020 00       		.byte	0
 2789 0021 0B       		.uleb128 0xb
 2790 0022 0B       		.uleb128 0xb
 2791 0023 3E       		.uleb128 0x3e
 2792 0024 0B       		.uleb128 0xb
 2793 0025 03       		.uleb128 0x3
 2794 0026 08       		.uleb128 0x8
 2795 0027 00       		.byte	0
 2796 0028 00       		.byte	0
 2797 0029 04       		.uleb128 0x4
 2798 002a 16       		.uleb128 0x16
 2799 002b 00       		.byte	0
 2800 002c 03       		.uleb128 0x3
 2801 002d 0E       		.uleb128 0xe
 2802 002e 3A       		.uleb128 0x3a
 2803 002f 0B       		.uleb128 0xb
 2804 0030 3B       		.uleb128 0x3b
 2805 0031 05       		.uleb128 0x5
 2806 0032 49       		.uleb128 0x49
 2807 0033 13       		.uleb128 0x13
 2808 0034 00       		.byte	0
 2809 0035 00       		.byte	0
 2810 0036 05       		.uleb128 0x5
 2811 0037 35       		.uleb128 0x35
 2812 0038 00       		.byte	0
 2813 0039 49       		.uleb128 0x49
 2814 003a 13       		.uleb128 0x13
 2815 003b 00       		.byte	0
 2816 003c 00       		.byte	0
 2817 003d 06       		.uleb128 0x6
 2818 003e 0F       		.uleb128 0xf
 2819 003f 00       		.byte	0
 2820 0040 0B       		.uleb128 0xb
 2821 0041 0B       		.uleb128 0xb
 2822 0042 00       		.byte	0
 2823 0043 00       		.byte	0
 2824 0044 07       		.uleb128 0x7
 2825 0045 04       		.uleb128 0x4
 2826 0046 01       		.byte	0x1
 2827 0047 0B       		.uleb128 0xb
 2828 0048 0B       		.uleb128 0xb
 2829 0049 3A       		.uleb128 0x3a
 2830 004a 0B       		.uleb128 0xb
ARM GAS  C:\Users\sunyi\AppData\Local\Temp\ccXDbPBi.s 			page 76


 2831 004b 3B       		.uleb128 0x3b
 2832 004c 05       		.uleb128 0x5
 2833 004d 01       		.uleb128 0x1
 2834 004e 13       		.uleb128 0x13
 2835 004f 00       		.byte	0
 2836 0050 00       		.byte	0
 2837 0051 08       		.uleb128 0x8
 2838 0052 28       		.uleb128 0x28
 2839 0053 00       		.byte	0
 2840 0054 03       		.uleb128 0x3
 2841 0055 0E       		.uleb128 0xe
 2842 0056 1C       		.uleb128 0x1c
 2843 0057 0D       		.uleb128 0xd
 2844 0058 00       		.byte	0
 2845 0059 00       		.byte	0
 2846 005a 09       		.uleb128 0x9
 2847 005b 13       		.uleb128 0x13
 2848 005c 01       		.byte	0x1
 2849 005d 0B       		.uleb128 0xb
 2850 005e 0B       		.uleb128 0xb
 2851 005f 3A       		.uleb128 0x3a
 2852 0060 0B       		.uleb128 0xb
 2853 0061 3B       		.uleb128 0x3b
 2854 0062 05       		.uleb128 0x5
 2855 0063 01       		.uleb128 0x1
 2856 0064 13       		.uleb128 0x13
 2857 0065 00       		.byte	0
 2858 0066 00       		.byte	0
 2859 0067 0A       		.uleb128 0xa
 2860 0068 0D       		.uleb128 0xd
 2861 0069 00       		.byte	0
 2862 006a 03       		.uleb128 0x3
 2863 006b 0E       		.uleb128 0xe
 2864 006c 3A       		.uleb128 0x3a
 2865 006d 0B       		.uleb128 0xb
 2866 006e 3B       		.uleb128 0x3b
 2867 006f 05       		.uleb128 0x5
 2868 0070 49       		.uleb128 0x49
 2869 0071 13       		.uleb128 0x13
 2870 0072 38       		.uleb128 0x38
 2871 0073 0B       		.uleb128 0xb
 2872 0074 00       		.byte	0
 2873 0075 00       		.byte	0
 2874 0076 0B       		.uleb128 0xb
 2875 0077 01       		.uleb128 0x1
 2876 0078 01       		.byte	0x1
 2877 0079 49       		.uleb128 0x49
 2878 007a 13       		.uleb128 0x13
 2879 007b 01       		.uleb128 0x1
 2880 007c 13       		.uleb128 0x13
 2881 007d 00       		.byte	0
 2882 007e 00       		.byte	0
 2883 007f 0C       		.uleb128 0xc
 2884 0080 21       		.uleb128 0x21
 2885 0081 00       		.byte	0
 2886 0082 49       		.uleb128 0x49
 2887 0083 13       		.uleb128 0x13
ARM GAS  C:\Users\sunyi\AppData\Local\Temp\ccXDbPBi.s 			page 77


 2888 0084 2F       		.uleb128 0x2f
 2889 0085 0B       		.uleb128 0xb
 2890 0086 00       		.byte	0
 2891 0087 00       		.byte	0
 2892 0088 0D       		.uleb128 0xd
 2893 0089 0F       		.uleb128 0xf
 2894 008a 00       		.byte	0
 2895 008b 0B       		.uleb128 0xb
 2896 008c 0B       		.uleb128 0xb
 2897 008d 49       		.uleb128 0x49
 2898 008e 13       		.uleb128 0x13
 2899 008f 00       		.byte	0
 2900 0090 00       		.byte	0
 2901 0091 0E       		.uleb128 0xe
 2902 0092 04       		.uleb128 0x4
 2903 0093 01       		.byte	0x1
 2904 0094 0B       		.uleb128 0xb
 2905 0095 0B       		.uleb128 0xb
 2906 0096 3A       		.uleb128 0x3a
 2907 0097 0B       		.uleb128 0xb
 2908 0098 3B       		.uleb128 0x3b
 2909 0099 0B       		.uleb128 0xb
 2910 009a 01       		.uleb128 0x1
 2911 009b 13       		.uleb128 0x13
 2912 009c 00       		.byte	0
 2913 009d 00       		.byte	0
 2914 009e 0F       		.uleb128 0xf
 2915 009f 16       		.uleb128 0x16
 2916 00a0 00       		.byte	0
 2917 00a1 03       		.uleb128 0x3
 2918 00a2 0E       		.uleb128 0xe
 2919 00a3 3A       		.uleb128 0x3a
 2920 00a4 0B       		.uleb128 0xb
 2921 00a5 3B       		.uleb128 0x3b
 2922 00a6 0B       		.uleb128 0xb
 2923 00a7 49       		.uleb128 0x49
 2924 00a8 13       		.uleb128 0x13
 2925 00a9 00       		.byte	0
 2926 00aa 00       		.byte	0
 2927 00ab 10       		.uleb128 0x10
 2928 00ac 13       		.uleb128 0x13
 2929 00ad 01       		.byte	0x1
 2930 00ae 0B       		.uleb128 0xb
 2931 00af 0B       		.uleb128 0xb
 2932 00b0 3A       		.uleb128 0x3a
 2933 00b1 0B       		.uleb128 0xb
 2934 00b2 3B       		.uleb128 0x3b
 2935 00b3 0B       		.uleb128 0xb
 2936 00b4 01       		.uleb128 0x1
 2937 00b5 13       		.uleb128 0x13
 2938 00b6 00       		.byte	0
 2939 00b7 00       		.byte	0
 2940 00b8 11       		.uleb128 0x11
 2941 00b9 0D       		.uleb128 0xd
 2942 00ba 00       		.byte	0
 2943 00bb 03       		.uleb128 0x3
 2944 00bc 0E       		.uleb128 0xe
ARM GAS  C:\Users\sunyi\AppData\Local\Temp\ccXDbPBi.s 			page 78


 2945 00bd 3A       		.uleb128 0x3a
 2946 00be 0B       		.uleb128 0xb
 2947 00bf 3B       		.uleb128 0x3b
 2948 00c0 0B       		.uleb128 0xb
 2949 00c1 49       		.uleb128 0x49
 2950 00c2 13       		.uleb128 0x13
 2951 00c3 38       		.uleb128 0x38
 2952 00c4 0B       		.uleb128 0xb
 2953 00c5 00       		.byte	0
 2954 00c6 00       		.byte	0
 2955 00c7 12       		.uleb128 0x12
 2956 00c8 17       		.uleb128 0x17
 2957 00c9 01       		.byte	0x1
 2958 00ca 0B       		.uleb128 0xb
 2959 00cb 0B       		.uleb128 0xb
 2960 00cc 3A       		.uleb128 0x3a
 2961 00cd 0B       		.uleb128 0xb
 2962 00ce 3B       		.uleb128 0x3b
 2963 00cf 0B       		.uleb128 0xb
 2964 00d0 01       		.uleb128 0x1
 2965 00d1 13       		.uleb128 0x13
 2966 00d2 00       		.byte	0
 2967 00d3 00       		.byte	0
 2968 00d4 13       		.uleb128 0x13
 2969 00d5 0D       		.uleb128 0xd
 2970 00d6 00       		.byte	0
 2971 00d7 03       		.uleb128 0x3
 2972 00d8 0E       		.uleb128 0xe
 2973 00d9 3A       		.uleb128 0x3a
 2974 00da 0B       		.uleb128 0xb
 2975 00db 3B       		.uleb128 0x3b
 2976 00dc 0B       		.uleb128 0xb
 2977 00dd 49       		.uleb128 0x49
 2978 00de 13       		.uleb128 0x13
 2979 00df 00       		.byte	0
 2980 00e0 00       		.byte	0
 2981 00e1 14       		.uleb128 0x14
 2982 00e2 15       		.uleb128 0x15
 2983 00e3 01       		.byte	0x1
 2984 00e4 27       		.uleb128 0x27
 2985 00e5 19       		.uleb128 0x19
 2986 00e6 01       		.uleb128 0x1
 2987 00e7 13       		.uleb128 0x13
 2988 00e8 00       		.byte	0
 2989 00e9 00       		.byte	0
 2990 00ea 15       		.uleb128 0x15
 2991 00eb 05       		.uleb128 0x5
 2992 00ec 00       		.byte	0
 2993 00ed 49       		.uleb128 0x49
 2994 00ee 13       		.uleb128 0x13
 2995 00ef 00       		.byte	0
 2996 00f0 00       		.byte	0
 2997 00f1 16       		.uleb128 0x16
 2998 00f2 2E       		.uleb128 0x2e
 2999 00f3 00       		.byte	0
 3000 00f4 3F       		.uleb128 0x3f
 3001 00f5 19       		.uleb128 0x19
ARM GAS  C:\Users\sunyi\AppData\Local\Temp\ccXDbPBi.s 			page 79


 3002 00f6 03       		.uleb128 0x3
 3003 00f7 0E       		.uleb128 0xe
 3004 00f8 3A       		.uleb128 0x3a
 3005 00f9 0B       		.uleb128 0xb
 3006 00fa 3B       		.uleb128 0x3b
 3007 00fb 0B       		.uleb128 0xb
 3008 00fc 27       		.uleb128 0x27
 3009 00fd 19       		.uleb128 0x19
 3010 00fe 11       		.uleb128 0x11
 3011 00ff 01       		.uleb128 0x1
 3012 0100 12       		.uleb128 0x12
 3013 0101 06       		.uleb128 0x6
 3014 0102 40       		.uleb128 0x40
 3015 0103 18       		.uleb128 0x18
 3016 0104 9642     		.uleb128 0x2116
 3017 0106 19       		.uleb128 0x19
 3018 0107 00       		.byte	0
 3019 0108 00       		.byte	0
 3020 0109 17       		.uleb128 0x17
 3021 010a 2E       		.uleb128 0x2e
 3022 010b 01       		.byte	0x1
 3023 010c 3F       		.uleb128 0x3f
 3024 010d 19       		.uleb128 0x19
 3025 010e 03       		.uleb128 0x3
 3026 010f 0E       		.uleb128 0xe
 3027 0110 3A       		.uleb128 0x3a
 3028 0111 0B       		.uleb128 0xb
 3029 0112 3B       		.uleb128 0x3b
 3030 0113 05       		.uleb128 0x5
 3031 0114 27       		.uleb128 0x27
 3032 0115 19       		.uleb128 0x19
 3033 0116 49       		.uleb128 0x49
 3034 0117 13       		.uleb128 0x13
 3035 0118 11       		.uleb128 0x11
 3036 0119 01       		.uleb128 0x1
 3037 011a 12       		.uleb128 0x12
 3038 011b 06       		.uleb128 0x6
 3039 011c 40       		.uleb128 0x40
 3040 011d 18       		.uleb128 0x18
 3041 011e 9642     		.uleb128 0x2116
 3042 0120 19       		.uleb128 0x19
 3043 0121 01       		.uleb128 0x1
 3044 0122 13       		.uleb128 0x13
 3045 0123 00       		.byte	0
 3046 0124 00       		.byte	0
 3047 0125 18       		.uleb128 0x18
 3048 0126 05       		.uleb128 0x5
 3049 0127 00       		.byte	0
 3050 0128 03       		.uleb128 0x3
 3051 0129 0E       		.uleb128 0xe
 3052 012a 3A       		.uleb128 0x3a
 3053 012b 0B       		.uleb128 0xb
 3054 012c 3B       		.uleb128 0x3b
 3055 012d 05       		.uleb128 0x5
 3056 012e 49       		.uleb128 0x49
 3057 012f 13       		.uleb128 0x13
 3058 0130 02       		.uleb128 0x2
ARM GAS  C:\Users\sunyi\AppData\Local\Temp\ccXDbPBi.s 			page 80


 3059 0131 18       		.uleb128 0x18
 3060 0132 00       		.byte	0
 3061 0133 00       		.byte	0
 3062 0134 19       		.uleb128 0x19
 3063 0135 34       		.uleb128 0x34
 3064 0136 00       		.byte	0
 3065 0137 03       		.uleb128 0x3
 3066 0138 0E       		.uleb128 0xe
 3067 0139 3A       		.uleb128 0x3a
 3068 013a 0B       		.uleb128 0xb
 3069 013b 3B       		.uleb128 0x3b
 3070 013c 05       		.uleb128 0x5
 3071 013d 49       		.uleb128 0x49
 3072 013e 13       		.uleb128 0x13
 3073 013f 02       		.uleb128 0x2
 3074 0140 18       		.uleb128 0x18
 3075 0141 00       		.byte	0
 3076 0142 00       		.byte	0
 3077 0143 1A       		.uleb128 0x1a
 3078 0144 0B       		.uleb128 0xb
 3079 0145 01       		.byte	0x1
 3080 0146 11       		.uleb128 0x11
 3081 0147 01       		.uleb128 0x1
 3082 0148 12       		.uleb128 0x12
 3083 0149 06       		.uleb128 0x6
 3084 014a 00       		.byte	0
 3085 014b 00       		.byte	0
 3086 014c 1B       		.uleb128 0x1b
 3087 014d 2E       		.uleb128 0x2e
 3088 014e 00       		.byte	0
 3089 014f 3F       		.uleb128 0x3f
 3090 0150 19       		.uleb128 0x19
 3091 0151 03       		.uleb128 0x3
 3092 0152 0E       		.uleb128 0xe
 3093 0153 3A       		.uleb128 0x3a
 3094 0154 0B       		.uleb128 0xb
 3095 0155 3B       		.uleb128 0x3b
 3096 0156 05       		.uleb128 0x5
 3097 0157 27       		.uleb128 0x27
 3098 0158 19       		.uleb128 0x19
 3099 0159 11       		.uleb128 0x11
 3100 015a 01       		.uleb128 0x1
 3101 015b 12       		.uleb128 0x12
 3102 015c 06       		.uleb128 0x6
 3103 015d 40       		.uleb128 0x40
 3104 015e 18       		.uleb128 0x18
 3105 015f 9642     		.uleb128 0x2116
 3106 0161 19       		.uleb128 0x19
 3107 0162 00       		.byte	0
 3108 0163 00       		.byte	0
 3109 0164 1C       		.uleb128 0x1c
 3110 0165 2E       		.uleb128 0x2e
 3111 0166 01       		.byte	0x1
 3112 0167 3F       		.uleb128 0x3f
 3113 0168 19       		.uleb128 0x19
 3114 0169 03       		.uleb128 0x3
 3115 016a 0E       		.uleb128 0xe
ARM GAS  C:\Users\sunyi\AppData\Local\Temp\ccXDbPBi.s 			page 81


 3116 016b 3A       		.uleb128 0x3a
 3117 016c 0B       		.uleb128 0xb
 3118 016d 3B       		.uleb128 0x3b
 3119 016e 05       		.uleb128 0x5
 3120 016f 27       		.uleb128 0x27
 3121 0170 19       		.uleb128 0x19
 3122 0171 11       		.uleb128 0x11
 3123 0172 01       		.uleb128 0x1
 3124 0173 12       		.uleb128 0x12
 3125 0174 06       		.uleb128 0x6
 3126 0175 40       		.uleb128 0x40
 3127 0176 18       		.uleb128 0x18
 3128 0177 9742     		.uleb128 0x2117
 3129 0179 19       		.uleb128 0x19
 3130 017a 01       		.uleb128 0x1
 3131 017b 13       		.uleb128 0x13
 3132 017c 00       		.byte	0
 3133 017d 00       		.byte	0
 3134 017e 1D       		.uleb128 0x1d
 3135 017f 34       		.uleb128 0x34
 3136 0180 00       		.byte	0
 3137 0181 03       		.uleb128 0x3
 3138 0182 08       		.uleb128 0x8
 3139 0183 3A       		.uleb128 0x3a
 3140 0184 0B       		.uleb128 0xb
 3141 0185 3B       		.uleb128 0x3b
 3142 0186 05       		.uleb128 0x5
 3143 0187 49       		.uleb128 0x49
 3144 0188 13       		.uleb128 0x13
 3145 0189 02       		.uleb128 0x2
 3146 018a 18       		.uleb128 0x18
 3147 018b 00       		.byte	0
 3148 018c 00       		.byte	0
 3149 018d 1E       		.uleb128 0x1e
 3150 018e 26       		.uleb128 0x26
 3151 018f 00       		.byte	0
 3152 0190 49       		.uleb128 0x49
 3153 0191 13       		.uleb128 0x13
 3154 0192 00       		.byte	0
 3155 0193 00       		.byte	0
 3156 0194 1F       		.uleb128 0x1f
 3157 0195 2E       		.uleb128 0x2e
 3158 0196 01       		.byte	0x1
 3159 0197 03       		.uleb128 0x3
 3160 0198 0E       		.uleb128 0xe
 3161 0199 3A       		.uleb128 0x3a
 3162 019a 0B       		.uleb128 0xb
 3163 019b 3B       		.uleb128 0x3b
 3164 019c 05       		.uleb128 0x5
 3165 019d 27       		.uleb128 0x27
 3166 019e 19       		.uleb128 0x19
 3167 019f 11       		.uleb128 0x11
 3168 01a0 01       		.uleb128 0x1
 3169 01a1 12       		.uleb128 0x12
 3170 01a2 06       		.uleb128 0x6
 3171 01a3 40       		.uleb128 0x40
 3172 01a4 18       		.uleb128 0x18
ARM GAS  C:\Users\sunyi\AppData\Local\Temp\ccXDbPBi.s 			page 82


 3173 01a5 9742     		.uleb128 0x2117
 3174 01a7 19       		.uleb128 0x19
 3175 01a8 01       		.uleb128 0x1
 3176 01a9 13       		.uleb128 0x13
 3177 01aa 00       		.byte	0
 3178 01ab 00       		.byte	0
 3179 01ac 20       		.uleb128 0x20
 3180 01ad 2E       		.uleb128 0x2e
 3181 01ae 01       		.byte	0x1
 3182 01af 3F       		.uleb128 0x3f
 3183 01b0 19       		.uleb128 0x19
 3184 01b1 03       		.uleb128 0x3
 3185 01b2 0E       		.uleb128 0xe
 3186 01b3 3A       		.uleb128 0x3a
 3187 01b4 0B       		.uleb128 0xb
 3188 01b5 3B       		.uleb128 0x3b
 3189 01b6 05       		.uleb128 0x5
 3190 01b7 27       		.uleb128 0x27
 3191 01b8 19       		.uleb128 0x19
 3192 01b9 49       		.uleb128 0x49
 3193 01ba 13       		.uleb128 0x13
 3194 01bb 11       		.uleb128 0x11
 3195 01bc 01       		.uleb128 0x1
 3196 01bd 12       		.uleb128 0x12
 3197 01be 06       		.uleb128 0x6
 3198 01bf 40       		.uleb128 0x40
 3199 01c0 18       		.uleb128 0x18
 3200 01c1 9742     		.uleb128 0x2117
 3201 01c3 19       		.uleb128 0x19
 3202 01c4 01       		.uleb128 0x1
 3203 01c5 13       		.uleb128 0x13
 3204 01c6 00       		.byte	0
 3205 01c7 00       		.byte	0
 3206 01c8 21       		.uleb128 0x21
 3207 01c9 05       		.uleb128 0x5
 3208 01ca 00       		.byte	0
 3209 01cb 03       		.uleb128 0x3
 3210 01cc 08       		.uleb128 0x8
 3211 01cd 3A       		.uleb128 0x3a
 3212 01ce 0B       		.uleb128 0xb
 3213 01cf 3B       		.uleb128 0x3b
 3214 01d0 05       		.uleb128 0x5
 3215 01d1 49       		.uleb128 0x49
 3216 01d2 13       		.uleb128 0x13
 3217 01d3 02       		.uleb128 0x2
 3218 01d4 18       		.uleb128 0x18
 3219 01d5 00       		.byte	0
 3220 01d6 00       		.byte	0
 3221 01d7 22       		.uleb128 0x22
 3222 01d8 34       		.uleb128 0x34
 3223 01d9 00       		.byte	0
 3224 01da 03       		.uleb128 0x3
 3225 01db 0E       		.uleb128 0xe
 3226 01dc 3A       		.uleb128 0x3a
 3227 01dd 0B       		.uleb128 0xb
 3228 01de 3B       		.uleb128 0x3b
 3229 01df 0B       		.uleb128 0xb
ARM GAS  C:\Users\sunyi\AppData\Local\Temp\ccXDbPBi.s 			page 83


 3230 01e0 49       		.uleb128 0x49
 3231 01e1 13       		.uleb128 0x13
 3232 01e2 3F       		.uleb128 0x3f
 3233 01e3 19       		.uleb128 0x19
 3234 01e4 02       		.uleb128 0x2
 3235 01e5 18       		.uleb128 0x18
 3236 01e6 00       		.byte	0
 3237 01e7 00       		.byte	0
 3238 01e8 23       		.uleb128 0x23
 3239 01e9 21       		.uleb128 0x21
 3240 01ea 00       		.byte	0
 3241 01eb 49       		.uleb128 0x49
 3242 01ec 13       		.uleb128 0x13
 3243 01ed 2F       		.uleb128 0x2f
 3244 01ee 05       		.uleb128 0x5
 3245 01ef 00       		.byte	0
 3246 01f0 00       		.byte	0
 3247 01f1 24       		.uleb128 0x24
 3248 01f2 34       		.uleb128 0x34
 3249 01f3 00       		.byte	0
 3250 01f4 03       		.uleb128 0x3
 3251 01f5 0E       		.uleb128 0xe
 3252 01f6 3A       		.uleb128 0x3a
 3253 01f7 0B       		.uleb128 0xb
 3254 01f8 3B       		.uleb128 0x3b
 3255 01f9 05       		.uleb128 0x5
 3256 01fa 49       		.uleb128 0x49
 3257 01fb 13       		.uleb128 0x13
 3258 01fc 3F       		.uleb128 0x3f
 3259 01fd 19       		.uleb128 0x19
 3260 01fe 3C       		.uleb128 0x3c
 3261 01ff 19       		.uleb128 0x19
 3262 0200 00       		.byte	0
 3263 0201 00       		.byte	0
 3264 0202 25       		.uleb128 0x25
 3265 0203 34       		.uleb128 0x34
 3266 0204 00       		.byte	0
 3267 0205 03       		.uleb128 0x3
 3268 0206 0E       		.uleb128 0xe
 3269 0207 3A       		.uleb128 0x3a
 3270 0208 0B       		.uleb128 0xb
 3271 0209 3B       		.uleb128 0x3b
 3272 020a 0B       		.uleb128 0xb
 3273 020b 49       		.uleb128 0x49
 3274 020c 13       		.uleb128 0x13
 3275 020d 3F       		.uleb128 0x3f
 3276 020e 19       		.uleb128 0x19
 3277 020f 3C       		.uleb128 0x3c
 3278 0210 19       		.uleb128 0x19
 3279 0211 00       		.byte	0
 3280 0212 00       		.byte	0
 3281 0213 00       		.byte	0
 3282              		.section	.debug_aranges,"",%progbits
 3283 0000 74000000 		.4byte	0x74
 3284 0004 0200     		.2byte	0x2
 3285 0006 00000000 		.4byte	.Ldebug_info0
 3286 000a 04       		.byte	0x4
ARM GAS  C:\Users\sunyi\AppData\Local\Temp\ccXDbPBi.s 			page 84


 3287 000b 00       		.byte	0
 3288 000c 0000     		.2byte	0
 3289 000e 0000     		.2byte	0
 3290 0010 00000000 		.4byte	.LFB2
 3291 0014 2C000000 		.4byte	.LFE2-.LFB2
 3292 0018 00000000 		.4byte	.LFB3
 3293 001c 10000000 		.4byte	.LFE3-.LFB3
 3294 0020 00000000 		.4byte	.LFB4
 3295 0024 2C010000 		.4byte	.LFE4-.LFB4
 3296 0028 00000000 		.4byte	.LFB5
 3297 002c 18000000 		.4byte	.LFE5-.LFB5
 3298 0030 00000000 		.4byte	.LFB6
 3299 0034 D4000000 		.4byte	.LFE6-.LFB6
 3300 0038 00000000 		.4byte	.LFB7
 3301 003c 20000000 		.4byte	.LFE7-.LFB7
 3302 0040 00000000 		.4byte	.LFB8
 3303 0044 60000000 		.4byte	.LFE8-.LFB8
 3304 0048 00000000 		.4byte	.LFB9
 3305 004c A4010000 		.4byte	.LFE9-.LFB9
 3306 0050 00000000 		.4byte	.LFB10
 3307 0054 C8000000 		.4byte	.LFE10-.LFB10
 3308 0058 00000000 		.4byte	.LFB11
 3309 005c A4000000 		.4byte	.LFE11-.LFB11
 3310 0060 00000000 		.4byte	.LFB12
 3311 0064 26000000 		.4byte	.LFE12-.LFB12
 3312 0068 00000000 		.4byte	.LFB13
 3313 006c 2E000000 		.4byte	.LFE13-.LFB13
 3314 0070 00000000 		.4byte	0
 3315 0074 00000000 		.4byte	0
 3316              		.section	.debug_ranges,"",%progbits
 3317              	.Ldebug_ranges0:
 3318 0000 00000000 		.4byte	.LFB2
 3319 0004 2C000000 		.4byte	.LFE2
 3320 0008 00000000 		.4byte	.LFB3
 3321 000c 10000000 		.4byte	.LFE3
 3322 0010 00000000 		.4byte	.LFB4
 3323 0014 2C010000 		.4byte	.LFE4
 3324 0018 00000000 		.4byte	.LFB5
 3325 001c 18000000 		.4byte	.LFE5
 3326 0020 00000000 		.4byte	.LFB6
 3327 0024 D4000000 		.4byte	.LFE6
 3328 0028 00000000 		.4byte	.LFB7
 3329 002c 20000000 		.4byte	.LFE7
 3330 0030 00000000 		.4byte	.LFB8
 3331 0034 60000000 		.4byte	.LFE8
 3332 0038 00000000 		.4byte	.LFB9
 3333 003c A4010000 		.4byte	.LFE9
 3334 0040 00000000 		.4byte	.LFB10
 3335 0044 C8000000 		.4byte	.LFE10
 3336 0048 00000000 		.4byte	.LFB11
 3337 004c A4000000 		.4byte	.LFE11
 3338 0050 00000000 		.4byte	.LFB12
 3339 0054 26000000 		.4byte	.LFE12
 3340 0058 00000000 		.4byte	.LFB13
 3341 005c 2E000000 		.4byte	.LFE13
 3342 0060 00000000 		.4byte	0
 3343 0064 00000000 		.4byte	0
ARM GAS  C:\Users\sunyi\AppData\Local\Temp\ccXDbPBi.s 			page 85


 3344              		.section	.debug_line,"",%progbits
 3345              	.Ldebug_line0:
 3346 0000 6E020000 		.section	.debug_str,"MS",%progbits,1
 3346      0200B300 
 3346      00000201 
 3346      FB0E0D00 
 3346      01010101 
 3347              	.LASF77:
 3348 0000 4359424C 		.ascii	"CYBLE_EVT_L2CAP_CBFC_RX_CREDIT_IND\000"
 3348      455F4556 
 3348      545F4C32 
 3348      4341505F 
 3348      43424643 
 3349              	.LASF22:
 3350 0023 4359424C 		.ascii	"CYBLE_EVT_STACK_BUSY_STATUS\000"
 3350      455F4556 
 3350      545F5354 
 3350      41434B5F 
 3350      42555359 
 3351              	.LASF173:
 3352 003f 4359424C 		.ascii	"CYBLE_STATE_STOPPED\000"
 3352      455F5354 
 3352      4154455F 
 3352      53544F50 
 3352      50454400 
 3353              	.LASF76:
 3354 0053 4359424C 		.ascii	"CYBLE_EVT_L2CAP_CBFC_DATA_READ\000"
 3354      455F4556 
 3354      545F4C32 
 3354      4341505F 
 3354      43424643 
 3355              	.LASF213:
 3356 0072 6379426C 		.ascii	"cyBle_discoveryParam\000"
 3356      655F6469 
 3356      73636F76 
 3356      65727950 
 3356      6172616D 
 3357              	.LASF183:
 3358 0087 646C6543 		.ascii	"dleConfigParams\000"
 3358      6F6E6669 
 3358      67506172 
 3358      616D7300 
 3359              	.LASF86:
 3360 0097 4359424C 		.ascii	"CYBLE_ERROR_MEMORY_ALLOCATION_FAILED\000"
 3360      455F4552 
 3360      524F525F 
 3360      4D454D4F 
 3360      52595F41 
 3361              	.LASF149:
 3362 00bc 4359424C 		.ascii	"CYBLE_GAPP_DISC_DATA_T\000"
 3362      455F4741 
 3362      50505F44 
 3362      4953435F 
 3362      44415441 
 3363              	.LASF109:
 3364 00d3 4359424C 		.ascii	"CYBLE_ERROR_CONTROLLER_BUSY\000"
 3364      455F4552 
ARM GAS  C:\Users\sunyi\AppData\Local\Temp\ccXDbPBi.s 			page 86


 3364      524F525F 
 3364      434F4E54 
 3364      524F4C4C 
 3365              	.LASF34:
 3366 00ef 4359424C 		.ascii	"CYBLE_EVT_GAP_CONNECTION_UPDATE_COMPLETE\000"
 3366      455F4556 
 3366      545F4741 
 3366      505F434F 
 3366      4E4E4543 
 3367              	.LASF144:
 3368 0118 61647643 		.ascii	"advChannelMap\000"
 3368      68616E6E 
 3368      656C4D61 
 3368      7000
 3369              	.LASF75:
 3370 0126 4359424C 		.ascii	"CYBLE_EVT_L2CAP_CBFC_DISCONN_CNF\000"
 3370      455F4556 
 3370      545F4C32 
 3370      4341505F 
 3370      43424643 
 3371              	.LASF107:
 3372 0147 4359424C 		.ascii	"CYBLE_ERROR_UNSUPPORTED_FEATURE_OR_PARAMETER_VALUE\000"
 3372      455F4552 
 3372      524F525F 
 3372      554E5355 
 3372      50504F52 
 3373              	.LASF133:
 3374 017a 4359424C 		.ascii	"CYBLE_GAPP_CONNECTABLE_HIGH_DC_DIRECTED_ADV\000"
 3374      455F4741 
 3374      50505F43 
 3374      4F4E4E45 
 3374      43544142 
 3375              	.LASF39:
 3376 01a6 4359424C 		.ascii	"CYBLE_EVT_GAP_OOB_GENERATED_NOTIFICATION\000"
 3376      455F4556 
 3376      545F4741 
 3376      505F4F4F 
 3376      425F4745 
 3377              	.LASF55:
 3378 01cf 4359424C 		.ascii	"CYBLE_EVT_GATTC_READ_MULTI_RSP\000"
 3378      455F4556 
 3378      545F4741 
 3378      5454435F 
 3378      52454144 
 3379              	.LASF60:
 3380 01ee 4359424C 		.ascii	"CYBLE_EVT_GATTS_EXEC_WRITE_REQ\000"
 3380      455F4556 
 3380      545F4741 
 3380      5454535F 
 3380      45584543 
 3381              	.LASF209:
 3382 020d 6379426C 		.ascii	"cyBle_stackMemoryRam\000"
 3382      655F7374 
 3382      61636B4D 
 3382      656D6F72 
 3382      7952616D 
 3383              	.LASF134:
ARM GAS  C:\Users\sunyi\AppData\Local\Temp\ccXDbPBi.s 			page 87


 3384 0222 4359424C 		.ascii	"CYBLE_GAPP_SCANNABLE_UNDIRECTED_ADV\000"
 3384      455F4741 
 3384      50505F53 
 3384      43414E4E 
 3384      41424C45 
 3385              	.LASF122:
 3386 0246 646C654D 		.ascii	"dleMaxTxCapability\000"
 3386      61785478 
 3386      43617061 
 3386      62696C69 
 3386      747900
 3387              	.LASF117:
 3388 0259 74797065 		.ascii	"type\000"
 3388      00
 3389              	.LASF19:
 3390 025e 4359424C 		.ascii	"CYBLE_EVT_TIMEOUT\000"
 3390      455F4556 
 3390      545F5449 
 3390      4D454F55 
 3390      5400
 3391              	.LASF4:
 3392 0270 6C6F6E67 		.ascii	"long int\000"
 3392      20696E74 
 3392      00
 3393              	.LASF106:
 3394 0279 4359424C 		.ascii	"CYBLE_ERROR_HARDWARE_FAILURE\000"
 3394      455F4552 
 3394      524F525F 
 3394      48415244 
 3394      57415245 
 3395              	.LASF127:
 3396 0296 4359424C 		.ascii	"CYBLE_PRIVACY_1_2_CONFIG_PARAM_T\000"
 3396      455F5052 
 3396      49564143 
 3396      595F315F 
 3396      325F434F 
 3397              	.LASF192:
 3398 02b7 4379426C 		.ascii	"CyBle_GappStopAdvertisement\000"
 3398      655F4761 
 3398      70705374 
 3398      6F704164 
 3398      76657274 
 3399              	.LASF214:
 3400 02d3 6379426C 		.ascii	"cyBle_discoveryData\000"
 3400      655F6469 
 3400      73636F76 
 3400      65727944 
 3400      61746100 
 3401              	.LASF96:
 3402 02e7 4359424C 		.ascii	"CYBLE_ERROR_L2CAP_PSM_WRONG_ENCODING\000"
 3402      455F4552 
 3402      524F525F 
 3402      4C324341 
 3402      505F5053 
 3403              	.LASF87:
 3404 030c 4359424C 		.ascii	"CYBLE_ERROR_INSUFFICIENT_RESOURCES\000"
 3404      455F4552 
ARM GAS  C:\Users\sunyi\AppData\Local\Temp\ccXDbPBi.s 			page 88


 3404      524F525F 
 3404      494E5355 
 3404      46464943 
 3405              	.LASF21:
 3406 032f 4359424C 		.ascii	"CYBLE_EVT_HCI_STATUS\000"
 3406      455F4556 
 3406      545F4843 
 3406      495F5354 
 3406      41545553 
 3407              	.LASF140:
 3408 0344 61647654 		.ascii	"advType\000"
 3408      79706500 
 3409              	.LASF35:
 3410 034c 4359424C 		.ascii	"CYBLE_EVT_GAPC_SCAN_START_STOP\000"
 3410      455F4556 
 3410      545F4741 
 3410      50435F53 
 3410      43414E5F 
 3411              	.LASF219:
 3412 036b 6379426C 		.ascii	"cyBle_busyStatus\000"
 3412      655F6275 
 3412      73795374 
 3412      61747573 
 3412      00
 3413              	.LASF132:
 3414 037c 4359424C 		.ascii	"CYBLE_GAPP_CONNECTABLE_UNDIRECTED_ADV\000"
 3414      455F4741 
 3414      50505F43 
 3414      4F4E4E45 
 3414      43544142 
 3415              	.LASF118:
 3416 03a2 4359424C 		.ascii	"CYBLE_GAP_BD_ADDR_T\000"
 3416      455F4741 
 3416      505F4244 
 3416      5F414444 
 3416      525F5400 
 3417              	.LASF95:
 3418 03b6 4359424C 		.ascii	"CYBLE_ERROR_SEC_FAILED\000"
 3418      455F4552 
 3418      524F525F 
 3418      5345435F 
 3418      4641494C 
 3419              	.LASF100:
 3420 03cd 4359424C 		.ascii	"CYBLE_ERROR_L2CAP_CHANNEL_NOT_FOUND\000"
 3420      455F4552 
 3420      524F525F 
 3420      4C324341 
 3420      505F4348 
 3421              	.LASF33:
 3422 03f1 4359424C 		.ascii	"CYBLE_EVT_GAP_ENCRYPT_CHANGE\000"
 3422      455F4556 
 3422      545F4741 
 3422      505F454E 
 3422      43525950 
 3423              	.LASF37:
 3424 040e 4359424C 		.ascii	"CYBLE_EVT_GAP_NUMERIC_COMPARISON_REQUEST\000"
 3424      455F4556 
ARM GAS  C:\Users\sunyi\AppData\Local\Temp\ccXDbPBi.s 			page 89


 3424      545F4741 
 3424      505F4E55 
 3424      4D455249 
 3425              	.LASF78:
 3426 0437 4359424C 		.ascii	"CYBLE_EVT_L2CAP_CBFC_TX_CREDIT_IND\000"
 3426      455F4556 
 3426      545F4C32 
 3426      4341505F 
 3426      43424643 
 3427              	.LASF176:
 3428 045a 4359424C 		.ascii	"CYBLE_STATE_ADVERTISING\000"
 3428      455F5354 
 3428      4154455F 
 3428      41445645 
 3428      52544953 
 3429              	.LASF6:
 3430 0472 6C6F6E67 		.ascii	"long long int\000"
 3430      206C6F6E 
 3430      6720696E 
 3430      7400
 3431              	.LASF0:
 3432 0480 7369676E 		.ascii	"signed char\000"
 3432      65642063 
 3432      68617200 
 3433              	.LASF18:
 3434 048c 4359424C 		.ascii	"CYBLE_EVT_STACK_ON\000"
 3434      455F4556 
 3434      545F5354 
 3434      41434B5F 
 3434      4F4E00
 3435              	.LASF103:
 3436 049f 4359424C 		.ascii	"CYBLE_ERROR_DEVICE_ALREADY_EXISTS\000"
 3436      455F4552 
 3436      524F525F 
 3436      44455649 
 3436      43455F41 
 3437              	.LASF90:
 3438 04c1 4359424C 		.ascii	"CYBLE_ERROR_NO_DEVICE_ENTITY\000"
 3438      455F4552 
 3438      524F525F 
 3438      4E4F5F44 
 3438      45564943 
 3439              	.LASF143:
 3440 04de 64697265 		.ascii	"directAddr\000"
 3440      63744164 
 3440      647200
 3441              	.LASF25:
 3442 04e9 4359424C 		.ascii	"CYBLE_EVT_GAP_AUTH_REQ\000"
 3442      455F4556 
 3442      545F4741 
 3442      505F4155 
 3442      54485F52 
 3443              	.LASF168:
 3444 0500 7065726D 		.ascii	"permission\000"
 3444      69737369 
 3444      6F6E00
 3445              	.LASF53:
ARM GAS  C:\Users\sunyi\AppData\Local\Temp\ccXDbPBi.s 			page 90


 3446 050b 4359424C 		.ascii	"CYBLE_EVT_GATTC_READ_RSP\000"
 3446      455F4556 
 3446      545F4741 
 3446      5454435F 
 3446      52454144 
 3447              	.LASF114:
 3448 0524 4359424C 		.ascii	"CYBLE_ERROR_INVALID_STATE\000"
 3448      455F4552 
 3448      524F525F 
 3448      494E5641 
 3448      4C49445F 
 3449              	.LASF145:
 3450 053e 61647646 		.ascii	"advFilterPolicy\000"
 3450      696C7465 
 3450      72506F6C 
 3450      69637900 
 3451              	.LASF58:
 3452 054e 4359424C 		.ascii	"CYBLE_EVT_GATTS_WRITE_CMD_REQ\000"
 3452      455F4556 
 3452      545F4741 
 3452      5454535F 
 3452      57524954 
 3453              	.LASF139:
 3454 056c 61647649 		.ascii	"advIntvMax\000"
 3454      6E74764D 
 3454      617800
 3455              	.LASF177:
 3456 0577 4359424C 		.ascii	"CYBLE_STATE_DISCONNECTED\000"
 3456      455F5354 
 3456      4154455F 
 3456      44495343 
 3456      4F4E4E45 
 3457              	.LASF30:
 3458 0590 4359424C 		.ascii	"CYBLE_EVT_GAPP_ADVERTISEMENT_START_STOP\000"
 3458      455F4556 
 3458      545F4741 
 3458      50505F41 
 3458      44564552 
 3459              	.LASF101:
 3460 05b8 4359424C 		.ascii	"CYBLE_ERROR_L2CAP_PSM_NOT_IN_RANGE\000"
 3460      455F4552 
 3460      524F525F 
 3460      4C324341 
 3460      505F5053 
 3461              	.LASF47:
 3462 05db 4359424C 		.ascii	"CYBLE_EVT_GATTS_XCNHG_MTU_REQ\000"
 3462      455F4556 
 3462      545F4741 
 3462      5454535F 
 3462      58434E48 
 3463              	.LASF9:
 3464 05f9 75696E74 		.ascii	"uint8\000"
 3464      3800
 3465              	.LASF150:
 3466 05ff 7363616E 		.ascii	"scanRspData\000"
 3466      52737044 
 3466      61746100 
ARM GAS  C:\Users\sunyi\AppData\Local\Temp\ccXDbPBi.s 			page 91


 3467              	.LASF116:
 3468 060b 62644164 		.ascii	"bdAddr\000"
 3468      647200
 3469              	.LASF61:
 3470 0612 4359424C 		.ascii	"CYBLE_EVT_GATTC_EXEC_WRITE_RSP\000"
 3470      455F4556 
 3470      545F4741 
 3470      5454435F 
 3470      45584543 
 3471              	.LASF162:
 3472 0631 4359424C 		.ascii	"CYBLE_GATTS_ATT_PACK_VAL_LEN_T\000"
 3472      455F4741 
 3472      5454535F 
 3472      4154545F 
 3472      5041434B 
 3473              	.LASF13:
 3474 0650 646F7562 		.ascii	"double\000"
 3474      6C6500
 3475              	.LASF153:
 3476 0657 64697363 		.ascii	"discMode\000"
 3476      4D6F6465 
 3476      00
 3477              	.LASF84:
 3478 0660 4359424C 		.ascii	"CYBLE_ERROR_INVALID_PARAMETER\000"
 3478      455F4552 
 3478      524F525F 
 3478      494E5641 
 3478      4C49445F 
 3479              	.LASF165:
 3480 067e 4359424C 		.ascii	"CYBLE_GATTS_ATT_VALUE_T\000"
 3480      455F4741 
 3480      5454535F 
 3480      4154545F 
 3480      56414C55 
 3481              	.LASF166:
 3482 0696 61747448 		.ascii	"attHandle\000"
 3482      616E646C 
 3482      6500
 3483              	.LASF11:
 3484 06a0 75696E74 		.ascii	"uint32\000"
 3484      333200
 3485              	.LASF194:
 3486 06a7 64657374 		.ascii	"destBuffer\000"
 3486      42756666 
 3486      657200
 3487              	.LASF82:
 3488 06b2 4359424C 		.ascii	"CYBLE_EVT_MAX\000"
 3488      455F4556 
 3488      545F4D41 
 3488      5800
 3489              	.LASF83:
 3490 06c0 4359424C 		.ascii	"CYBLE_ERROR_OK\000"
 3490      455F4552 
 3490      524F525F 
 3490      4F4B00
 3491              	.LASF44:
 3492 06cf 4359424C 		.ascii	"CYBLE_EVT_GATTC_ERROR_RSP\000"
ARM GAS  C:\Users\sunyi\AppData\Local\Temp\ccXDbPBi.s 			page 92


 3492      455F4556 
 3492      545F4741 
 3492      5454435F 
 3492      4552524F 
 3493              	.LASF69:
 3494 06e9 4359424C 		.ascii	"CYBLE_EVT_L2CAP_CONN_PARAM_UPDATE_REQ\000"
 3494      455F4556 
 3494      545F4C32 
 3494      4341505F 
 3494      434F4E4E 
 3495              	.LASF79:
 3496 070f 4359424C 		.ascii	"CYBLE_EVT_L2CAP_CBFC_DATA_WRITE_IND\000"
 3496      455F4556 
 3496      545F4C32 
 3496      4341505F 
 3496      43424643 
 3497              	.LASF167:
 3498 0733 61747454 		.ascii	"attType\000"
 3498      79706500 
 3499              	.LASF148:
 3500 073b 61647644 		.ascii	"advDataLen\000"
 3500      6174614C 
 3500      656E00
 3501              	.LASF7:
 3502 0746 6C6F6E67 		.ascii	"long long unsigned int\000"
 3502      206C6F6E 
 3502      6720756E 
 3502      7369676E 
 3502      65642069 
 3503              	.LASF206:
 3504 075d 76616C75 		.ascii	"value\000"
 3504      6500
 3505              	.LASF68:
 3506 0763 4359424C 		.ascii	"CYBLE_EVT_GATTC_LONG_PROCEDURE_END\000"
 3506      455F4556 
 3506      545F4741 
 3506      5454435F 
 3506      4C4F4E47 
 3507              	.LASF66:
 3508 0786 4359424C 		.ascii	"CYBLE_EVT_GATTC_STOP_CMD_COMPLETE\000"
 3508      455F4556 
 3508      545F4741 
 3508      5454435F 
 3508      53544F50 
 3509              	.LASF88:
 3510 07a8 4359424C 		.ascii	"CYBLE_ERROR_OOB_NOT_AVAILABLE\000"
 3510      455F4552 
 3510      524F525F 
 3510      4F4F425F 
 3510      4E4F545F 
 3511              	.LASF81:
 3512 07c6 4359424C 		.ascii	"CYBLE_EVT_LE_PING_AUTH_TIMEOUT\000"
 3512      455F4556 
 3512      545F4C45 
 3512      5F50494E 
 3512      475F4155 
 3513              	.LASF180:
ARM GAS  C:\Users\sunyi\AppData\Local\Temp\ccXDbPBi.s 			page 93


 3514 07e5 4379426C 		.ascii	"CyBle_ServiceInit\000"
 3514      655F5365 
 3514      72766963 
 3514      65496E69 
 3514      7400
 3515              	.LASF97:
 3516 07f7 4359424C 		.ascii	"CYBLE_ERROR_L2CAP_PSM_ALREADY_REGISTERED\000"
 3516      455F4552 
 3516      524F525F 
 3516      4C324341 
 3516      505F5053 
 3517              	.LASF5:
 3518 0820 6C6F6E67 		.ascii	"long unsigned int\000"
 3518      20756E73 
 3518      69676E65 
 3518      6420696E 
 3518      7400
 3519              	.LASF56:
 3520 0832 4359424C 		.ascii	"CYBLE_EVT_GATTS_WRITE_REQ\000"
 3520      455F4556 
 3520      545F4741 
 3520      5454535F 
 3520      57524954 
 3521              	.LASF48:
 3522 084c 4359424C 		.ascii	"CYBLE_EVT_GATTC_XCHNG_MTU_RSP\000"
 3522      455F4556 
 3522      545F4741 
 3522      5454435F 
 3522      5843484E 
 3523              	.LASF65:
 3524 086a 4359424C 		.ascii	"CYBLE_EVT_GATTS_DATA_SIGNED_CMD_REQ\000"
 3524      455F4556 
 3524      545F4741 
 3524      5454535F 
 3524      44415441 
 3525              	.LASF195:
 3526 088e 6E616D65 		.ascii	"name\000"
 3526      00
 3527              	.LASF184:
 3528 0893 70726976 		.ascii	"privacyConfigParams\000"
 3528      61637943 
 3528      6F6E6669 
 3528      67506172 
 3528      616D7300 
 3529              	.LASF163:
 3530 08a7 61747446 		.ascii	"attFormatValue\000"
 3530      6F726D61 
 3530      7456616C 
 3530      756500
 3531              	.LASF152:
 3532 08b6 4359424C 		.ascii	"CYBLE_GAPP_SCAN_RSP_DATA_T\000"
 3532      455F4741 
 3532      50505F53 
 3532      43414E5F 
 3532      5253505F 
 3533              	.LASF120:
 3534 08d1 62756666 		.ascii	"bufferUnits\000"
ARM GAS  C:\Users\sunyi\AppData\Local\Temp\ccXDbPBi.s 			page 94


 3534      6572556E 
 3534      69747300 
 3535              	.LASF111:
 3536 08dd 4359424C 		.ascii	"CYBLE_ERROR_NTF_DISABLED\000"
 3536      455F4552 
 3536      524F525F 
 3536      4E54465F 
 3536      44495341 
 3537              	.LASF17:
 3538 08f6 4359424C 		.ascii	"CYBLE_EVT_HOST_INVALID\000"
 3538      455F4556 
 3538      545F484F 
 3538      53545F49 
 3538      4E56414C 
 3539              	.LASF51:
 3540 090d 4359424C 		.ascii	"CYBLE_EVT_GATTC_FIND_INFO_RSP\000"
 3540      455F4556 
 3540      545F4741 
 3540      5454435F 
 3540      46494E44 
 3541              	.LASF23:
 3542 092b 4359424C 		.ascii	"CYBLE_EVT_MEMORY_REQUEST\000"
 3542      455F4556 
 3542      545F4D45 
 3542      4D4F5259 
 3542      5F524551 
 3543              	.LASF208:
 3544 0944 6379426C 		.ascii	"cyBle_initVar\000"
 3544      655F696E 
 3544      69745661 
 3544      7200
 3545              	.LASF26:
 3546 0952 4359424C 		.ascii	"CYBLE_EVT_GAP_PASSKEY_ENTRY_REQUEST\000"
 3546      455F4556 
 3546      545F4741 
 3546      505F5041 
 3546      53534B45 
 3547              	.LASF31:
 3548 0976 4359424C 		.ascii	"CYBLE_EVT_GAP_DEVICE_CONNECTED\000"
 3548      455F4556 
 3548      545F4741 
 3548      505F4445 
 3548      56494345 
 3549              	.LASF160:
 3550 0995 6D617841 		.ascii	"maxAttrLength\000"
 3550      7474724C 
 3550      656E6774 
 3550      6800
 3551              	.LASF205:
 3552 09a3 4379426C 		.ascii	"CyBle_Set16ByPtr\000"
 3552      655F5365 
 3552      74313642 
 3552      79507472 
 3552      00
 3553              	.LASF124:
 3554 09b4 646C654E 		.ascii	"dleNumTxBuffer\000"
 3554      756D5478 
ARM GAS  C:\Users\sunyi\AppData\Local\Temp\ccXDbPBi.s 			page 95


 3554      42756666 
 3554      657200
 3555              	.LASF151:
 3556 09c3 7363616E 		.ascii	"scanRspDataLen\000"
 3556      52737044 
 3556      6174614C 
 3556      656E00
 3557              	.LASF188:
 3558 09d2 4379426C 		.ascii	"CyBle_Start\000"
 3558      655F5374 
 3558      61727400 
 3559              	.LASF202:
 3560 09de 4379426C 		.ascii	"CyBle_GapGetLocalName\000"
 3560      655F4761 
 3560      70476574 
 3560      4C6F6361 
 3560      6C4E616D 
 3561              	.LASF157:
 3562 09f4 61637475 		.ascii	"actualLength\000"
 3562      616C4C65 
 3562      6E677468 
 3562      00
 3563              	.LASF218:
 3564 0a01 6379426C 		.ascii	"cyBle_state\000"
 3564      655F7374 
 3564      61746500 
 3565              	.LASF27:
 3566 0a0d 4359424C 		.ascii	"CYBLE_EVT_GAP_PASSKEY_DISPLAY_REQUEST\000"
 3566      455F4556 
 3566      545F4741 
 3566      505F5041 
 3566      53534B45 
 3567              	.LASF45:
 3568 0a33 4359424C 		.ascii	"CYBLE_EVT_GATT_CONNECT_IND\000"
 3568      455F4556 
 3568      545F4741 
 3568      54545F43 
 3568      4F4E4E45 
 3569              	.LASF121:
 3570 0a4e 4359424C 		.ascii	"CYBLE_STK_APP_DATA_BUFF_T\000"
 3570      455F5354 
 3570      4B5F4150 
 3570      505F4441 
 3570      54415F42 
 3571              	.LASF201:
 3572 0a68 63686172 		.ascii	"charLen\000"
 3572      4C656E00 
 3573              	.LASF71:
 3574 0a70 4359424C 		.ascii	"CYBLE_EVT_L2CAP_COMMAND_REJ\000"
 3574      455F4556 
 3574      545F4C32 
 3574      4341505F 
 3574      434F4D4D 
 3575              	.LASF24:
 3576 0a8c 4359424C 		.ascii	"CYBLE_EVT_GAPC_SCAN_PROGRESS_RESULT\000"
 3576      455F4556 
 3576      545F4741 
ARM GAS  C:\Users\sunyi\AppData\Local\Temp\ccXDbPBi.s 			page 96


 3576      50435F53 
 3576      43414E5F 
 3577              	.LASF210:
 3578 0ab0 6379426C 		.ascii	"cyBle_eventHandlerFlag\000"
 3578      655F6576 
 3578      656E7448 
 3578      616E646C 
 3578      6572466C 
 3579              	.LASF110:
 3580 0ac7 4359424C 		.ascii	"CYBLE_ERROR_MAX\000"
 3580      455F4552 
 3580      524F525F 
 3580      4D415800 
 3581              	.LASF108:
 3582 0ad7 4359424C 		.ascii	"CYBLE_ERROR_FLASH_WRITE\000"
 3582      455F4552 
 3582      524F525F 
 3582      464C4153 
 3582      485F5752 
 3583              	.LASF50:
 3584 0aef 4359424C 		.ascii	"CYBLE_EVT_GATTC_READ_BY_TYPE_RSP\000"
 3584      455F4556 
 3584      545F4741 
 3584      5454435F 
 3584      52454144 
 3585              	.LASF216:
 3586 0b10 6379426C 		.ascii	"cyBle_discoveryModeInfo\000"
 3586      655F6469 
 3586      73636F76 
 3586      6572794D 
 3586      6F646549 
 3587              	.LASF16:
 3588 0b28 73697A65 		.ascii	"sizetype\000"
 3588      74797065 
 3588      00
 3589              	.LASF174:
 3590 0b31 4359424C 		.ascii	"CYBLE_STATE_INITIALIZING\000"
 3590      455F5354 
 3590      4154455F 
 3590      494E4954 
 3590      49414C49 
 3591              	.LASF141:
 3592 0b4a 6F776E41 		.ascii	"ownAddrType\000"
 3592      64647254 
 3592      79706500 
 3593              	.LASF29:
 3594 0b56 4359424C 		.ascii	"CYBLE_EVT_GAP_AUTH_FAILED\000"
 3594      455F4556 
 3594      545F4741 
 3594      505F4155 
 3594      54485F46 
 3595              	.LASF200:
 3596 0b70 4379426C 		.ascii	"CyBle_GapSetLocalName\000"
 3596      655F4761 
 3596      70536574 
 3596      4C6F6361 
 3596      6C4E616D 
ARM GAS  C:\Users\sunyi\AppData\Local\Temp\ccXDbPBi.s 			page 97


 3597              	.LASF57:
 3598 0b86 4359424C 		.ascii	"CYBLE_EVT_GATTC_WRITE_RSP\000"
 3598      455F4556 
 3598      545F4741 
 3598      5454435F 
 3598      57524954 
 3599              	.LASF42:
 3600 0ba0 4359424C 		.ascii	"CYBLE_EVT_GAPC_DIRECT_ADV_REPORT\000"
 3600      455F4556 
 3600      545F4741 
 3600      50435F44 
 3600      49524543 
 3601              	.LASF40:
 3602 0bc1 4359424C 		.ascii	"CYBLE_EVT_GAP_DATA_LENGTH_CHANGE\000"
 3602      455F4556 
 3602      545F4741 
 3602      505F4441 
 3602      54415F4C 
 3603              	.LASF28:
 3604 0be2 4359424C 		.ascii	"CYBLE_EVT_GAP_AUTH_COMPLETE\000"
 3604      455F4556 
 3604      545F4741 
 3604      505F4155 
 3604      54485F43 
 3605              	.LASF181:
 3606 0bfe 61706952 		.ascii	"apiResult\000"
 3606      6573756C 
 3606      7400
 3607              	.LASF115:
 3608 0c08 4359424C 		.ascii	"CYBLE_API_RESULT_T\000"
 3608      455F4150 
 3608      495F5245 
 3608      53554C54 
 3608      5F5400
 3609              	.LASF187:
 3610 0c1b 4379426C 		.ascii	"CyBle_Stop\000"
 3610      655F5374 
 3610      6F7000
 3611              	.LASF62:
 3612 0c26 4359424C 		.ascii	"CYBLE_EVT_GATTC_HANDLE_VALUE_NTF\000"
 3612      455F4556 
 3612      545F4741 
 3612      5454435F 
 3612      48414E44 
 3613              	.LASF112:
 3614 0c47 4359424C 		.ascii	"CYBLE_ERROR_IND_DISABLED\000"
 3614      455F4552 
 3614      524F525F 
 3614      494E445F 
 3614      44495341 
 3615              	.LASF193:
 3616 0c60 64657374 		.ascii	"dest\000"
 3616      00
 3617              	.LASF164:
 3618 0c65 61747456 		.ascii	"attValueUuid\000"
 3618      616C7565 
 3618      55756964 
ARM GAS  C:\Users\sunyi\AppData\Local\Temp\ccXDbPBi.s 			page 98


 3618      00
 3619              	.LASF158:
 3620 0c72 61747447 		.ascii	"attGenericVal\000"
 3620      656E6572 
 3620      69635661 
 3620      6C00
 3621              	.LASF73:
 3622 0c80 4359424C 		.ascii	"CYBLE_EVT_L2CAP_CBFC_CONN_CNF\000"
 3622      455F4556 
 3622      545F4C32 
 3622      4341505F 
 3622      43424643 
 3623              	.LASF49:
 3624 0c9e 4359424C 		.ascii	"CYBLE_EVT_GATTC_READ_BY_GROUP_TYPE_RSP\000"
 3624      455F4556 
 3624      545F4741 
 3624      5454435F 
 3624      52454144 
 3625              	.LASF12:
 3626 0cc5 666C6F61 		.ascii	"float\000"
 3626      7400
 3627              	.LASF220:
 3628 0ccb 6379426C 		.ascii	"cyBle_advertisingIntervalType\000"
 3628      655F6164 
 3628      76657274 
 3628      6973696E 
 3628      67496E74 
 3629              	.LASF189:
 3630 0ce9 4379426C 		.ascii	"CyBle_GappStartAdvertisement\000"
 3630      655F4761 
 3630      70705374 
 3630      61727441 
 3630      64766572 
 3631              	.LASF142:
 3632 0d06 64697265 		.ascii	"directAddrType\000"
 3632      63744164 
 3632      64725479 
 3632      706500
 3633              	.LASF72:
 3634 0d15 4359424C 		.ascii	"CYBLE_EVT_L2CAP_CBFC_CONN_IND\000"
 3634      455F4556 
 3634      545F4C32 
 3634      4341505F 
 3634      43424643 
 3635              	.LASF123:
 3636 0d33 646C654D 		.ascii	"dleMaxRxCapability\000"
 3636      61785278 
 3636      43617061 
 3636      62696C69 
 3636      747900
 3637              	.LASF93:
 3638 0d46 4359424C 		.ascii	"CYBLE_ERROR_TX_POWER_READ\000"
 3638      455F4552 
 3638      524F525F 
 3638      54585F50 
 3638      4F574552 
 3639              	.LASF190:
ARM GAS  C:\Users\sunyi\AppData\Local\Temp\ccXDbPBi.s 			page 99


 3640 0d60 63616C6C 		.ascii	"callbackFunc\000"
 3640      6261636B 
 3640      46756E63 
 3640      00
 3641              	.LASF170:
 3642 0d6d 61747456 		.ascii	"attValue\000"
 3642      616C7565 
 3642      00
 3643              	.LASF222:
 3644 0d76 2E5C4765 		.ascii	".\\Generated_Source\\PSoC4\\CYBLE.c\000"
 3644      6E657261 
 3644      7465645F 
 3644      536F7572 
 3644      63655C50 
 3645              	.LASF1:
 3646 0d97 756E7369 		.ascii	"unsigned char\000"
 3646      676E6564 
 3646      20636861 
 3646      7200
 3647              	.LASF10:
 3648 0da5 75696E74 		.ascii	"uint16\000"
 3648      313600
 3649              	.LASF38:
 3650 0dac 4359424C 		.ascii	"CYBLE_EVT_GAP_KEYPRESS_NOTIFICATION\000"
 3650      455F4556 
 3650      545F4741 
 3650      505F4B45 
 3650      59505245 
 3651              	.LASF113:
 3652 0dd0 4359424C 		.ascii	"CYBLE_ERROR_CHAR_IS_NOT_DISCOVERED\000"
 3652      455F4552 
 3652      524F525F 
 3652      43484152 
 3652      5F49535F 
 3653              	.LASF2:
 3654 0df3 73686F72 		.ascii	"short int\000"
 3654      7420696E 
 3654      7400
 3655              	.LASF63:
 3656 0dfd 4359424C 		.ascii	"CYBLE_EVT_GATTC_HANDLE_VALUE_IND\000"
 3656      455F4556 
 3656      545F4741 
 3656      5454435F 
 3656      48414E44 
 3657              	.LASF204:
 3658 0e1e 4379426C 		.ascii	"CyBle_ChangeAdDeviceAddress\000"
 3658      655F4368 
 3658      616E6765 
 3658      41644465 
 3658      76696365 
 3659              	.LASF196:
 3660 0e3a 666C6167 		.ascii	"flag\000"
 3660      00
 3661              	.LASF89:
 3662 0e3f 4359424C 		.ascii	"CYBLE_ERROR_NO_CONNECTION\000"
 3662      455F4552 
 3662      524F525F 
ARM GAS  C:\Users\sunyi\AppData\Local\Temp\ccXDbPBi.s 			page 100


 3662      4E4F5F43 
 3662      4F4E4E45 
 3663              	.LASF186:
 3664 0e59 66656174 		.ascii	"featureHeapReq\000"
 3664      75726548 
 3664      65617052 
 3664      657100
 3665              	.LASF59:
 3666 0e68 4359424C 		.ascii	"CYBLE_EVT_GATTS_PREP_WRITE_REQ\000"
 3666      455F4556 
 3666      545F4741 
 3666      5454535F 
 3666      50524550 
 3667              	.LASF138:
 3668 0e87 61647649 		.ascii	"advIntvMin\000"
 3668      6E74764D 
 3668      696E00
 3669              	.LASF136:
 3670 0e92 4359424C 		.ascii	"CYBLE_GAPP_CONNECTABLE_LOW_DC_DIRECTED_ADV\000"
 3670      455F4741 
 3670      50505F43 
 3670      4F4E4E45 
 3670      43544142 
 3671              	.LASF147:
 3672 0ebd 61647644 		.ascii	"advData\000"
 3672      61746100 
 3673              	.LASF207:
 3674 0ec5 4379426C 		.ascii	"CyBle_ApplCallback\000"
 3674      655F4170 
 3674      706C4361 
 3674      6C6C6261 
 3674      636B00
 3675              	.LASF224:
 3676 0ed8 4379426C 		.ascii	"CyBle_ChangeAdLocalName\000"
 3676      655F4368 
 3676      616E6765 
 3676      41644C6F 
 3676      63616C4E 
 3677              	.LASF64:
 3678 0ef0 4359424C 		.ascii	"CYBLE_EVT_GATTS_HANDLE_VALUE_CNF\000"
 3678      455F4556 
 3678      545F4741 
 3678      5454535F 
 3678      48414E44 
 3679              	.LASF91:
 3680 0f11 4359424C 		.ascii	"CYBLE_ERROR_REPEATED_ATTEMPTS\000"
 3680      455F4552 
 3680      524F525F 
 3680      52455045 
 3680      41544544 
 3681              	.LASF43:
 3682 0f2f 4359424C 		.ascii	"CYBLE_EVT_GAP_SMP_NEGOTIATED_AUTH_INFO\000"
 3682      455F4556 
 3682      545F4741 
 3682      505F534D 
 3682      505F4E45 
 3683              	.LASF182:
ARM GAS  C:\Users\sunyi\AppData\Local\Temp\ccXDbPBi.s 			page 101


 3684 0f56 6379426C 		.ascii	"cyBle_stackDataBuff\000"
 3684      655F7374 
 3684      61636B44 
 3684      61746142 
 3684      75666600 
 3685              	.LASF199:
 3686 0f6a 6D61784C 		.ascii	"maxLength\000"
 3686      656E6774 
 3686      6800
 3687              	.LASF217:
 3688 0f74 6379426C 		.ascii	"cyBle_gattDB\000"
 3688      655F6761 
 3688      74744442 
 3688      00
 3689              	.LASF15:
 3690 0f81 63686172 		.ascii	"char\000"
 3690      00
 3691              	.LASF94:
 3692 0f86 4359424C 		.ascii	"CYBLE_ERROR_BT_ON_NOT_COMPLETED\000"
 3692      455F4552 
 3692      524F525F 
 3692      42545F4F 
 3692      4E5F4E4F 
 3693              	.LASF197:
 3694 0fa6 61644C65 		.ascii	"adLength\000"
 3694      6E677468 
 3694      00
 3695              	.LASF32:
 3696 0faf 4359424C 		.ascii	"CYBLE_EVT_GAP_DEVICE_DISCONNECTED\000"
 3696      455F4556 
 3696      545F4741 
 3696      505F4445 
 3696      56494345 
 3697              	.LASF191:
 3698 0fd1 61647665 		.ascii	"advertisingIntervalType\000"
 3698      72746973 
 3698      696E6749 
 3698      6E746572 
 3698      76616C54 
 3699              	.LASF8:
 3700 0fe9 756E7369 		.ascii	"unsigned int\000"
 3700      676E6564 
 3700      20696E74 
 3700      00
 3701              	.LASF169:
 3702 0ff6 61747445 		.ascii	"attEndHandle\000"
 3702      6E644861 
 3702      6E646C65 
 3702      00
 3703              	.LASF67:
 3704 1003 4359424C 		.ascii	"CYBLE_EVT_GATTS_READ_CHAR_VAL_ACCESS_REQ\000"
 3704      455F4556 
 3704      545F4741 
 3704      5454535F 
 3704      52454144 
 3705              	.LASF119:
 3706 102c 62756666 		.ascii	"bufferSize\000"
ARM GAS  C:\Users\sunyi\AppData\Local\Temp\ccXDbPBi.s 			page 102


 3706      65725369 
 3706      7A6500
 3707              	.LASF146:
 3708 1037 4359424C 		.ascii	"CYBLE_GAPP_DISC_PARAM_T\000"
 3708      455F4741 
 3708      50505F44 
 3708      4953435F 
 3708      50415241 
 3709              	.LASF14:
 3710 104f 63686172 		.ascii	"char8\000"
 3710      3800
 3711              	.LASF104:
 3712 1055 4359424C 		.ascii	"CYBLE_ERROR_FLASH_WRITE_NOT_PERMITED\000"
 3712      455F4552 
 3712      524F525F 
 3712      464C4153 
 3712      485F5752 
 3713              	.LASF99:
 3714 107a 4359424C 		.ascii	"CYBLE_ERROR_L2CAP_CONNECTION_ENTITY_NOT_FOUND\000"
 3714      455F4552 
 3714      524F525F 
 3714      4C324341 
 3714      505F434F 
 3715              	.LASF131:
 3716 10a8 4359424C 		.ascii	"CYBLE_STACK_CONFIG_PARAM_T\000"
 3716      455F5354 
 3716      41434B5F 
 3716      434F4E46 
 3716      49475F50 
 3717              	.LASF20:
 3718 10c3 4359424C 		.ascii	"CYBLE_EVT_HARDWARE_ERROR\000"
 3718      455F4556 
 3718      545F4841 
 3718      52445741 
 3718      52455F45 
 3719              	.LASF3:
 3720 10dc 73686F72 		.ascii	"short unsigned int\000"
 3720      7420756E 
 3720      7369676E 
 3720      65642069 
 3720      6E7400
 3721              	.LASF171:
 3722 10ef 4359424C 		.ascii	"CYBLE_GATTS_DB_T\000"
 3722      455F4741 
 3722      5454535F 
 3722      44425F54 
 3722      00
 3723              	.LASF85:
 3724 1100 4359424C 		.ascii	"CYBLE_ERROR_INVALID_OPERATION\000"
 3724      455F4552 
 3724      524F525F 
 3724      494E5641 
 3724      4C49445F 
 3725              	.LASF129:
 3726 111e 70726976 		.ascii	"privacyConfig\000"
 3726      61637943 
 3726      6F6E6669 
ARM GAS  C:\Users\sunyi\AppData\Local\Temp\ccXDbPBi.s 			page 103


 3726      6700
 3727              	.LASF172:
 3728 112c 4359424C 		.ascii	"CYBLE_CALLBACK_T\000"
 3728      455F4341 
 3728      4C4C4241 
 3728      434B5F54 
 3728      00
 3729              	.LASF159:
 3730 113d 4359424C 		.ascii	"CYBLE_GATTS_ATT_GEN_VAL_LEN_T\000"
 3730      455F4741 
 3730      5454535F 
 3730      4154545F 
 3730      47454E5F 
 3731              	.LASF198:
 3732 115b 62797465 		.ascii	"byteCounter\000"
 3732      436F756E 
 3732      74657200 
 3733              	.LASF156:
 3734 1167 4359424C 		.ascii	"CYBLE_GAPP_DISC_MODE_INFO_T\000"
 3734      455F4741 
 3734      50505F44 
 3734      4953435F 
 3734      4D4F4445 
 3735              	.LASF154:
 3736 1183 61647650 		.ascii	"advParam\000"
 3736      6172616D 
 3736      00
 3737              	.LASF137:
 3738 118c 4359424C 		.ascii	"CYBLE_GAPP_ADV_T\000"
 3738      455F4741 
 3738      50505F41 
 3738      44565F54 
 3738      00
 3739              	.LASF130:
 3740 119d 66656174 		.ascii	"feature_mask\000"
 3740      7572655F 
 3740      6D61736B 
 3740      00
 3741              	.LASF178:
 3742 11aa 4359424C 		.ascii	"CYBLE_STATE_T\000"
 3742      455F5354 
 3742      4154455F 
 3742      5400
 3743              	.LASF223:
 3744 11b8 433A5C55 		.ascii	"C:\\Users\\sunyi\\Desktop\\BLE_Proximity\\BLE_Proxi"
 3744      73657273 
 3744      5C73756E 
 3744      79695C44 
 3744      65736B74 
 3745 11e6 6D697479 		.ascii	"mity.cydsn\000"
 3745      2E637964 
 3745      736E00
 3746              	.LASF135:
 3747 11f1 4359424C 		.ascii	"CYBLE_GAPP_NON_CONNECTABLE_UNDIRECTED_ADV\000"
 3747      455F4741 
 3747      50505F4E 
 3747      4F4E5F43 
ARM GAS  C:\Users\sunyi\AppData\Local\Temp\ccXDbPBi.s 			page 104


 3747      4F4E4E45 
 3748              	.LASF54:
 3749 121b 4359424C 		.ascii	"CYBLE_EVT_GATTC_READ_BLOB_RSP\000"
 3749      455F4556 
 3749      545F4741 
 3749      5454435F 
 3749      52454144 
 3750              	.LASF161:
 3751 1239 61747447 		.ascii	"attGenericValLen\000"
 3751      656E6572 
 3751      69635661 
 3751      6C4C656E 
 3751      00
 3752              	.LASF185:
 3753 124a 73746163 		.ascii	"stackConfig\000"
 3753      6B436F6E 
 3753      66696700 
 3754              	.LASF211:
 3755 1256 6379426C 		.ascii	"cyBle_deviceAddress\000"
 3755      655F6465 
 3755      76696365 
 3755      41646472 
 3755      65737300 
 3756              	.LASF215:
 3757 126a 6379426C 		.ascii	"cyBle_scanRspData\000"
 3757      655F7363 
 3757      616E5273 
 3757      70446174 
 3757      6100
 3758              	.LASF105:
 3759 127c 4359424C 		.ascii	"CYBLE_ERROR_MIC_AUTH_FAILED\000"
 3759      455F4552 
 3759      524F525F 
 3759      4D49435F 
 3759      41555448 
 3760              	.LASF125:
 3761 1298 4359424C 		.ascii	"CYBLE_DLE_CONFIG_PARAM_T\000"
 3761      455F444C 
 3761      455F434F 
 3761      4E464947 
 3761      5F504152 
 3762              	.LASF98:
 3763 12b1 4359424C 		.ascii	"CYBLE_ERROR_L2CAP_PSM_NOT_REGISTERED\000"
 3763      455F4552 
 3763      524F525F 
 3763      4C324341 
 3763      505F5053 
 3764              	.LASF212:
 3765 12d6 6379426C 		.ascii	"cyBle_sflashDeviceAddress\000"
 3765      655F7366 
 3765      6C617368 
 3765      44657669 
 3765      63654164 
 3766              	.LASF175:
 3767 12f0 4359424C 		.ascii	"CYBLE_STATE_CONNECTED\000"
 3767      455F5354 
 3767      4154455F 
ARM GAS  C:\Users\sunyi\AppData\Local\Temp\ccXDbPBi.s 			page 105


 3767      434F4E4E 
 3767      45435445 
 3768              	.LASF221:
 3769 1306 474E5520 		.ascii	"GNU C 4.9.3 20150303 (release) [ARM/embedded-4_9-br"
 3769      4320342E 
 3769      392E3320 
 3769      32303135 
 3769      30333033 
 3770 1339 616E6368 		.ascii	"anch revision 221220] -mcpu=cortex-m0 -mthumb -g -O"
 3770      20726576 
 3770      6973696F 
 3770      6E203232 
 3770      31323230 
 3771 136c 30202D66 		.ascii	"0 -ffunction-sections -ffat-lto-objects\000"
 3771      66756E63 
 3771      74696F6E 
 3771      2D736563 
 3771      74696F6E 
 3772              	.LASF52:
 3773 1394 4359424C 		.ascii	"CYBLE_EVT_GATTC_FIND_BY_TYPE_VALUE_RSP\000"
 3773      455F4556 
 3773      545F4741 
 3773      5454435F 
 3773      46494E44 
 3774              	.LASF92:
 3775 13bb 4359424C 		.ascii	"CYBLE_ERROR_GAP_ROLE\000"
 3775      455F4552 
 3775      524F525F 
 3775      4741505F 
 3775      524F4C45 
 3776              	.LASF128:
 3777 13d0 646C6543 		.ascii	"dleConfig\000"
 3777      6F6E6669 
 3777      6700
 3778              	.LASF36:
 3779 13da 4359424C 		.ascii	"CYBLE_EVT_GAP_KEYINFO_EXCHNGE_CMPLT\000"
 3779      455F4556 
 3779      545F4741 
 3779      505F4B45 
 3779      59494E46 
 3780              	.LASF203:
 3781 13fe 4379426C 		.ascii	"CyBle_Get16ByPtr\000"
 3781      655F4765 
 3781      74313642 
 3781      79507472 
 3781      00
 3782              	.LASF74:
 3783 140f 4359424C 		.ascii	"CYBLE_EVT_L2CAP_CBFC_DISCONN_IND\000"
 3783      455F4556 
 3783      545F4C32 
 3783      4341505F 
 3783      43424643 
 3784              	.LASF80:
 3785 1430 4359424C 		.ascii	"CYBLE_EVT_PENDING_FLASH_WRITE\000"
 3785      455F4556 
 3785      545F5045 
 3785      4E44494E 
ARM GAS  C:\Users\sunyi\AppData\Local\Temp\ccXDbPBi.s 			page 106


 3785      475F464C 
 3786              	.LASF179:
 3787 144e 4379426C 		.ascii	"CyBle_Init\000"
 3787      655F496E 
 3787      697400
 3788              	.LASF70:
 3789 1459 4359424C 		.ascii	"CYBLE_EVT_L2CAP_CONN_PARAM_UPDATE_RSP\000"
 3789      455F4556 
 3789      545F4C32 
 3789      4341505F 
 3789      434F4E4E 
 3790              	.LASF41:
 3791 147f 4359424C 		.ascii	"CYBLE_EVT_GAP_ENHANCE_CONN_COMPLETE\000"
 3791      455F4556 
 3791      545F4741 
 3791      505F454E 
 3791      48414E43 
 3792              	.LASF155:
 3793 14a3 61647654 		.ascii	"advTo\000"
 3793      6F00
 3794              	.LASF46:
 3795 14a9 4359424C 		.ascii	"CYBLE_EVT_GATT_DISCONNECT_IND\000"
 3795      455F4556 
 3795      545F4741 
 3795      54545F44 
 3795      4953434F 
 3796              	.LASF102:
 3797 14c7 4359424C 		.ascii	"CYBLE_ERROR_GATT_DB_INVALID_ATTR_HANDLE\000"
 3797      455F4552 
 3797      524F525F 
 3797      47415454 
 3797      5F44425F 
 3798              	.LASF126:
 3799 14ef 7265736F 		.ascii	"resolvingListSize\000"
 3799      6C76696E 
 3799      674C6973 
 3799      7453697A 
 3799      6500
 3800              		.ident	"GCC: (GNU Tools for ARM Embedded Processors) 4.9.3 20150303 (release) [ARM/embedded-4_9-br
