ARM GAS  C:\Users\sunyi\AppData\Local\Temp\ccAJOpVh.s 			page 1


   1              		.cpu cortex-m0
   2              		.fpu softvfp
   3              		.eabi_attribute 20, 1
   4              		.eabi_attribute 21, 1
   5              		.eabi_attribute 23, 3
   6              		.eabi_attribute 24, 1
   7              		.eabi_attribute 25, 1
   8              		.eabi_attribute 26, 1
   9              		.eabi_attribute 30, 6
  10              		.eabi_attribute 34, 0
  11              		.eabi_attribute 18, 4
  12              		.code	16
  13              		.file	"main.c"
  14              		.text
  15              	.Ltext0:
  16              		.cfi_sections	.debug_frame
  17              		.comm	connectionHandle,2,4
  18              		.global	ledState
  19              		.data
  20              		.type	ledState, %object
  21              		.size	ledState, 1
  22              	ledState:
  23 0000 01       		.byte	1
  24              		.global	advLedState
  25              		.type	advLedState, %object
  26              		.size	advLedState, 1
  27              	advLedState:
  28 0001 01       		.byte	1
  29              		.global	alertLedState
  30              		.type	alertLedState, %object
  31              		.size	alertLedState, 1
  32              	alertLedState:
  33 0002 01       		.byte	1
  34              		.global	state
  35              		.bss
  36              		.type	state, %object
  37              		.size	state, 1
  38              	state:
  39 0000 00       		.space	1
  40              		.comm	alertBlinkDelayCount,2,2
  41              		.comm	advBlinkDelayCount,2,2
  42              		.global	displayAlertMessage
  43              		.data
  44              		.type	displayAlertMessage, %object
  45              		.size	displayAlertMessage, 1
  46              	displayAlertMessage:
  47 0003 01       		.byte	1
  48              		.global	buttonState
  49              		.bss
  50              		.type	buttonState, %object
  51              		.size	buttonState, 1
  52              	buttonState:
  53 0001 00       		.space	1
  54              		.section	.rodata
  55              		.align	2
  56              	.LC0:
  57 0000 426C7565 		.ascii	"Bluetooth On. Device address is: \000"
ARM GAS  C:\Users\sunyi\AppData\Local\Temp\ccAJOpVh.s 			page 2


  57      746F6F74 
  57      68204F6E 
  57      2E204465 
  57      76696365 
  58 0022 0000     		.align	2
  59              	.LC2:
  60 0024 25322E32 		.ascii	"%2.2x\000"
  60      7800
  61 002a 0000     		.align	2
  62              	.LC4:
  63 002c 0D00     		.ascii	"\015\000"
  64 002e 0000     		.align	2
  65              	.LC6:
  66 0030 53746172 		.ascii	"StartAdvertisement API Error: %d \015\012\000"
  66      74416476 
  66      65727469 
  66      73656D65 
  66      6E742041 
  67              		.align	2
  68              	.LC8:
  69 0054 41647665 		.ascii	"Advertisement timeout occurred. Advertisement will "
  69      72746973 
  69      656D656E 
  69      74207469 
  69      6D656F75 
  70 0087 62652064 		.ascii	"be disabled.\015\000"
  70      69736162 
  70      6C65642E 
  70      0D00
  71 0095 000000   		.align	2
  72              	.LC10:
  73 0098 54696D65 		.ascii	"Timeout occurred.\015\000"
  73      6F757420 
  73      6F636375 
  73      72726564 
  73      2E0D00
  74 00ab 00       		.align	2
  75              	.LC12:
  76 00ac 48617264 		.ascii	"Hardware Error \015\000"
  76      77617265 
  76      20457272 
  76      6F72200D 
  76      00
  77 00bd 000000   		.align	2
  78              	.LC14:
  79 00c0 48434920 		.ascii	"HCI Error. Error code is %x.\015\012\000"
  79      4572726F 
  79      722E2045 
  79      72726F72 
  79      20636F64 
  80 00df 00       		.align	2
  81              	.LC18:
  82 00e0 41647665 		.ascii	"Advertisement is disabled \015\000"
  82      72746973 
  82      656D656E 
  82      74206973 
  82      20646973 
ARM GAS  C:\Users\sunyi\AppData\Local\Temp\ccAJOpVh.s 			page 3


  83              		.align	2
  84              	.LC20:
  85 00fc 41647665 		.ascii	"Advertisement is enabled \015\000"
  85      72746973 
  85      656D656E 
  85      74206973 
  85      20656E61 
  86 0117 00       		.align	2
  87              	.LC22:
  88 0118 4661696C 		.ascii	"Failed to stop advertising \015\000"
  88      65642074 
  88      6F207374 
  88      6F702061 
  88      64766572 
  89 0135 000000   		.align	2
  90              	.LC24:
  91 0138 4661696C 		.ascii	"Failed to start advertising \015\000"
  91      65642074 
  91      6F207374 
  91      61727420 
  91      61647665 
  92 0156 0000     		.align	2
  93              	.LC26:
  94 0158 4359424C 		.ascii	"CYBLE_EVT_GAP_DEVICE_CONNECTED: %d \015\012\000"
  94      455F4556 
  94      545F4741 
  94      505F4445 
  94      56494345 
  95 017e 0000     		.align	2
  96              	.LC28:
  97 0180 4359424C 		.ascii	"CYBLE_EVT_GAP_DEVICE_DISCONNECTED\015\000"
  97      455F4556 
  97      545F4741 
  97      505F4445 
  97      56494345 
  98 01a3 00       		.align	2
  99              	.LC30:
 100 01a4 53746172 		.ascii	"StartAdvertisement API Error: %d\015\012\000"
 100      74416476 
 100      65727469 
 100      73656D65 
 100      6E742041 
 101 01c7 00       		.align	2
 102              	.LC32:
 103 01c8 4359424C 		.ascii	"CYBLE_EVT_GATT_CONNECT_IND: %x\015\012\000"
 103      455F4556 
 103      545F4741 
 103      54545F43 
 103      4F4E4E45 
 104 01e9 000000   		.align	2
 105              	.LC34:
 106 01ec 4359424C 		.ascii	"CYBLE_EVT_GATT_DISCONNECT_IND:\015\000"
 106      455F4556 
 106      545F4741 
 106      54545F44 
 106      4953434F 
 107              		.section	.text.GenericAppEventHandler,"ax",%progbits
ARM GAS  C:\Users\sunyi\AppData\Local\Temp\ccAJOpVh.s 			page 4


 108              		.align	2
 109              		.global	GenericAppEventHandler
 110              		.code	16
 111              		.thumb_func
 112              		.type	GenericAppEventHandler, %function
 113              	GenericAppEventHandler:
 114              	.LFB37:
 115              		.file 1 ".\\main.c"
   1:.\main.c      **** /*******************************************************************************
   2:.\main.c      **** * File Name: main.c
   3:.\main.c      **** *
   4:.\main.c      **** * Version: 1.0
   5:.\main.c      **** *
   6:.\main.c      **** * Description:
   7:.\main.c      **** *  This is source code for the CYBLE Proximity Profile example project. In this
   8:.\main.c      **** *  example project the CYBLE component is configured for Proximity Reporter
   9:.\main.c      **** *  profile role.
  10:.\main.c      **** *
  11:.\main.c      **** ********************************************************************************
  12:.\main.c      **** * Copyright 2015, Cypress Semiconductor Corporation.  All rights reserved.
  13:.\main.c      **** * You may use this file only in accordance with the license, terms, conditions,
  14:.\main.c      **** * disclaimers, and limitations in the end user license agreement accompanying
  15:.\main.c      **** * the software package with which this file was provided.
  16:.\main.c      **** *******************************************************************************/
  17:.\main.c      **** 
  18:.\main.c      **** #include "common.h"
  19:.\main.c      **** 
  20:.\main.c      **** 
  21:.\main.c      **** /***************************************
  22:.\main.c      **** *          API Constants
  23:.\main.c      **** ***************************************/
  24:.\main.c      **** #define DISCONNECTED                        (0u)
  25:.\main.c      **** #define ADVERTISING                         (1u)
  26:.\main.c      **** #define CONNECTED                           (2u)
  27:.\main.c      **** 
  28:.\main.c      **** #define ALERT_TO                            (20u)
  29:.\main.c      **** #define BLINK_DELAY                         (15u)
  30:.\main.c      **** 
  31:.\main.c      **** 
  32:.\main.c      **** /***************************************
  33:.\main.c      **** *        Global Variables
  34:.\main.c      **** ***************************************/
  35:.\main.c      **** CYBLE_CONN_HANDLE_T  	connectionHandle;
  36:.\main.c      **** uint8                	ledState = LED_OFF;
  37:.\main.c      **** uint8                	advLedState = LED_OFF;
  38:.\main.c      **** uint8                	alertLedState = LED_OFF;
  39:.\main.c      **** uint8                	state = DISCONNECTED;
  40:.\main.c      **** uint16               	alertBlinkDelayCount;
  41:.\main.c      **** uint16               	advBlinkDelayCount;
  42:.\main.c      **** uint8                	displayAlertMessage = YES;
  43:.\main.c      **** uint8                	buttonState = BUTTON_IS_NOT_PRESSED;
  44:.\main.c      **** extern volatile uint8 	tps_notification_enabled;
  45:.\main.c      **** 
  46:.\main.c      **** /*******************************************************************************
  47:.\main.c      **** * Function Name: GenericAppEventHandler
  48:.\main.c      **** ********************************************************************************
  49:.\main.c      **** *
ARM GAS  C:\Users\sunyi\AppData\Local\Temp\ccAJOpVh.s 			page 5


  50:.\main.c      **** * Summary:
  51:.\main.c      **** *  This is an event callback function to receive events from the CYBLE Component.
  52:.\main.c      **** *
  53:.\main.c      **** * Parameters:
  54:.\main.c      **** *  uint8 event:       Event from the CYBLE component.
  55:.\main.c      **** *  void* eventParams: A structure instance for corresponding event type. The
  56:.\main.c      **** *                     list of events structure is described in the component
  57:.\main.c      **** *                     datasheet.
  58:.\main.c      **** *
  59:.\main.c      **** * Return:
  60:.\main.c      **** *  None
  61:.\main.c      **** *
  62:.\main.c      **** *******************************************************************************/
  63:.\main.c      **** void GenericAppEventHandler(uint32 event, void *eventParam)
  64:.\main.c      **** {
 116              		.loc 1 64 0
 117              		.cfi_startproc
 118 0000 90B5     		push	{r4, r7, lr}
 119              		.cfi_def_cfa_offset 12
 120              		.cfi_offset 4, -12
 121              		.cfi_offset 7, -8
 122              		.cfi_offset 14, -4
 123 0002 87B0     		sub	sp, sp, #28
 124              		.cfi_def_cfa_offset 40
 125 0004 00AF     		add	r7, sp, #0
 126              		.cfi_def_cfa_register 7
 127 0006 7860     		str	r0, [r7, #4]
 128 0008 3960     		str	r1, [r7]
  65:.\main.c      ****     CYBLE_API_RESULT_T apiResult;
  66:.\main.c      ****     CYBLE_GAP_BD_ADDR_T localAddr;
  67:.\main.c      ****     uint8 i;
  68:.\main.c      **** 
  69:.\main.c      ****     switch(event)
 129              		.loc 1 69 0
 130 000a 7B68     		ldr	r3, [r7, #4]
 131 000c 272B     		cmp	r3, #39
 132 000e 00D1     		bne	.LCB17
 133 0010 A8E0     		b	.L3	@long jump
 134              	.LCB17:
 135 0012 0FD8     		bhi	.L4
 136 0014 032B     		cmp	r3, #3
 137 0016 00D1     		bne	.LCB21
 138 0018 6FE0     		b	.L5	@long jump
 139              	.LCB21:
 140 001a 04D8     		bhi	.L6
 141 001c 012B     		cmp	r3, #1
 142 001e 1DD0     		beq	.L7
 143 0020 022B     		cmp	r3, #2
 144 0022 5CD0     		beq	.L8
  70:.\main.c      ****     {
  71:.\main.c      ****     /**********************************************************
  72:.\main.c      ****     *                       General Events
  73:.\main.c      ****     ***********************************************************/
  74:.\main.c      ****     case CYBLE_EVT_STACK_ON: /* This event is received when the component is Started */
  75:.\main.c      ****         printf("Bluetooth On. Device address is: ");
  76:.\main.c      ****         CyBle_GetDeviceAddress(&localAddr);
  77:.\main.c      ****         for(i = CYBLE_GAP_BD_ADDR_SIZE; i > 0u; i--)
ARM GAS  C:\Users\sunyi\AppData\Local\Temp\ccAJOpVh.s 			page 6


  78:.\main.c      ****         {
  79:.\main.c      ****             printf("%2.2x", localAddr.bdAddr[i-1]);
  80:.\main.c      ****         }
  81:.\main.c      ****         printf("\r\n");
  82:.\main.c      **** 
  83:.\main.c      ****         /* Enter discoverable mode so that the remote Client could find the device. */
  84:.\main.c      ****         apiResult = CyBle_GappStartAdvertisement(CYBLE_ADVERTISING_FAST);
  85:.\main.c      **** 
  86:.\main.c      ****         if(apiResult != CYBLE_ERROR_OK)
  87:.\main.c      ****         {
  88:.\main.c      ****             printf("StartAdvertisement API Error: %d \r\n", apiResult);
  89:.\main.c      ****         }
  90:.\main.c      ****         break;
  91:.\main.c      **** 
  92:.\main.c      ****     case CYBLE_EVT_TIMEOUT:
  93:.\main.c      ****         /* Possible timeout event parameter values:
  94:.\main.c      ****         * CYBLE_GAP_ADV_MODE_TO -> GAP limited discoverable mode timeout;
  95:.\main.c      ****         * CYBLE_GAP_AUTH_TO -> GAP pairing process timeout.
  96:.\main.c      ****         */
  97:.\main.c      ****         if(CYBLE_GAP_ADV_MODE_TO == *(uint8 *) eventParam)
  98:.\main.c      ****         {
  99:.\main.c      ****             printf("Advertisement timeout occurred. Advertisement will be disabled.\r\n");
 100:.\main.c      ****         }
 101:.\main.c      ****         else
 102:.\main.c      ****         {
 103:.\main.c      ****             printf("Timeout occurred.\r\n");
 104:.\main.c      ****         }
 105:.\main.c      ****         break;
 106:.\main.c      **** 
 107:.\main.c      ****     case CYBLE_EVT_HARDWARE_ERROR:    /* This event indicates that some internal HW error has occur
 108:.\main.c      ****         printf("Hardware Error \r\n");
 109:.\main.c      ****         break;
 110:.\main.c      **** 
 111:.\main.c      ****     case CYBLE_EVT_HCI_STATUS:
 112:.\main.c      ****         printf("HCI Error. Error code is %x.\r\n", *(uint8 *) eventParam);
 113:.\main.c      ****         break;
 114:.\main.c      **** 
 115:.\main.c      ****     /**********************************************************
 116:.\main.c      ****     *                       GAP Events
 117:.\main.c      ****     ***********************************************************/
 118:.\main.c      ****     case CYBLE_EVT_GAPP_ADVERTISEMENT_START_STOP:
 119:.\main.c      ****         if(0u == connectionHandle.attId)
 120:.\main.c      ****         {
 121:.\main.c      ****             if(ADVERTISING == state)
 122:.\main.c      ****             {
 123:.\main.c      ****                 printf("Advertisement is disabled \r\n");
 124:.\main.c      ****                 state = DISCONNECTED;
 125:.\main.c      ****             }
 126:.\main.c      ****             else
 127:.\main.c      ****             {
 128:.\main.c      ****                 printf("Advertisement is enabled \r\n");
 129:.\main.c      ****                 /* Device now is in Advertising state */
 130:.\main.c      ****                 state = ADVERTISING;
 131:.\main.c      ****             }
 132:.\main.c      ****         }
 133:.\main.c      ****         else
 134:.\main.c      ****         {
ARM GAS  C:\Users\sunyi\AppData\Local\Temp\ccAJOpVh.s 			page 7


 135:.\main.c      ****             /* Error occurred in the BLE Stack */
 136:.\main.c      ****             if(ADVERTISING == state)
 137:.\main.c      ****             {
 138:.\main.c      ****                 printf("Failed to stop advertising \r\n");
 139:.\main.c      ****             }
 140:.\main.c      ****             else
 141:.\main.c      ****             {
 142:.\main.c      ****                 printf("Failed to start advertising \r\n");
 143:.\main.c      ****             }
 144:.\main.c      ****         }
 145:.\main.c      ****         break;
 146:.\main.c      **** 
 147:.\main.c      ****     case CYBLE_EVT_GAP_DEVICE_CONNECTED:
 148:.\main.c      ****         printf("CYBLE_EVT_GAP_DEVICE_CONNECTED: %d \r\n", connectionHandle.bdHandle);
 149:.\main.c      ****         state = CONNECTED;
 150:.\main.c      ****         break;
 151:.\main.c      **** 
 152:.\main.c      ****     case CYBLE_EVT_GAP_DEVICE_DISCONNECTED:
 153:.\main.c      ****         printf("CYBLE_EVT_GAP_DEVICE_DISCONNECTED\r\n");
 154:.\main.c      ****         /* Enter discoverable mode so that remote Client could find the device. */
 155:.\main.c      ****         apiResult = CyBle_GappStartAdvertisement(CYBLE_ADVERTISING_FAST);
 156:.\main.c      ****         connectionHandle.bdHandle = 0u;
 157:.\main.c      ****         if(apiResult != CYBLE_ERROR_OK)
 158:.\main.c      ****         {
 159:.\main.c      ****             printf("StartAdvertisement API Error: %d\r\n", apiResult);
 160:.\main.c      ****         }
 161:.\main.c      ****         break;
 162:.\main.c      **** 
 163:.\main.c      ****     /**********************************************************
 164:.\main.c      ****     *                       GATT Events
 165:.\main.c      ****     ***********************************************************/
 166:.\main.c      ****     case CYBLE_EVT_GATT_CONNECT_IND:
 167:.\main.c      ****         /* GATT connection was established */
 168:.\main.c      ****         connectionHandle = *(CYBLE_CONN_HANDLE_T *) eventParam;
 169:.\main.c      ****         printf("CYBLE_EVT_GATT_CONNECT_IND: %x\r\n", connectionHandle.attId);
 170:.\main.c      ****         break;
 171:.\main.c      **** 
 172:.\main.c      ****     case CYBLE_EVT_GATT_DISCONNECT_IND:
 173:.\main.c      ****         /* GATT connection was disabled */
 174:.\main.c      ****         printf("CYBLE_EVT_GATT_DISCONNECT_IND:\r\n");
 175:.\main.c      ****         connectionHandle.attId = 0u;
 176:.\main.c      **** 
 177:.\main.c      **** 		tps_notification_enabled = 0;
 178:.\main.c      ****         /* Get the LLS Alert Level from the GATT database */
 179:.\main.c      ****         (void) CyBle_LlssGetCharacteristicValue(CYBLE_LLS_ALERT_LEVEL, CYBLE_LLS_ALERT_LEVEL_SIZE, 
 180:.\main.c      ****         break;
 181:.\main.c      **** 
 182:.\main.c      ****     case CYBLE_EVT_GATTS_XCNHG_MTU_REQ:
 183:.\main.c      ****         break;
 184:.\main.c      **** 
 185:.\main.c      ****     case CYBLE_EVT_GATTS_INDICATION_ENABLED:
 186:.\main.c      ****         break;
 187:.\main.c      **** 
 188:.\main.c      ****     default:
 189:.\main.c      ****     #if (0)
 190:.\main.c      ****         printf("Other event - %x \r\n", LO16(event));
 191:.\main.c      ****     #endif
ARM GAS  C:\Users\sunyi\AppData\Local\Temp\ccAJOpVh.s 			page 8


 192:.\main.c      ****         break;
 145              		.loc 1 192 0
 146 0024 EEE0     		b	.L1
 147              	.L6:
  69:.\main.c      ****     {
 148              		.loc 1 69 0
 149 0026 042B     		cmp	r3, #4
 150 0028 00D1     		bne	.LCB33
 151 002a 6BE0     		b	.L9	@long jump
 152              	.LCB33:
 153 002c 262B     		cmp	r3, #38
 154 002e 00D1     		bne	.LCB35
 155 0030 71E0     		b	.L10	@long jump
 156              	.LCB35:
 157              		.loc 1 192 0
 158 0032 E7E0     		b	.L1
 159              	.L4:
  69:.\main.c      ****     {
 160              		.loc 1 69 0
 161 0034 422B     		cmp	r3, #66
 162 0036 00D1     		bne	.LCB41
 163 0038 D0E0     		b	.L11	@long jump
 164              	.LCB41:
 165 003a 06D8     		bhi	.L12
 166 003c 282B     		cmp	r3, #40
 167 003e 00D1     		bne	.LCB45
 168 0040 9CE0     		b	.L13	@long jump
 169              	.LCB45:
 170 0042 412B     		cmp	r3, #65
 171 0044 00D1     		bne	.LCB47
 172 0046 B6E0     		b	.L14	@long jump
 173              	.LCB47:
 174              		.loc 1 192 0
 175 0048 DCE0     		b	.L1
 176              	.L12:
  69:.\main.c      ****     {
 177              		.loc 1 69 0
 178 004a 432B     		cmp	r3, #67
 179 004c 00D1     		bne	.LCB53
 180 004e D6E0     		b	.L29	@long jump
 181              	.LCB53:
 182 0050 8222     		mov	r2, #130
 183 0052 5200     		lsl	r2, r2, #1
 184 0054 9342     		cmp	r3, r2
 185 0056 00D1     		bne	.LCB57
 186 0058 D3E0     		b	.L30	@long jump
 187              	.LCB57:
 188              		.loc 1 192 0
 189 005a D3E0     		b	.L1
 190              	.L7:
  75:.\main.c      ****         CyBle_GetDeviceAddress(&localAddr);
 191              		.loc 1 75 0
 192 005c 6B4B     		ldr	r3, .L31
 193 005e 181C     		mov	r0, r3
 194 0060 FFF7FEFF 		bl	printf
  76:.\main.c      ****         for(i = CYBLE_GAP_BD_ADDR_SIZE; i > 0u; i--)
 195              		.loc 1 76 0
ARM GAS  C:\Users\sunyi\AppData\Local\Temp\ccAJOpVh.s 			page 9


 196 0064 0C23     		mov	r3, #12
 197 0066 FB18     		add	r3, r7, r3
 198 0068 181C     		mov	r0, r3
 199 006a FFF7FEFF 		bl	CyBle_GetDeviceAddress
  77:.\main.c      ****         {
 200              		.loc 1 77 0
 201 006e 1723     		mov	r3, #23
 202 0070 FB18     		add	r3, r7, r3
 203 0072 0622     		mov	r2, #6
 204 0074 1A70     		strb	r2, [r3]
 205 0076 13E0     		b	.L17
 206              	.L18:
  79:.\main.c      ****         }
 207              		.loc 1 79 0 discriminator 3
 208 0078 1723     		mov	r3, #23
 209 007a FB18     		add	r3, r7, r3
 210 007c 1B78     		ldrb	r3, [r3]
 211 007e 013B     		sub	r3, r3, #1
 212 0080 0C22     		mov	r2, #12
 213 0082 BA18     		add	r2, r7, r2
 214 0084 D35C     		ldrb	r3, [r2, r3]
 215 0086 1A1C     		mov	r2, r3
 216 0088 614B     		ldr	r3, .L31+4
 217 008a 181C     		mov	r0, r3
 218 008c 111C     		mov	r1, r2
 219 008e FFF7FEFF 		bl	printf
  77:.\main.c      ****         {
 220              		.loc 1 77 0 discriminator 3
 221 0092 1723     		mov	r3, #23
 222 0094 FB18     		add	r3, r7, r3
 223 0096 1A78     		ldrb	r2, [r3]
 224 0098 1723     		mov	r3, #23
 225 009a FB18     		add	r3, r7, r3
 226 009c 013A     		sub	r2, r2, #1
 227 009e 1A70     		strb	r2, [r3]
 228              	.L17:
  77:.\main.c      ****         {
 229              		.loc 1 77 0 is_stmt 0 discriminator 1
 230 00a0 1723     		mov	r3, #23
 231 00a2 FB18     		add	r3, r7, r3
 232 00a4 1B78     		ldrb	r3, [r3]
 233 00a6 002B     		cmp	r3, #0
 234 00a8 E6D1     		bne	.L18
  81:.\main.c      **** 
 235              		.loc 1 81 0 is_stmt 1
 236 00aa 5A4B     		ldr	r3, .L31+8
 237 00ac 181C     		mov	r0, r3
 238 00ae FFF7FEFF 		bl	puts
  84:.\main.c      **** 
 239              		.loc 1 84 0
 240 00b2 1423     		mov	r3, #20
 241 00b4 FC18     		add	r4, r7, r3
 242 00b6 0020     		mov	r0, #0
 243 00b8 FFF7FEFF 		bl	CyBle_GappStartAdvertisement
 244 00bc 031C     		mov	r3, r0
 245 00be 2380     		strh	r3, [r4]
  86:.\main.c      ****         {
ARM GAS  C:\Users\sunyi\AppData\Local\Temp\ccAJOpVh.s 			page 10


 246              		.loc 1 86 0
 247 00c0 1423     		mov	r3, #20
 248 00c2 FB18     		add	r3, r7, r3
 249 00c4 1B88     		ldrh	r3, [r3]
 250 00c6 002B     		cmp	r3, #0
 251 00c8 08D0     		beq	.L19
  88:.\main.c      ****         }
 252              		.loc 1 88 0
 253 00ca 1423     		mov	r3, #20
 254 00cc FB18     		add	r3, r7, r3
 255 00ce 1B88     		ldrh	r3, [r3]
 256 00d0 514A     		ldr	r2, .L31+12
 257 00d2 101C     		mov	r0, r2
 258 00d4 191C     		mov	r1, r3
 259 00d6 FFF7FEFF 		bl	printf
  90:.\main.c      **** 
 260              		.loc 1 90 0
 261 00da 93E0     		b	.L1
 262              	.L19:
 263 00dc 92E0     		b	.L1
 264              	.L8:
  97:.\main.c      ****         {
 265              		.loc 1 97 0
 266 00de 3B68     		ldr	r3, [r7]
 267 00e0 1B78     		ldrb	r3, [r3]
 268 00e2 012B     		cmp	r3, #1
 269 00e4 04D1     		bne	.L21
  99:.\main.c      ****         }
 270              		.loc 1 99 0
 271 00e6 4D4B     		ldr	r3, .L31+16
 272 00e8 181C     		mov	r0, r3
 273 00ea FFF7FEFF 		bl	puts
 105:.\main.c      **** 
 274              		.loc 1 105 0
 275 00ee 89E0     		b	.L1
 276              	.L21:
 103:.\main.c      ****         }
 277              		.loc 1 103 0
 278 00f0 4B4B     		ldr	r3, .L31+20
 279 00f2 181C     		mov	r0, r3
 280 00f4 FFF7FEFF 		bl	puts
 105:.\main.c      **** 
 281              		.loc 1 105 0
 282 00f8 84E0     		b	.L1
 283              	.L5:
 108:.\main.c      ****         break;
 284              		.loc 1 108 0
 285 00fa 4A4B     		ldr	r3, .L31+24
 286 00fc 181C     		mov	r0, r3
 287 00fe FFF7FEFF 		bl	puts
 109:.\main.c      **** 
 288              		.loc 1 109 0
 289 0102 7FE0     		b	.L1
 290              	.L9:
 112:.\main.c      ****         break;
 291              		.loc 1 112 0
 292 0104 3B68     		ldr	r3, [r7]
ARM GAS  C:\Users\sunyi\AppData\Local\Temp\ccAJOpVh.s 			page 11


 293 0106 1B78     		ldrb	r3, [r3]
 294 0108 1A1C     		mov	r2, r3
 295 010a 474B     		ldr	r3, .L31+28
 296 010c 181C     		mov	r0, r3
 297 010e 111C     		mov	r1, r2
 298 0110 FFF7FEFF 		bl	printf
 113:.\main.c      **** 
 299              		.loc 1 113 0
 300 0114 76E0     		b	.L1
 301              	.L10:
 119:.\main.c      ****         {
 302              		.loc 1 119 0
 303 0116 454B     		ldr	r3, .L31+32
 304 0118 5B78     		ldrb	r3, [r3, #1]
 305 011a 002B     		cmp	r3, #0
 306 011c 13D1     		bne	.L23
 121:.\main.c      ****             {
 307              		.loc 1 121 0
 308 011e 444B     		ldr	r3, .L31+36
 309 0120 1B78     		ldrb	r3, [r3]
 310 0122 012B     		cmp	r3, #1
 311 0124 07D1     		bne	.L24
 123:.\main.c      ****                 state = DISCONNECTED;
 312              		.loc 1 123 0
 313 0126 434B     		ldr	r3, .L31+40
 314 0128 181C     		mov	r0, r3
 315 012a FFF7FEFF 		bl	puts
 124:.\main.c      ****             }
 316              		.loc 1 124 0
 317 012e 404B     		ldr	r3, .L31+36
 318 0130 0022     		mov	r2, #0
 319 0132 1A70     		strb	r2, [r3]
 320 0134 15E0     		b	.L26
 321              	.L24:
 128:.\main.c      ****                 /* Device now is in Advertising state */
 322              		.loc 1 128 0
 323 0136 404B     		ldr	r3, .L31+44
 324 0138 181C     		mov	r0, r3
 325 013a FFF7FEFF 		bl	puts
 130:.\main.c      ****             }
 326              		.loc 1 130 0
 327 013e 3C4B     		ldr	r3, .L31+36
 328 0140 0122     		mov	r2, #1
 329 0142 1A70     		strb	r2, [r3]
 145:.\main.c      **** 
 330              		.loc 1 145 0
 331 0144 5EE0     		b	.L1
 332              	.L23:
 136:.\main.c      ****             {
 333              		.loc 1 136 0
 334 0146 3A4B     		ldr	r3, .L31+36
 335 0148 1B78     		ldrb	r3, [r3]
 336 014a 012B     		cmp	r3, #1
 337 014c 04D1     		bne	.L27
 138:.\main.c      ****             }
 338              		.loc 1 138 0
 339 014e 3B4B     		ldr	r3, .L31+48
ARM GAS  C:\Users\sunyi\AppData\Local\Temp\ccAJOpVh.s 			page 12


 340 0150 181C     		mov	r0, r3
 341 0152 FFF7FEFF 		bl	puts
 342 0156 04E0     		b	.L26
 343              	.L27:
 142:.\main.c      ****             }
 344              		.loc 1 142 0
 345 0158 394B     		ldr	r3, .L31+52
 346 015a 181C     		mov	r0, r3
 347 015c FFF7FEFF 		bl	puts
 145:.\main.c      **** 
 348              		.loc 1 145 0
 349 0160 50E0     		b	.L1
 350              	.L26:
 145:.\main.c      **** 
 351              		.loc 1 145 0 is_stmt 0 discriminator 3
 352 0162 4FE0     		b	.L1
 353              	.L3:
 148:.\main.c      ****         state = CONNECTED;
 354              		.loc 1 148 0 is_stmt 1
 355 0164 314B     		ldr	r3, .L31+32
 356 0166 1B78     		ldrb	r3, [r3]
 357 0168 1A1C     		mov	r2, r3
 358 016a 364B     		ldr	r3, .L31+56
 359 016c 181C     		mov	r0, r3
 360 016e 111C     		mov	r1, r2
 361 0170 FFF7FEFF 		bl	printf
 149:.\main.c      ****         break;
 362              		.loc 1 149 0
 363 0174 2E4B     		ldr	r3, .L31+36
 364 0176 0222     		mov	r2, #2
 365 0178 1A70     		strb	r2, [r3]
 150:.\main.c      **** 
 366              		.loc 1 150 0
 367 017a 43E0     		b	.L1
 368              	.L13:
 153:.\main.c      ****         /* Enter discoverable mode so that remote Client could find the device. */
 369              		.loc 1 153 0
 370 017c 324B     		ldr	r3, .L31+60
 371 017e 181C     		mov	r0, r3
 372 0180 FFF7FEFF 		bl	puts
 155:.\main.c      ****         connectionHandle.bdHandle = 0u;
 373              		.loc 1 155 0
 374 0184 1423     		mov	r3, #20
 375 0186 FC18     		add	r4, r7, r3
 376 0188 0020     		mov	r0, #0
 377 018a FFF7FEFF 		bl	CyBle_GappStartAdvertisement
 378 018e 031C     		mov	r3, r0
 379 0190 2380     		strh	r3, [r4]
 156:.\main.c      ****         if(apiResult != CYBLE_ERROR_OK)
 380              		.loc 1 156 0
 381 0192 264B     		ldr	r3, .L31+32
 382 0194 0022     		mov	r2, #0
 383 0196 1A70     		strb	r2, [r3]
 157:.\main.c      ****         {
 384              		.loc 1 157 0
 385 0198 1423     		mov	r3, #20
 386 019a FB18     		add	r3, r7, r3
ARM GAS  C:\Users\sunyi\AppData\Local\Temp\ccAJOpVh.s 			page 13


 387 019c 1B88     		ldrh	r3, [r3]
 388 019e 002B     		cmp	r3, #0
 389 01a0 08D0     		beq	.L28
 159:.\main.c      ****         }
 390              		.loc 1 159 0
 391 01a2 1423     		mov	r3, #20
 392 01a4 FB18     		add	r3, r7, r3
 393 01a6 1B88     		ldrh	r3, [r3]
 394 01a8 284A     		ldr	r2, .L31+64
 395 01aa 101C     		mov	r0, r2
 396 01ac 191C     		mov	r1, r3
 397 01ae FFF7FEFF 		bl	printf
 161:.\main.c      **** 
 398              		.loc 1 161 0
 399 01b2 27E0     		b	.L1
 400              	.L28:
 161:.\main.c      **** 
 401              		.loc 1 161 0 is_stmt 0 discriminator 5
 402 01b4 26E0     		b	.L1
 403              	.L14:
 168:.\main.c      ****         printf("CYBLE_EVT_GATT_CONNECT_IND: %x\r\n", connectionHandle.attId);
 404              		.loc 1 168 0 is_stmt 1
 405 01b6 1D4A     		ldr	r2, .L31+32
 406 01b8 3B68     		ldr	r3, [r7]
 407 01ba 111C     		mov	r1, r2
 408 01bc 1A1C     		mov	r2, r3
 409 01be 0223     		mov	r3, #2
 410 01c0 081C     		mov	r0, r1
 411 01c2 111C     		mov	r1, r2
 412 01c4 1A1C     		mov	r2, r3
 413 01c6 FFF7FEFF 		bl	memcpy
 169:.\main.c      ****         break;
 414              		.loc 1 169 0
 415 01ca 184B     		ldr	r3, .L31+32
 416 01cc 5B78     		ldrb	r3, [r3, #1]
 417 01ce 1A1C     		mov	r2, r3
 418 01d0 1F4B     		ldr	r3, .L31+68
 419 01d2 181C     		mov	r0, r3
 420 01d4 111C     		mov	r1, r2
 421 01d6 FFF7FEFF 		bl	printf
 170:.\main.c      **** 
 422              		.loc 1 170 0
 423 01da 13E0     		b	.L1
 424              	.L11:
 174:.\main.c      ****         connectionHandle.attId = 0u;
 425              		.loc 1 174 0
 426 01dc 1D4B     		ldr	r3, .L31+72
 427 01de 181C     		mov	r0, r3
 428 01e0 FFF7FEFF 		bl	puts
 175:.\main.c      **** 
 429              		.loc 1 175 0
 430 01e4 114B     		ldr	r3, .L31+32
 431 01e6 0022     		mov	r2, #0
 432 01e8 5A70     		strb	r2, [r3, #1]
 177:.\main.c      ****         /* Get the LLS Alert Level from the GATT database */
 433              		.loc 1 177 0
 434 01ea 1B4B     		ldr	r3, .L31+76
ARM GAS  C:\Users\sunyi\AppData\Local\Temp\ccAJOpVh.s 			page 14


 435 01ec 0022     		mov	r2, #0
 436 01ee 1A70     		strb	r2, [r3]
 179:.\main.c      ****         break;
 437              		.loc 1 179 0
 438 01f0 1A4B     		ldr	r3, .L31+80
 439 01f2 0020     		mov	r0, #0
 440 01f4 0121     		mov	r1, #1
 441 01f6 1A1C     		mov	r2, r3
 442 01f8 FFF7FEFF 		bl	CyBle_LlssGetCharacteristicValue
 180:.\main.c      **** 
 443              		.loc 1 180 0
 444 01fc 02E0     		b	.L1
 445              	.L29:
 183:.\main.c      **** 
 446              		.loc 1 183 0
 447 01fe C046     		mov	r8, r8
 448 0200 00E0     		b	.L1
 449              	.L30:
 186:.\main.c      **** 
 450              		.loc 1 186 0
 451 0202 C046     		mov	r8, r8
 452              	.L1:
 193:.\main.c      ****     }
 194:.\main.c      **** }
 453              		.loc 1 194 0
 454 0204 BD46     		mov	sp, r7
 455 0206 07B0     		add	sp, sp, #28
 456              		@ sp needed
 457 0208 90BD     		pop	{r4, r7, pc}
 458              	.L32:
 459 020a C046     		.align	2
 460              	.L31:
 461 020c 00000000 		.word	.LC0
 462 0210 24000000 		.word	.LC2
 463 0214 2C000000 		.word	.LC4
 464 0218 30000000 		.word	.LC6
 465 021c 54000000 		.word	.LC8
 466 0220 98000000 		.word	.LC10
 467 0224 AC000000 		.word	.LC12
 468 0228 C0000000 		.word	.LC14
 469 022c 00000000 		.word	connectionHandle
 470 0230 00000000 		.word	state
 471 0234 E0000000 		.word	.LC18
 472 0238 FC000000 		.word	.LC20
 473 023c 18010000 		.word	.LC22
 474 0240 38010000 		.word	.LC24
 475 0244 58010000 		.word	.LC26
 476 0248 80010000 		.word	.LC28
 477 024c A4010000 		.word	.LC30
 478 0250 C8010000 		.word	.LC32
 479 0254 EC010000 		.word	.LC34
 480 0258 00000000 		.word	tps_notification_enabled
 481 025c 00000000 		.word	alertLevel
 482              		.cfi_endproc
 483              	.LFE37:
 484              		.size	GenericAppEventHandler, .-GenericAppEventHandler
 485              		.section	.text.ButtonPressInt,"ax",%progbits
ARM GAS  C:\Users\sunyi\AppData\Local\Temp\ccAJOpVh.s 			page 15


 486              		.align	2
 487              		.global	ButtonPressInt
 488              		.code	16
 489              		.thumb_func
 490              		.type	ButtonPressInt, %function
 491              	ButtonPressInt:
 492              	.LFB38:
 195:.\main.c      **** 
 196:.\main.c      **** 
 197:.\main.c      **** /*******************************************************************************
 198:.\main.c      **** * Function Name: SW_Interrupt
 199:.\main.c      **** ********************************************************************************
 200:.\main.c      **** *
 201:.\main.c      **** * Summary:
 202:.\main.c      **** *   Handles the mechanical button press.
 203:.\main.c      **** *
 204:.\main.c      **** * Parameters:
 205:.\main.c      **** *   None
 206:.\main.c      **** *
 207:.\main.c      **** * Return:
 208:.\main.c      **** *   None
 209:.\main.c      **** *
 210:.\main.c      **** *******************************************************************************/
 211:.\main.c      **** CY_ISR(ButtonPressInt)
 212:.\main.c      **** {
 493              		.loc 1 212 0
 494              		.cfi_startproc
 495 0000 80B5     		push	{r7, lr}
 496              		.cfi_def_cfa_offset 8
 497              		.cfi_offset 7, -8
 498              		.cfi_offset 14, -4
 499 0002 00AF     		add	r7, sp, #0
 500              		.cfi_def_cfa_register 7
 213:.\main.c      ****     buttonState = BUTTON_IS_PRESSED;
 501              		.loc 1 213 0
 502 0004 034B     		ldr	r3, .L34
 503 0006 0122     		mov	r2, #1
 504 0008 1A70     		strb	r2, [r3]
 214:.\main.c      **** 
 215:.\main.c      ****     SW2_ClearInterrupt();
 505              		.loc 1 215 0
 506 000a FFF7FEFF 		bl	SW2_ClearInterrupt
 216:.\main.c      **** }
 507              		.loc 1 216 0
 508 000e BD46     		mov	sp, r7
 509              		@ sp needed
 510 0010 80BD     		pop	{r7, pc}
 511              	.L35:
 512 0012 C046     		.align	2
 513              	.L34:
 514 0014 00000000 		.word	buttonState
 515              		.cfi_endproc
 516              	.LFE38:
 517              		.size	ButtonPressInt, .-ButtonPressInt
 518              		.section	.text.WDT_Start,"ax",%progbits
 519              		.align	2
 520              		.global	WDT_Start
ARM GAS  C:\Users\sunyi\AppData\Local\Temp\ccAJOpVh.s 			page 16


 521              		.code	16
 522              		.thumb_func
 523              		.type	WDT_Start, %function
 524              	WDT_Start:
 525              	.LFB39:
 217:.\main.c      **** 
 218:.\main.c      **** 
 219:.\main.c      **** /*******************************************************************************
 220:.\main.c      **** * Function Name: WDT_Start
 221:.\main.c      **** ********************************************************************************
 222:.\main.c      **** *
 223:.\main.c      **** * Summary:
 224:.\main.c      **** *  Configures and starts Watchdog timer to trigger an interrupt every second.
 225:.\main.c      **** *
 226:.\main.c      **** * Parameters:
 227:.\main.c      **** *   None
 228:.\main.c      **** *
 229:.\main.c      **** * Return:
 230:.\main.c      **** *   None
 231:.\main.c      **** *
 232:.\main.c      **** *******************************************************************************/
 233:.\main.c      **** void WDT_Start(void)
 234:.\main.c      **** {
 526              		.loc 1 234 0
 527              		.cfi_startproc
 528 0000 80B5     		push	{r7, lr}
 529              		.cfi_def_cfa_offset 8
 530              		.cfi_offset 7, -8
 531              		.cfi_offset 14, -4
 532 0002 00AF     		add	r7, sp, #0
 533              		.cfi_def_cfa_register 7
 235:.\main.c      ****     /* Unlock the WDT registers for modification */
 236:.\main.c      ****     CySysWdtUnlock();
 534              		.loc 1 236 0
 535 0004 FFF7FEFF 		bl	CySysWdtUnlock
 237:.\main.c      ****     /* Setup ISR callback */
 238:.\main.c      ****     WDT_Interrupt_StartEx(&Timer_Interrupt);
 536              		.loc 1 238 0
 537 0008 0E4B     		ldr	r3, .L37
 538 000a 181C     		mov	r0, r3
 539 000c FFF7FEFF 		bl	WDT_Interrupt_StartEx
 239:.\main.c      ****     /* Write the mode to generate interrupt on match */
 240:.\main.c      ****     CySysWdtWriteMode(WDT_COUNTER, CY_SYS_WDT_MODE_INT);
 540              		.loc 1 240 0
 541 0010 0120     		mov	r0, #1
 542 0012 0121     		mov	r1, #1
 543 0014 FFF7FEFF 		bl	CySysWdtSetMode
 241:.\main.c      ****     /* Configure the WDT counter clear on a match setting */
 242:.\main.c      ****     CySysWdtWriteClearOnMatch(WDT_COUNTER, WDT_COUNTER_ENABLE);
 544              		.loc 1 242 0
 545 0018 0120     		mov	r0, #1
 546 001a 0121     		mov	r1, #1
 547 001c FFF7FEFF 		bl	CySysWdtSetClearOnMatch
 243:.\main.c      ****     /* Configure the WDT counter match comparison value */
 244:.\main.c      ****     CySysWdtWriteMatch(WDT_COUNTER, WDT_COUNT_PERIOD);
 548              		.loc 1 244 0
 549 0020 094B     		ldr	r3, .L37+4
ARM GAS  C:\Users\sunyi\AppData\Local\Temp\ccAJOpVh.s 			page 17


 550 0022 0120     		mov	r0, #1
 551 0024 191C     		mov	r1, r3
 552 0026 FFF7FEFF 		bl	CySysWdtSetMatch
 245:.\main.c      ****     /* Reset WDT counter */
 246:.\main.c      ****     CySysWdtResetCounters(WDT_COUNTER);
 553              		.loc 1 246 0
 554 002a 0120     		mov	r0, #1
 555 002c FFF7FEFF 		bl	CySysWdtResetCounters
 247:.\main.c      ****     /* Enable the specified WDT counter */
 248:.\main.c      ****     CySysWdtEnable(WDT_COUNTER_MASK);
 556              		.loc 1 248 0
 557 0030 8023     		mov	r3, #128
 558 0032 5B00     		lsl	r3, r3, #1
 559 0034 181C     		mov	r0, r3
 560 0036 FFF7FEFF 		bl	CySysWdtEnable
 249:.\main.c      ****     /* Lock out configuration changes to the Watchdog timer registers */
 250:.\main.c      ****     CySysWdtLock();
 561              		.loc 1 250 0
 562 003a FFF7FEFF 		bl	CySysWdtLock
 251:.\main.c      **** }
 563              		.loc 1 251 0
 564 003e BD46     		mov	sp, r7
 565              		@ sp needed
 566 0040 80BD     		pop	{r7, pc}
 567              	.L38:
 568 0042 C046     		.align	2
 569              	.L37:
 570 0044 00000000 		.word	Timer_Interrupt
 571 0048 FF7F0000 		.word	32767
 572              		.cfi_endproc
 573              	.LFE39:
 574              		.size	WDT_Start, .-WDT_Start
 575              		.section	.text.Timer_Interrupt,"ax",%progbits
 576              		.align	2
 577              		.global	Timer_Interrupt
 578              		.code	16
 579              		.thumb_func
 580              		.type	Timer_Interrupt, %function
 581              	Timer_Interrupt:
 582              	.LFB40:
 252:.\main.c      **** 
 253:.\main.c      **** 
 254:.\main.c      **** /*******************************************************************************
 255:.\main.c      **** * Function Name: Timer_Interrupt
 256:.\main.c      **** ********************************************************************************
 257:.\main.c      **** *
 258:.\main.c      **** * Summary:
 259:.\main.c      **** *  Handles the Interrupt Service Routine for the WDT timer.
 260:.\main.c      **** *
 261:.\main.c      **** * Parameters:
 262:.\main.c      **** *   None
 263:.\main.c      **** *
 264:.\main.c      **** * Return:
 265:.\main.c      **** *   None
 266:.\main.c      **** *
 267:.\main.c      **** *******************************************************************************/
 268:.\main.c      **** CY_ISR(Timer_Interrupt)
ARM GAS  C:\Users\sunyi\AppData\Local\Temp\ccAJOpVh.s 			page 18


 269:.\main.c      **** {
 583              		.loc 1 269 0
 584              		.cfi_startproc
 585 0000 80B5     		push	{r7, lr}
 586              		.cfi_def_cfa_offset 8
 587              		.cfi_offset 7, -8
 588              		.cfi_offset 14, -4
 589 0002 00AF     		add	r7, sp, #0
 590              		.cfi_def_cfa_register 7
 270:.\main.c      ****     if(CySysWdtGetInterruptSource() & WDT_INTERRUPT_SOURCE)
 591              		.loc 1 270 0
 592 0004 FFF7FEFF 		bl	CySysWdtGetInterruptSource
 593 0008 021C     		mov	r2, r0
 594 000a 8023     		mov	r3, #128
 595 000c DB00     		lsl	r3, r3, #3
 596 000e 1340     		and	r3, r2
 597 0010 1DD0     		beq	.L39
 271:.\main.c      ****     {
 272:.\main.c      ****         if(CONNECTED != state)
 598              		.loc 1 272 0
 599 0012 104B     		ldr	r3, .L43
 600 0014 1B78     		ldrb	r3, [r3]
 601 0016 022B     		cmp	r3, #2
 602 0018 14D0     		beq	.L41
 273:.\main.c      ****         {
 274:.\main.c      ****             if((llsAlertTOCounter != ALERT_TO) && (alertLevel != CYBLE_NO_ALERT))
 603              		.loc 1 274 0
 604 001a 0F4B     		ldr	r3, .L43+4
 605 001c 1B78     		ldrb	r3, [r3]
 606 001e 142B     		cmp	r3, #20
 607 0020 0AD0     		beq	.L42
 608              		.loc 1 274 0 is_stmt 0 discriminator 1
 609 0022 0E4B     		ldr	r3, .L43+8
 610 0024 1B78     		ldrb	r3, [r3]
 611 0026 002B     		cmp	r3, #0
 612 0028 06D0     		beq	.L42
 275:.\main.c      ****             {
 276:.\main.c      ****                 /* Update alert timeout */
 277:.\main.c      ****                 llsAlertTOCounter++;
 613              		.loc 1 277 0 is_stmt 1
 614 002a 0B4B     		ldr	r3, .L43+4
 615 002c 1B78     		ldrb	r3, [r3]
 616 002e 0133     		add	r3, r3, #1
 617 0030 DAB2     		uxtb	r2, r3
 618 0032 094B     		ldr	r3, .L43+4
 619 0034 1A70     		strb	r2, [r3]
 620 0036 05E0     		b	.L41
 621              	.L42:
 278:.\main.c      ****             }
 279:.\main.c      ****             else
 280:.\main.c      ****             {
 281:.\main.c      ****                 alertLevel = CYBLE_NO_ALERT;
 622              		.loc 1 281 0
 623 0038 084B     		ldr	r3, .L43+8
 624 003a 0022     		mov	r2, #0
 625 003c 1A70     		strb	r2, [r3]
 282:.\main.c      ****                 
ARM GAS  C:\Users\sunyi\AppData\Local\Temp\ccAJOpVh.s 			page 19


 283:.\main.c      ****                 /* Clear alert timeout */
 284:.\main.c      ****                 llsAlertTOCounter = 0u;
 626              		.loc 1 284 0
 627 003e 064B     		ldr	r3, .L43+4
 628 0040 0022     		mov	r2, #0
 629 0042 1A70     		strb	r2, [r3]
 630              	.L41:
 285:.\main.c      ****             }
 286:.\main.c      ****         }
 287:.\main.c      ****         /* Clear interrupt request */
 288:.\main.c      ****         CySysWdtClearInterrupt(WDT_INTERRUPT_SOURCE);
 631              		.loc 1 288 0
 632 0044 8023     		mov	r3, #128
 633 0046 DB00     		lsl	r3, r3, #3
 634 0048 181C     		mov	r0, r3
 635 004a FFF7FEFF 		bl	CySysWdtClearInterrupt
 636              	.L39:
 289:.\main.c      ****     }
 290:.\main.c      **** }
 637              		.loc 1 290 0
 638 004e BD46     		mov	sp, r7
 639              		@ sp needed
 640 0050 80BD     		pop	{r7, pc}
 641              	.L44:
 642 0052 C046     		.align	2
 643              	.L43:
 644 0054 00000000 		.word	state
 645 0058 00000000 		.word	llsAlertTOCounter
 646 005c 00000000 		.word	alertLevel
 647              		.cfi_endproc
 648              	.LFE40:
 649              		.size	Timer_Interrupt, .-Timer_Interrupt
 650              		.section	.rodata
 651              		.align	2
 652              	.LC49:
 653 020c 44657669 		.ascii	"Device started alerting with \"Mild Alert\"\015\000"
 653      63652073 
 653      74617274 
 653      65642061 
 653      6C657274 
 654 0237 00       		.align	2
 655              	.LC53:
 656 0238 44657669 		.ascii	"Device started alerting with \"High Alert\"\015\000"
 656      63652073 
 656      74617274 
 656      65642061 
 656      6C657274 
 657              		.section	.text.HandleLeds,"ax",%progbits
 658              		.align	2
 659              		.global	HandleLeds
 660              		.code	16
 661              		.thumb_func
 662              		.type	HandleLeds, %function
 663              	HandleLeds:
 664              	.LFB41:
 291:.\main.c      **** 
 292:.\main.c      **** 
ARM GAS  C:\Users\sunyi\AppData\Local\Temp\ccAJOpVh.s 			page 20


 293:.\main.c      **** /*******************************************************************************
 294:.\main.c      **** * Function Name: HandleLeds
 295:.\main.c      **** ********************************************************************************
 296:.\main.c      **** *
 297:.\main.c      **** * Summary:
 298:.\main.c      **** *  Handles indications on Advertising, Disconnection and Alert LEDs. Also it
 299:.\main.c      **** *  implements timeout after which Alert LED is cleared if it was previously set.
 300:.\main.c      **** *
 301:.\main.c      **** * Parameters:
 302:.\main.c      **** *   None
 303:.\main.c      **** *
 304:.\main.c      **** * Return:
 305:.\main.c      **** *   None
 306:.\main.c      **** *
 307:.\main.c      **** *******************************************************************************/
 308:.\main.c      **** void HandleLeds(void)
 309:.\main.c      **** {
 665              		.loc 1 309 0
 666              		.cfi_startproc
 667 0000 80B5     		push	{r7, lr}
 668              		.cfi_def_cfa_offset 8
 669              		.cfi_offset 7, -8
 670              		.cfi_offset 14, -4
 671 0002 00AF     		add	r7, sp, #0
 672              		.cfi_def_cfa_register 7
 310:.\main.c      ****     /* If in disconnected state ... */
 311:.\main.c      ****     if(DISCONNECTED == state)
 673              		.loc 1 311 0
 674 0004 464B     		ldr	r3, .L61
 675 0006 1B78     		ldrb	r3, [r3]
 676 0008 002B     		cmp	r3, #0
 677 000a 06D1     		bne	.L46
 312:.\main.c      ****     {
 313:.\main.c      ****         /* ... turn on disconnect indication LED and turn off rest of the LEDs. */
 314:.\main.c      ****         Disconnect_LED_Write(LED_ON);
 678              		.loc 1 314 0
 679 000c 0020     		mov	r0, #0
 680 000e FFF7FEFF 		bl	Disconnect_LED_Write
 315:.\main.c      ****         Advertising_LED_Write(LED_OFF);
 681              		.loc 1 315 0
 682 0012 0120     		mov	r0, #1
 683 0014 FFF7FEFF 		bl	Advertising_LED_Write
 684 0018 2DE0     		b	.L47
 685              	.L46:
 316:.\main.c      ****     }
 317:.\main.c      ****     /* In advertising state ... */
 318:.\main.c      ****     else if(ADVERTISING == state)
 686              		.loc 1 318 0
 687 001a 414B     		ldr	r3, .L61
 688 001c 1B78     		ldrb	r3, [r3]
 689 001e 012B     		cmp	r3, #1
 690 0020 20D1     		bne	.L48
 319:.\main.c      ****     {
 320:.\main.c      ****         /* ... turn off disconnect indication and alert LEDs ... */
 321:.\main.c      ****         Disconnect_LED_Write(LED_OFF);
 691              		.loc 1 321 0
 692 0022 0120     		mov	r0, #1
ARM GAS  C:\Users\sunyi\AppData\Local\Temp\ccAJOpVh.s 			page 21


 693 0024 FFF7FEFF 		bl	Disconnect_LED_Write
 322:.\main.c      **** 
 323:.\main.c      ****         /* ... and blink advertisement indication LED. */
 324:.\main.c      ****         if(BLINK_DELAY == advBlinkDelayCount)
 694              		.loc 1 324 0
 695 0028 3E4B     		ldr	r3, .L61+4
 696 002a 1B88     		ldrh	r3, [r3]
 697 002c 0F2B     		cmp	r3, #15
 698 002e 0DD1     		bne	.L49
 325:.\main.c      ****         {
 326:.\main.c      ****             if(LED_OFF == advLedState)
 699              		.loc 1 326 0
 700 0030 3D4B     		ldr	r3, .L61+8
 701 0032 1B78     		ldrb	r3, [r3]
 702 0034 012B     		cmp	r3, #1
 703 0036 03D1     		bne	.L50
 327:.\main.c      ****             {
 328:.\main.c      ****                 advLedState = LED_ON;
 704              		.loc 1 328 0
 705 0038 3B4B     		ldr	r3, .L61+8
 706 003a 0022     		mov	r2, #0
 707 003c 1A70     		strb	r2, [r3]
 708 003e 02E0     		b	.L51
 709              	.L50:
 329:.\main.c      ****             }
 330:.\main.c      ****             else
 331:.\main.c      ****             {
 332:.\main.c      ****                 advLedState = LED_OFF;
 710              		.loc 1 332 0
 711 0040 394B     		ldr	r3, .L61+8
 712 0042 0122     		mov	r2, #1
 713 0044 1A70     		strb	r2, [r3]
 714              	.L51:
 333:.\main.c      ****             }
 334:.\main.c      ****             advBlinkDelayCount = 0u;
 715              		.loc 1 334 0
 716 0046 374B     		ldr	r3, .L61+4
 717 0048 0022     		mov	r2, #0
 718 004a 1A80     		strh	r2, [r3]
 719              	.L49:
 335:.\main.c      ****         }
 336:.\main.c      **** 
 337:.\main.c      ****         advBlinkDelayCount++;
 720              		.loc 1 337 0
 721 004c 354B     		ldr	r3, .L61+4
 722 004e 1B88     		ldrh	r3, [r3]
 723 0050 0133     		add	r3, r3, #1
 724 0052 9AB2     		uxth	r2, r3
 725 0054 334B     		ldr	r3, .L61+4
 726 0056 1A80     		strh	r2, [r3]
 338:.\main.c      **** 
 339:.\main.c      ****         Advertising_LED_Write(advLedState);
 727              		.loc 1 339 0
 728 0058 334B     		ldr	r3, .L61+8
 729 005a 1B78     		ldrb	r3, [r3]
 730 005c 181C     		mov	r0, r3
 731 005e FFF7FEFF 		bl	Advertising_LED_Write
ARM GAS  C:\Users\sunyi\AppData\Local\Temp\ccAJOpVh.s 			page 22


 732 0062 08E0     		b	.L47
 733              	.L48:
 340:.\main.c      ****     }
 341:.\main.c      ****     /* In connected State ... */
 342:.\main.c      ****     else
 343:.\main.c      ****     {
 344:.\main.c      ****         /* ... turn off all LEDs. */
 345:.\main.c      ****         Disconnect_LED_Write(LED_OFF);
 734              		.loc 1 345 0
 735 0064 0120     		mov	r0, #1
 736 0066 FFF7FEFF 		bl	Disconnect_LED_Write
 346:.\main.c      ****         Advertising_LED_Write(LED_OFF);
 737              		.loc 1 346 0
 738 006a 0120     		mov	r0, #1
 739 006c FFF7FEFF 		bl	Advertising_LED_Write
 347:.\main.c      ****         Alert_LED_Write(LED_OFF);
 740              		.loc 1 347 0
 741 0070 0120     		mov	r0, #1
 742 0072 FFF7FEFF 		bl	Alert_LED_Write
 743              	.L47:
 348:.\main.c      ****     }
 349:.\main.c      **** 
 350:.\main.c      ****     if(CONNECTED != state)
 744              		.loc 1 350 0
 745 0076 2A4B     		ldr	r3, .L61
 746 0078 1B78     		ldrb	r3, [r3]
 747 007a 022B     		cmp	r3, #2
 748 007c 4DD0     		beq	.L45
 351:.\main.c      ****     {
 352:.\main.c      ****         /* If "Mild Alert" is set by the Client then blink alert LED */
 353:.\main.c      ****         if((CYBLE_MILD_ALERT == alertLevel) && (ALERT_TO != llsAlertTOCounter))
 749              		.loc 1 353 0
 750 007e 2B4B     		ldr	r3, .L61+12
 751 0080 1B78     		ldrb	r3, [r3]
 752 0082 012B     		cmp	r3, #1
 753 0084 27D1     		bne	.L53
 754              		.loc 1 353 0 is_stmt 0 discriminator 1
 755 0086 2A4B     		ldr	r3, .L61+16
 756 0088 1B78     		ldrb	r3, [r3]
 757 008a 142B     		cmp	r3, #20
 758 008c 23D0     		beq	.L53
 354:.\main.c      ****         {
 355:.\main.c      ****             if(YES == displayAlertMessage)
 759              		.loc 1 355 0 is_stmt 1
 760 008e 294B     		ldr	r3, .L61+20
 761 0090 1B78     		ldrb	r3, [r3]
 762 0092 012B     		cmp	r3, #1
 763 0094 06D1     		bne	.L54
 356:.\main.c      ****             {
 357:.\main.c      ****                 printf("Device started alerting with \"Mild Alert\"\r\n");
 764              		.loc 1 357 0
 765 0096 284B     		ldr	r3, .L61+24
 766 0098 181C     		mov	r0, r3
 767 009a FFF7FEFF 		bl	puts
 358:.\main.c      ****                 displayAlertMessage = NO;
 768              		.loc 1 358 0
 769 009e 254B     		ldr	r3, .L61+20
ARM GAS  C:\Users\sunyi\AppData\Local\Temp\ccAJOpVh.s 			page 23


 770 00a0 0022     		mov	r2, #0
 771 00a2 1A70     		strb	r2, [r3]
 772              	.L54:
 359:.\main.c      ****             }
 360:.\main.c      **** 
 361:.\main.c      ****             /* Switch state of alert LED to make blinking */
 362:.\main.c      ****             if(BLINK_DELAY == alertBlinkDelayCount)
 773              		.loc 1 362 0
 774 00a4 254B     		ldr	r3, .L61+28
 775 00a6 1B88     		ldrh	r3, [r3]
 776 00a8 0F2B     		cmp	r3, #15
 777 00aa 0DD1     		bne	.L55
 363:.\main.c      ****             {
 364:.\main.c      ****                 if(LED_OFF == alertLedState)
 778              		.loc 1 364 0
 779 00ac 244B     		ldr	r3, .L61+32
 780 00ae 1B78     		ldrb	r3, [r3]
 781 00b0 012B     		cmp	r3, #1
 782 00b2 03D1     		bne	.L56
 365:.\main.c      ****                 {
 366:.\main.c      ****                     alertLedState = LED_ON;
 783              		.loc 1 366 0
 784 00b4 224B     		ldr	r3, .L61+32
 785 00b6 0022     		mov	r2, #0
 786 00b8 1A70     		strb	r2, [r3]
 787 00ba 02E0     		b	.L57
 788              	.L56:
 367:.\main.c      ****                 }
 368:.\main.c      ****                 else
 369:.\main.c      ****                 {
 370:.\main.c      ****                     alertLedState = LED_OFF;
 789              		.loc 1 370 0
 790 00bc 204B     		ldr	r3, .L61+32
 791 00be 0122     		mov	r2, #1
 792 00c0 1A70     		strb	r2, [r3]
 793              	.L57:
 371:.\main.c      ****                 }
 372:.\main.c      ****                 alertBlinkDelayCount = 0u;
 794              		.loc 1 372 0
 795 00c2 1E4B     		ldr	r3, .L61+28
 796 00c4 0022     		mov	r2, #0
 797 00c6 1A80     		strh	r2, [r3]
 798              	.L55:
 373:.\main.c      ****             }
 374:.\main.c      ****             alertBlinkDelayCount++;
 799              		.loc 1 374 0
 800 00c8 1C4B     		ldr	r3, .L61+28
 801 00ca 1B88     		ldrh	r3, [r3]
 802 00cc 0133     		add	r3, r3, #1
 803 00ce 9AB2     		uxth	r2, r3
 804 00d0 1A4B     		ldr	r3, .L61+28
 805 00d2 1A80     		strh	r2, [r3]
 806 00d4 1CE0     		b	.L58
 807              	.L53:
 375:.\main.c      ****         }
 376:.\main.c      ****         /* For "High Alert" turn alert LED on */
 377:.\main.c      ****         else if((CYBLE_HIGH_ALERT == alertLevel) && (ALERT_TO != llsAlertTOCounter))
ARM GAS  C:\Users\sunyi\AppData\Local\Temp\ccAJOpVh.s 			page 24


 808              		.loc 1 377 0
 809 00d6 154B     		ldr	r3, .L61+12
 810 00d8 1B78     		ldrb	r3, [r3]
 811 00da 022B     		cmp	r3, #2
 812 00dc 12D1     		bne	.L59
 813              		.loc 1 377 0 is_stmt 0 discriminator 1
 814 00de 144B     		ldr	r3, .L61+16
 815 00e0 1B78     		ldrb	r3, [r3]
 816 00e2 142B     		cmp	r3, #20
 817 00e4 0ED0     		beq	.L59
 378:.\main.c      ****         {
 379:.\main.c      ****             if(YES == displayAlertMessage)
 818              		.loc 1 379 0 is_stmt 1
 819 00e6 134B     		ldr	r3, .L61+20
 820 00e8 1B78     		ldrb	r3, [r3]
 821 00ea 012B     		cmp	r3, #1
 822 00ec 06D1     		bne	.L60
 380:.\main.c      ****             {
 381:.\main.c      ****                 printf("Device started alerting with \"High Alert\"\r\n");
 823              		.loc 1 381 0
 824 00ee 154B     		ldr	r3, .L61+36
 825 00f0 181C     		mov	r0, r3
 826 00f2 FFF7FEFF 		bl	puts
 382:.\main.c      ****                 displayAlertMessage = NO;
 827              		.loc 1 382 0
 828 00f6 0F4B     		ldr	r3, .L61+20
 829 00f8 0022     		mov	r2, #0
 830 00fa 1A70     		strb	r2, [r3]
 831              	.L60:
 383:.\main.c      ****             }
 384:.\main.c      **** 
 385:.\main.c      ****             alertLedState = LED_ON;
 832              		.loc 1 385 0
 833 00fc 104B     		ldr	r3, .L61+32
 834 00fe 0022     		mov	r2, #0
 835 0100 1A70     		strb	r2, [r3]
 836 0102 05E0     		b	.L58
 837              	.L59:
 386:.\main.c      ****         }
 387:.\main.c      ****         /* In case of "No Alert" turn alert LED off */
 388:.\main.c      ****         else
 389:.\main.c      ****         {
 390:.\main.c      ****             displayAlertMessage = YES;
 838              		.loc 1 390 0
 839 0104 0B4B     		ldr	r3, .L61+20
 840 0106 0122     		mov	r2, #1
 841 0108 1A70     		strb	r2, [r3]
 391:.\main.c      **** 
 392:.\main.c      ****             alertLedState = LED_OFF;
 842              		.loc 1 392 0
 843 010a 0D4B     		ldr	r3, .L61+32
 844 010c 0122     		mov	r2, #1
 845 010e 1A70     		strb	r2, [r3]
 846              	.L58:
 393:.\main.c      ****         }
 394:.\main.c      **** 
 395:.\main.c      ****         Alert_LED_Write(alertLedState);
ARM GAS  C:\Users\sunyi\AppData\Local\Temp\ccAJOpVh.s 			page 25


 847              		.loc 1 395 0
 848 0110 0B4B     		ldr	r3, .L61+32
 849 0112 1B78     		ldrb	r3, [r3]
 850 0114 181C     		mov	r0, r3
 851 0116 FFF7FEFF 		bl	Alert_LED_Write
 852              	.L45:
 396:.\main.c      ****     }
 397:.\main.c      **** }
 853              		.loc 1 397 0
 854 011a BD46     		mov	sp, r7
 855              		@ sp needed
 856 011c 80BD     		pop	{r7, pc}
 857              	.L62:
 858 011e C046     		.align	2
 859              	.L61:
 860 0120 00000000 		.word	state
 861 0124 00000000 		.word	advBlinkDelayCount
 862 0128 00000000 		.word	advLedState
 863 012c 00000000 		.word	alertLevel
 864 0130 00000000 		.word	llsAlertTOCounter
 865 0134 00000000 		.word	displayAlertMessage
 866 0138 0C020000 		.word	.LC49
 867 013c 00000000 		.word	alertBlinkDelayCount
 868 0140 00000000 		.word	alertLedState
 869 0144 38020000 		.word	.LC53
 870              		.cfi_endproc
 871              	.LFE41:
 872              		.size	HandleLeds, .-HandleLeds
 873              		.section	.rodata
 874 0263 00       		.align	2
 875              	.LC59:
 876 0264 54782070 		.ascii	"Tx power level is set to %d dBm\015\012\000"
 876      6F776572 
 876      206C6576 
 876      656C2069 
 876      73207365 
 877 0286 0000     		.align	2
 878              	.LC63:
 879 0288 44657669 		.ascii	"Device has entered Limited Discovery mode \015\000"
 879      63652068 
 879      61732065 
 879      6E746572 
 879      6564204C 
 880              		.section	.text.main,"ax",%progbits
 881              		.align	2
 882              		.global	main
 883              		.code	16
 884              		.thumb_func
 885              		.type	main, %function
 886              	main:
 887              	.LFB42:
 398:.\main.c      **** 
 399:.\main.c      **** 
 400:.\main.c      **** /*******************************************************************************
 401:.\main.c      **** * Function Name: main
 402:.\main.c      **** ********************************************************************************
 403:.\main.c      **** *
ARM GAS  C:\Users\sunyi\AppData\Local\Temp\ccAJOpVh.s 			page 26


 404:.\main.c      **** * Summary:
 405:.\main.c      **** *  Main function.
 406:.\main.c      **** *
 407:.\main.c      **** * Parameters:
 408:.\main.c      **** *  None
 409:.\main.c      **** *
 410:.\main.c      **** * Return:
 411:.\main.c      **** *  None
 412:.\main.c      **** *
 413:.\main.c      **** *******************************************************************************/
 414:.\main.c      **** int main()
 415:.\main.c      **** {
 888              		.loc 1 415 0
 889              		.cfi_startproc
 890 0000 90B5     		push	{r4, r7, lr}
 891              		.cfi_def_cfa_offset 12
 892              		.cfi_offset 4, -12
 893              		.cfi_offset 7, -8
 894              		.cfi_offset 14, -4
 895 0002 85B0     		sub	sp, sp, #20
 896              		.cfi_def_cfa_offset 32
 897 0004 00AF     		add	r7, sp, #0
 898              		.cfi_def_cfa_register 7
 416:.\main.c      ****     CYBLE_API_RESULT_T apiResult;
 417:.\main.c      ****     CYBLE_BLESS_PWR_IN_DB_T txPower;
 418:.\main.c      ****     CYBLE_LP_MODE_T lpMode;
 419:.\main.c      ****     CYBLE_BLESS_STATE_T blessState;
 420:.\main.c      ****     int8 intTxPowerLevel;
 421:.\main.c      **** 
 422:.\main.c      ****     CyGlobalIntEnable;
 899              		.loc 1 422 0
 900              	@ 422 ".\main.c" 1
 901 0006 62B6     		CPSIE   i
 902              	@ 0 "" 2
 423:.\main.c      **** 
 424:.\main.c      ****     /* Turn off all of the LEDs */
 425:.\main.c      ****     Disconnect_LED_Write(LED_OFF);
 903              		.loc 1 425 0
 904              		.code	16
 905 0008 0120     		mov	r0, #1
 906 000a FFF7FEFF 		bl	Disconnect_LED_Write
 426:.\main.c      ****     Advertising_LED_Write(LED_OFF);
 907              		.loc 1 426 0
 908 000e 0120     		mov	r0, #1
 909 0010 FFF7FEFF 		bl	Advertising_LED_Write
 427:.\main.c      ****     Alert_LED_Write(LED_OFF);
 910              		.loc 1 427 0
 911 0014 0120     		mov	r0, #1
 912 0016 FFF7FEFF 		bl	Alert_LED_Write
 428:.\main.c      **** 
 429:.\main.c      ****     /* Start CYBLE component and register generic event handler */
 430:.\main.c      ****     CyBle_Start(GenericAppEventHandler);
 913              		.loc 1 430 0
 914 001a 7E4B     		ldr	r3, .L82
 915 001c 181C     		mov	r0, r3
 916 001e FFF7FEFF 		bl	CyBle_Start
 431:.\main.c      **** 
ARM GAS  C:\Users\sunyi\AppData\Local\Temp\ccAJOpVh.s 			page 27


 432:.\main.c      ****     SW2_Interrupt_StartEx(&ButtonPressInt);
 917              		.loc 1 432 0
 918 0022 7D4B     		ldr	r3, .L82+4
 919 0024 181C     		mov	r0, r3
 920 0026 FFF7FEFF 		bl	SW2_Interrupt_StartEx
 433:.\main.c      **** 
 434:.\main.c      ****     /* Register the event handler for LLS specific events */
 435:.\main.c      ****     CyBle_LlsRegisterAttrCallback(LlsServiceAppEventHandler);
 921              		.loc 1 435 0
 922 002a 7C4B     		ldr	r3, .L82+8
 923 002c 181C     		mov	r0, r3
 924 002e FFF7FEFF 		bl	CyBle_LlsRegisterAttrCallback
 436:.\main.c      **** 
 437:.\main.c      ****     /* Register the event handler for TPS specific events */
 438:.\main.c      ****     CyBle_TpsRegisterAttrCallback(TpsServiceAppEventHandler);
 925              		.loc 1 438 0
 926 0032 7B4B     		ldr	r3, .L82+12
 927 0034 181C     		mov	r0, r3
 928 0036 FFF7FEFF 		bl	CyBle_TpsRegisterAttrCallback
 439:.\main.c      **** 
 440:.\main.c      ****     /* Set Tx power level of the radio to 0 dBm */
 441:.\main.c      ****     txPower.bleSsChId = CYBLE_LL_CONN_CH_TYPE;
 929              		.loc 1 441 0
 930 003a 0823     		mov	r3, #8
 931 003c FB18     		add	r3, r7, r3
 932 003e 0122     		mov	r2, #1
 933 0040 5A70     		strb	r2, [r3, #1]
 442:.\main.c      ****     txPower.blePwrLevelInDbm = CYBLE_LL_PWR_LVL_0_DBM;
 934              		.loc 1 442 0
 935 0042 0823     		mov	r3, #8
 936 0044 FB18     		add	r3, r7, r3
 937 0046 0722     		mov	r2, #7
 938 0048 1A70     		strb	r2, [r3]
 443:.\main.c      **** 
 444:.\main.c      ****     apiResult = CyBle_SetTxPowerLevel(&txPower);
 939              		.loc 1 444 0
 940 004a 0E23     		mov	r3, #14
 941 004c FC18     		add	r4, r7, r3
 942 004e 0823     		mov	r3, #8
 943 0050 FB18     		add	r3, r7, r3
 944 0052 181C     		mov	r0, r3
 945 0054 FFF7FEFF 		bl	CyBle_SetTxPowerLevel
 946 0058 031C     		mov	r3, r0
 947 005a 2380     		strh	r3, [r4]
 445:.\main.c      **** 
 446:.\main.c      ****     WDT_Start();
 948              		.loc 1 446 0
 949 005c FFF7FEFF 		bl	WDT_Start
 447:.\main.c      **** 
 448:.\main.c      ****     if(CYBLE_ERROR_OK == apiResult)
 950              		.loc 1 448 0
 951 0060 0E23     		mov	r3, #14
 952 0062 FB18     		add	r3, r7, r3
 953 0064 1B88     		ldrh	r3, [r3]
 954 0066 002B     		cmp	r3, #0
 955 0068 11D1     		bne	.L64
 449:.\main.c      ****     {
ARM GAS  C:\Users\sunyi\AppData\Local\Temp\ccAJOpVh.s 			page 28


 450:.\main.c      ****         /* Convert power level to numeric int8 value */
 451:.\main.c      ****         intTxPowerLevel = ConvertTxPowerlevelToInt8(txPower.blePwrLevelInDbm);
 956              		.loc 1 451 0
 957 006a 0823     		mov	r3, #8
 958 006c FB18     		add	r3, r7, r3
 959 006e 1B78     		ldrb	r3, [r3]
 960 0070 181C     		mov	r0, r3
 961 0072 FFF7FEFF 		bl	ConvertTxPowerlevelToInt8
 962 0076 031C     		mov	r3, r0
 963 0078 DAB2     		uxtb	r2, r3
 964 007a FB1D     		add	r3, r7, #7
 965 007c 1A70     		strb	r2, [r3]
 452:.\main.c      **** 
 453:.\main.c      ****         /* Display new Tx Power Level value */
 454:.\main.c      ****         printf("Tx power level is set to %d dBm\r\n", intTxPowerLevel);
 966              		.loc 1 454 0
 967 007e FB1D     		add	r3, r7, #7
 968 0080 1B78     		ldrb	r3, [r3]
 969 0082 5BB2     		sxtb	r3, r3
 970 0084 674A     		ldr	r2, .L82+16
 971 0086 101C     		mov	r0, r2
 972 0088 191C     		mov	r1, r3
 973 008a FFF7FEFF 		bl	printf
 974              	.L64:
 455:.\main.c      ****     }
 456:.\main.c      **** 
 457:.\main.c      ****     UART_DEB_Start();
 975              		.loc 1 457 0
 976 008e FFF7FEFF 		bl	UART_DEB_Start
 977              	.L81:
 458:.\main.c      **** 
 459:.\main.c      ****     while(1)
 460:.\main.c      ****     {
 461:.\main.c      ****         /* CyBle_ProcessEvents() allows BLE stack to process pending events */
 462:.\main.c      ****         CyBle_ProcessEvents();
 978              		.loc 1 462 0
 979 0092 FFF7FEFF 		bl	CyBle_ProcessEvents
 463:.\main.c      **** 
 464:.\main.c      ****         if((CyBle_GetState() != CYBLE_STATE_CONNECTED) && (CyBle_GetState() != CYBLE_STATE_ADVERTIS
 980              		.loc 1 464 0
 981 0096 644B     		ldr	r3, .L82+20
 982 0098 1B78     		ldrb	r3, [r3]
 983 009a 022B     		cmp	r3, #2
 984 009c 15D0     		beq	.L65
 985              		.loc 1 464 0 is_stmt 0 discriminator 1
 986 009e 624B     		ldr	r3, .L82+20
 987 00a0 1B78     		ldrb	r3, [r3]
 988 00a2 032B     		cmp	r3, #3
 989 00a4 11D0     		beq	.L65
 465:.\main.c      ****         {
 466:.\main.c      ****             if(BUTTON_IS_PRESSED == buttonState)
 990              		.loc 1 466 0 is_stmt 1
 991 00a6 614B     		ldr	r3, .L82+24
 992 00a8 1B78     		ldrb	r3, [r3]
 993 00aa 012B     		cmp	r3, #1
 994 00ac 0CD1     		bne	.L66
 467:.\main.c      ****             {
ARM GAS  C:\Users\sunyi\AppData\Local\Temp\ccAJOpVh.s 			page 29


 468:.\main.c      ****                 /* Start advertisement */
 469:.\main.c      ****                 if(CYBLE_ERROR_OK == CyBle_GappStartAdvertisement(CYBLE_ADVERTISING_FAST))
 995              		.loc 1 469 0
 996 00ae 0020     		mov	r0, #0
 997 00b0 FFF7FEFF 		bl	CyBle_GappStartAdvertisement
 998 00b4 031E     		sub	r3, r0, #0
 999 00b6 03D1     		bne	.L67
 470:.\main.c      ****                 {
 471:.\main.c      ****                     printf("Device has entered Limited Discovery mode \r\n");
 1000              		.loc 1 471 0
 1001 00b8 5D4B     		ldr	r3, .L82+28
 1002 00ba 181C     		mov	r0, r3
 1003 00bc FFF7FEFF 		bl	puts
 1004              	.L67:
 472:.\main.c      ****                 }
 473:.\main.c      **** 
 474:.\main.c      ****                 /* Reset button state */
 475:.\main.c      ****                 buttonState = BUTTON_IS_NOT_PRESSED;
 1005              		.loc 1 475 0
 1006 00c0 5A4B     		ldr	r3, .L82+24
 1007 00c2 0022     		mov	r2, #0
 1008 00c4 1A70     		strb	r2, [r3]
 466:.\main.c      ****             {
 1009              		.loc 1 466 0
 1010 00c6 64E0     		b	.L68
 1011              	.L66:
 1012 00c8 63E0     		b	.L68
 1013              	.L65:
 476:.\main.c      ****             }
 477:.\main.c      ****         }
 478:.\main.c      ****         else
 479:.\main.c      ****         {
 480:.\main.c      ****             /* Decrease Tx power level of BLE radio if button is pressed */
 481:.\main.c      ****             if(BUTTON_IS_PRESSED == buttonState)
 1014              		.loc 1 481 0
 1015 00ca 584B     		ldr	r3, .L82+24
 1016 00cc 1B78     		ldrb	r3, [r3]
 1017 00ce 012B     		cmp	r3, #1
 1018 00d0 5FD1     		bne	.L68
 482:.\main.c      ****             {
 483:.\main.c      **** 				if(CyBle_GetState() == CYBLE_STATE_CONNECTED)
 1019              		.loc 1 483 0
 1020 00d2 554B     		ldr	r3, .L82+20
 1021 00d4 1B78     		ldrb	r3, [r3]
 1022 00d6 022B     		cmp	r3, #2
 1023 00d8 04D1     		bne	.L69
 484:.\main.c      **** 				{
 485:.\main.c      **** 					/* Specify connection channel for reading Tx power level */
 486:.\main.c      ****                 	txPower.bleSsChId = CYBLE_LL_CONN_CH_TYPE;
 1024              		.loc 1 486 0
 1025 00da 0823     		mov	r3, #8
 1026 00dc FB18     		add	r3, r7, r3
 1027 00de 0122     		mov	r2, #1
 1028 00e0 5A70     		strb	r2, [r3, #1]
 1029 00e2 07E0     		b	.L70
 1030              	.L69:
 487:.\main.c      **** 				}
ARM GAS  C:\Users\sunyi\AppData\Local\Temp\ccAJOpVh.s 			page 30


 488:.\main.c      **** 				else if(CyBle_GetState() == CYBLE_STATE_ADVERTISING)
 1031              		.loc 1 488 0
 1032 00e4 504B     		ldr	r3, .L82+20
 1033 00e6 1B78     		ldrb	r3, [r3]
 1034 00e8 032B     		cmp	r3, #3
 1035 00ea 03D1     		bne	.L70
 489:.\main.c      **** 				{
 490:.\main.c      **** 					/* //roit: Specify adv channel for reading Tx power level */
 491:.\main.c      ****                 	txPower.bleSsChId = CYBLE_LL_ADV_CH_TYPE;
 1036              		.loc 1 491 0
 1037 00ec 0823     		mov	r3, #8
 1038 00ee FB18     		add	r3, r7, r3
 1039 00f0 0022     		mov	r2, #0
 1040 00f2 5A70     		strb	r2, [r3, #1]
 1041              	.L70:
 492:.\main.c      **** 				}
 493:.\main.c      **** 				
 494:.\main.c      ****                 /* Get current Tx power level */
 495:.\main.c      ****                 CyBle_GetTxPowerLevel(&txPower);
 1042              		.loc 1 495 0
 1043 00f4 0823     		mov	r3, #8
 1044 00f6 FB18     		add	r3, r7, r3
 1045 00f8 181C     		mov	r0, r3
 1046 00fa FFF7FEFF 		bl	CyBle_GetTxPowerLevel
 496:.\main.c      **** 
 497:.\main.c      ****                 /* Decrease the Tx power level by one scale */
 498:.\main.c      ****                 DecreaseTxPowerLevelValue(&txPower.blePwrLevelInDbm);
 1047              		.loc 1 498 0
 1048 00fe 0823     		mov	r3, #8
 1049 0100 FB18     		add	r3, r7, r3
 1050 0102 181C     		mov	r0, r3
 1051 0104 FFF7FEFF 		bl	DecreaseTxPowerLevelValue
 499:.\main.c      **** 
 500:.\main.c      ****                 /* Set the new Tx power level */
 501:.\main.c      ****                 apiResult = CyBle_SetTxPowerLevel(&txPower);
 1052              		.loc 1 501 0
 1053 0108 0E23     		mov	r3, #14
 1054 010a FC18     		add	r4, r7, r3
 1055 010c 0823     		mov	r3, #8
 1056 010e FB18     		add	r3, r7, r3
 1057 0110 181C     		mov	r0, r3
 1058 0112 FFF7FEFF 		bl	CyBle_SetTxPowerLevel
 1059 0116 031C     		mov	r3, r0
 1060 0118 2380     		strh	r3, [r4]
 502:.\main.c      **** 
 503:.\main.c      ****                 if(CYBLE_ERROR_OK == apiResult)
 1061              		.loc 1 503 0
 1062 011a 0E23     		mov	r3, #14
 1063 011c FB18     		add	r3, r7, r3
 1064 011e 1B88     		ldrh	r3, [r3]
 1065 0120 002B     		cmp	r3, #0
 1066 0122 33D1     		bne	.L71
 504:.\main.c      ****                 {
 505:.\main.c      **** 					/* Get current TX power */
 506:.\main.c      **** 					CyBle_GetTxPowerLevel(&txPower);
 1067              		.loc 1 506 0
 1068 0124 0823     		mov	r3, #8
ARM GAS  C:\Users\sunyi\AppData\Local\Temp\ccAJOpVh.s 			page 31


 1069 0126 FB18     		add	r3, r7, r3
 1070 0128 181C     		mov	r0, r3
 1071 012a FFF7FEFF 		bl	CyBle_GetTxPowerLevel
 507:.\main.c      **** 					
 508:.\main.c      ****                     /* Convert power level to numeric int8 value */
 509:.\main.c      ****                     intTxPowerLevel = ConvertTxPowerlevelToInt8(txPower.blePwrLevelInDbm);
 1072              		.loc 1 509 0
 1073 012e 0823     		mov	r3, #8
 1074 0130 FB18     		add	r3, r7, r3
 1075 0132 1B78     		ldrb	r3, [r3]
 1076 0134 181C     		mov	r0, r3
 1077 0136 FFF7FEFF 		bl	ConvertTxPowerlevelToInt8
 1078 013a 031C     		mov	r3, r0
 1079 013c DAB2     		uxtb	r2, r3
 1080 013e FB1D     		add	r3, r7, #7
 1081 0140 1A70     		strb	r2, [r3]
 510:.\main.c      **** 
 511:.\main.c      ****                     (void) CyBle_TpssSetCharacteristicValue(CYBLE_TPS_TX_POWER_LEVEL,
 1082              		.loc 1 511 0
 1083 0142 FB1D     		add	r3, r7, #7
 1084 0144 0020     		mov	r0, #0
 1085 0146 0121     		mov	r1, #1
 1086 0148 1A1C     		mov	r2, r3
 1087 014a FFF7FEFF 		bl	CyBle_TpssSetCharacteristicValue
 512:.\main.c      ****                                                             CYBLE_TPS_TX_POWER_LEVEL_SIZE,
 513:.\main.c      ****                                                             &intTxPowerLevel);
 514:.\main.c      **** 					
 515:.\main.c      **** 					if(tps_notification_enabled)
 1088              		.loc 1 515 0
 1089 014e 394B     		ldr	r3, .L82+32
 1090 0150 1B78     		ldrb	r3, [r3]
 1091 0152 DBB2     		uxtb	r3, r3
 1092 0154 002B     		cmp	r3, #0
 1093 0156 11D0     		beq	.L72
 516:.\main.c      **** 					{
 517:.\main.c      **** 						/* If notifications have been enabled, send notification data */
 518:.\main.c      **** 						(void) CyBle_TpssSendNotification(cyBle_connHandle, 
 1094              		.loc 1 518 0
 1095 0158 374B     		ldr	r3, .L82+36
 1096 015a FC1D     		add	r4, r7, #7
 1097 015c 1A78     		ldrb	r2, [r3]
 1098 015e 5B78     		ldrb	r3, [r3, #1]
 1099 0160 1B02     		lsl	r3, r3, #8
 1100 0162 1A43     		orr	r2, r3
 1101 0164 0023     		mov	r3, #0
 1102 0166 1204     		lsl	r2, r2, #16
 1103 0168 120C     		lsr	r2, r2, #16
 1104 016a 1B0C     		lsr	r3, r3, #16
 1105 016c 1B04     		lsl	r3, r3, #16
 1106 016e 1343     		orr	r3, r2
 1107 0170 181C     		mov	r0, r3
 1108 0172 0021     		mov	r1, #0
 1109 0174 0122     		mov	r2, #1
 1110 0176 231C     		mov	r3, r4
 1111 0178 FFF7FEFF 		bl	CyBle_TpssSendNotification
 1112              	.L72:
 519:.\main.c      **** 															CYBLE_TPS_TX_POWER_LEVEL,
ARM GAS  C:\Users\sunyi\AppData\Local\Temp\ccAJOpVh.s 			page 32


 520:.\main.c      **** 															CYBLE_TPS_TX_POWER_LEVEL_SIZE,
 521:.\main.c      ****                                                             &intTxPowerLevel);
 522:.\main.c      **** 					}
 523:.\main.c      **** 
 524:.\main.c      ****                     /* Display new Tx Power Level value */
 525:.\main.c      ****                     printf("Tx power level is set to %d dBm\r\n", intTxPowerLevel);
 1113              		.loc 1 525 0
 1114 017c FB1D     		add	r3, r7, #7
 1115 017e 1B78     		ldrb	r3, [r3]
 1116 0180 5BB2     		sxtb	r3, r3
 1117 0182 284A     		ldr	r2, .L82+16
 1118 0184 101C     		mov	r0, r2
 1119 0186 191C     		mov	r1, r3
 1120 0188 FFF7FEFF 		bl	printf
 1121              	.L71:
 526:.\main.c      ****                 }
 527:.\main.c      ****             
 528:.\main.c      ****                 /* Reset button state */
 529:.\main.c      ****                 buttonState = BUTTON_IS_NOT_PRESSED;
 1122              		.loc 1 529 0
 1123 018c 274B     		ldr	r3, .L82+24
 1124 018e 0022     		mov	r2, #0
 1125 0190 1A70     		strb	r2, [r3]
 1126              	.L68:
 530:.\main.c      ****             }
 531:.\main.c      ****         }
 532:.\main.c      **** 
 533:.\main.c      ****         HandleLeds();
 1127              		.loc 1 533 0
 1128 0192 FFF7FEFF 		bl	HandleLeds
 534:.\main.c      ****         
 535:.\main.c      ****         if(CyBle_GetState() != CYBLE_STATE_INITIALIZING)
 1129              		.loc 1 535 0
 1130 0196 244B     		ldr	r3, .L82+20
 1131 0198 1B78     		ldrb	r3, [r3]
 1132 019a 012B     		cmp	r3, #1
 1133 019c 39D0     		beq	.L73
 536:.\main.c      ****         {
 537:.\main.c      ****             /* Enter DeepSleep mode between connection intervals */
 538:.\main.c      ****             lpMode = CyBle_EnterLPM(CYBLE_BLESS_DEEPSLEEP);
 1134              		.loc 1 538 0
 1135 019e 0D23     		mov	r3, #13
 1136 01a0 FC18     		add	r4, r7, r3
 1137 01a2 0320     		mov	r0, #3
 1138 01a4 FFF7FEFF 		bl	CyBle_EnterLPM
 1139 01a8 031C     		mov	r3, r0
 1140 01aa 2370     		strb	r3, [r4]
 539:.\main.c      ****             CyGlobalIntDisable;
 1141              		.loc 1 539 0
 1142              	@ 539 ".\main.c" 1
 1143 01ac 72B6     		CPSID   i
 1144              	@ 0 "" 2
 540:.\main.c      ****             blessState = CyBle_GetBleSsState();
 1145              		.loc 1 540 0
 1146              		.code	16
 1147 01ae 0C23     		mov	r3, #12
 1148 01b0 FC18     		add	r4, r7, r3
ARM GAS  C:\Users\sunyi\AppData\Local\Temp\ccAJOpVh.s 			page 33


 1149 01b2 FFF7FEFF 		bl	CyBle_GetBleSsState
 1150 01b6 031C     		mov	r3, r0
 1151 01b8 2370     		strb	r3, [r4]
 541:.\main.c      **** 
 542:.\main.c      ****             if(lpMode == CYBLE_BLESS_DEEPSLEEP) 
 1152              		.loc 1 542 0
 1153 01ba 0D23     		mov	r3, #13
 1154 01bc FB18     		add	r3, r7, r3
 1155 01be 1B78     		ldrb	r3, [r3]
 1156 01c0 032B     		cmp	r3, #3
 1157 01c2 1ED1     		bne	.L74
 543:.\main.c      ****             {   
 544:.\main.c      ****                 if(blessState == CYBLE_BLESS_STATE_ECO_ON || blessState == CYBLE_BLESS_STATE_DEEPSL
 1158              		.loc 1 544 0
 1159 01c4 0C23     		mov	r3, #12
 1160 01c6 FB18     		add	r3, r7, r3
 1161 01c8 1B78     		ldrb	r3, [r3]
 1162 01ca 042B     		cmp	r3, #4
 1163 01cc 04D0     		beq	.L75
 1164              		.loc 1 544 0 is_stmt 0 discriminator 1
 1165 01ce 0C23     		mov	r3, #12
 1166 01d0 FB18     		add	r3, r7, r3
 1167 01d2 1B78     		ldrb	r3, [r3]
 1168 01d4 062B     		cmp	r3, #6
 1169 01d6 1BD1     		bne	.L80
 1170              	.L75:
 545:.\main.c      ****                 {
 546:.\main.c      ****                     /* Put the device into the Deep Sleep mode only when all debug information has 
 547:.\main.c      ****                    if((UART_DEB_SpiUartGetTxBufferSize() + UART_DEB_GET_TX_FIFO_SR_VALID) == 0u)
 1171              		.loc 1 547 0 is_stmt 1
 1172 01d8 FFF7FEFF 		bl	UART_DEB_SpiUartGetTxBufferSize
 1173 01dc 011C     		mov	r1, r0
 1174 01de 174B     		ldr	r3, .L82+40
 1175 01e0 1A68     		ldr	r2, [r3]
 1176 01e2 8023     		mov	r3, #128
 1177 01e4 1B02     		lsl	r3, r3, #8
 1178 01e6 1340     		and	r3, r2
 1179 01e8 01D0     		beq	.L77
 1180              		.loc 1 547 0 is_stmt 0 discriminator 1
 1181 01ea 0123     		mov	r3, #1
 1182 01ec 00E0     		b	.L78
 1183              	.L77:
 1184              		.loc 1 547 0 discriminator 2
 1185 01ee 0023     		mov	r3, #0
 1186              	.L78:
 1187              		.loc 1 547 0 discriminator 4
 1188 01f0 CB18     		add	r3, r1, r3
 1189 01f2 002B     		cmp	r3, #0
 1190 01f4 02D1     		bne	.L79
 548:.\main.c      ****                     {
 549:.\main.c      ****                         CySysPmDeepSleep();
 1191              		.loc 1 549 0 is_stmt 1
 1192 01f6 FFF7FEFF 		bl	CySysPmDeepSleep
 1193 01fa 09E0     		b	.L80
 1194              	.L79:
 550:.\main.c      ****                     }
 551:.\main.c      ****                     else
ARM GAS  C:\Users\sunyi\AppData\Local\Temp\ccAJOpVh.s 			page 34


 552:.\main.c      ****                     {
 553:.\main.c      ****                         CySysPmSleep();
 1195              		.loc 1 553 0
 1196 01fc FFF7FEFF 		bl	CySysPmSleep
 1197 0200 06E0     		b	.L80
 1198              	.L74:
 554:.\main.c      ****                     }
 555:.\main.c      ****                 }
 556:.\main.c      ****             }
 557:.\main.c      ****             else
 558:.\main.c      ****             {
 559:.\main.c      ****                 if(blessState != CYBLE_BLESS_STATE_EVENT_CLOSE)
 1199              		.loc 1 559 0
 1200 0202 0C23     		mov	r3, #12
 1201 0204 FB18     		add	r3, r7, r3
 1202 0206 1B78     		ldrb	r3, [r3]
 1203 0208 022B     		cmp	r3, #2
 1204 020a 01D0     		beq	.L80
 560:.\main.c      ****                 {
 561:.\main.c      ****                     CySysPmSleep();
 1205              		.loc 1 561 0
 1206 020c FFF7FEFF 		bl	CySysPmSleep
 1207              	.L80:
 562:.\main.c      ****                 }
 563:.\main.c      ****             }
 564:.\main.c      ****             CyGlobalIntEnable;
 1208              		.loc 1 564 0
 1209              	@ 564 ".\main.c" 1
 1210 0210 62B6     		CPSIE   i
 1211              	@ 0 "" 2
 1212              		.code	16
 1213              	.L73:
 565:.\main.c      ****         }
 566:.\main.c      ****     }
 1214              		.loc 1 566 0
 1215 0212 3EE7     		b	.L81
 1216              	.L83:
 1217              		.align	2
 1218              	.L82:
 1219 0214 00000000 		.word	GenericAppEventHandler
 1220 0218 00000000 		.word	ButtonPressInt
 1221 021c 00000000 		.word	LlsServiceAppEventHandler
 1222 0220 00000000 		.word	TpsServiceAppEventHandler
 1223 0224 64020000 		.word	.LC59
 1224 0228 00000000 		.word	cyBle_state
 1225 022c 00000000 		.word	buttonState
 1226 0230 88020000 		.word	.LC63
 1227 0234 00000000 		.word	tps_notification_enabled
 1228 0238 00000000 		.word	cyBle_connHandle
 1229 023c 08022440 		.word	1076101640
 1230              		.cfi_endproc
 1231              	.LFE42:
 1232              		.size	main, .-main
 1233              		.text
 1234              	.Letext0:
 1235              		.file 2 "Generated_Source\\PSoC4/cytypes.h"
 1236              		.file 3 "Generated_Source\\PSoC4/CYBLE_Stack.h"
ARM GAS  C:\Users\sunyi\AppData\Local\Temp\ccAJOpVh.s 			page 35


 1237              		.file 4 "Generated_Source\\PSoC4/CYBLE_StackHostMain.h"
 1238              		.file 5 "Generated_Source\\PSoC4/CYBLE_StackGatt.h"
 1239              		.file 6 "Generated_Source\\PSoC4/CYBLE_lls.h"
 1240              		.file 7 "Generated_Source\\PSoC4/CYBLE_tps.h"
 1241              		.file 8 "Generated_Source\\PSoC4/CYBLE_eventHandler.h"
 1242              		.file 9 ".\\lls.h"